   1              		.file	"update.cpp"
   2              		.section	".text"
   3              	.Ltext0:
   4              		.align 2
   5              		.globl _Z11DownloadDolPKc
   6              		.type	_Z11DownloadDolPKc, @function
   7              	_Z11DownloadDolPKc:
   8              	.LFB1503:
   9              		.file 1 "d:/Projects/SaveGameManager/savegame-manager-gx/trunk/source/Network/update.cpp"
  10              		.loc 1 175 0
  11              		.cfi_startproc
  12              		.cfi_personality 0,__gxx_personality_v0
  13              		.cfi_lsda 0,.LLSDA1503
  14              	.LVL0:
  15 0000 9421FFB8 		stwu 1,-72(1)
  16              	.LCFI0:
  17              		.cfi_def_cfa_offset 72
  18 0004 7C0802A6 		mflr 0
  19 0008 93E10044 		stw 31,68(1)
  20 000c 7C3F0B78 		mr 31,1
  21              		.cfi_offset 31, -4
  22              		.cfi_register 65, 0
  23              	.LCFI1:
  24              		.cfi_def_cfa_register 31
  25 0010 9001004C 		stw 0,76(1)
  26 0014 9321002C 		stw 25,44(1)
  27 0018 93410030 		stw 26,48(1)
  28 001c 93610034 		stw 27,52(1)
  29 0020 93810038 		stw 28,56(1)
  30 0024 93A1003C 		stw 29,60(1)
  31 0028 93C10040 		stw 30,64(1)
  32              	.LEHB0:
  33              	.LBB2341:
  34              		.loc 1 176 0
  35              		.cfi_offset 30, -8
  36              		.cfi_offset 29, -12
  37              		.cfi_offset 28, -16
  38              		.cfi_offset 27, -20
  39              		.cfi_offset 26, -24
  40              		.cfi_offset 25, -28
  41              		.cfi_offset 65, 4
  42 002c 48000001 		bl downloadfile
  43              	.LEHE0:
  44              	.LVL1:
  45              		.loc 1 177 0
  46 0030 7C992379 		mr. 25,4
  47              		.loc 1 176 0
  48 0034 7C7B1B78 		mr 27,3
  49              	.LVL2:
  50              		.loc 1 177 0
  51 0038 4182011C 		beq- 0,.L41
  52              		.loc 1 180 0
  53 003c 3FC00000 		lis 30,Settings+494@ha
  54 0040 387F0018 		addi 3,31,24
  55 0044 3BDE01EE 		la 30,Settings+494@l(30)
  56 0048 38BF000D 		addi 5,31,13
  57 004c 7FC4F378 		mr 4,30
  58              	.LEHB1:
  59 0050 48000001 		bl _ZNSsC1EPKcRKSaIcE
  60              	.LEHE1:
  61              		.loc 1 180 0 is_stmt 0 discriminator 1
  62 0054 387F0018 		addi 3,31,24
  63              	.LEHB2:
  64 0058 48000001 		bl _Z15CreateSubfolderSs
  65              	.LEHE2:
  66              	.LVL3:
  67              	.LBB2342:
  68              	.LBB2343:
  69              	.LBB2344:
  70              	.LBB2345:
  71              	.LBB2346:
  72              	.LBB2347:
  73              		.file 2 "d:\\devkitpro\\devkitppc\\bin\\../lib/gcc/powerpc-eabi/4.6.3/../../../../powerpc-eabi/inc
  74              		.loc 2 288 0 is_stmt 1
  75 005c 813F0018 		lwz 9,24(31)
  76              	.LBE2347:
  77              	.LBE2346:
  78              	.LBE2345:
  79              	.LBB2348:
  80              	.LBB2349:
  81              		.loc 2 235 0
  82 0060 3F800000 		lis 28,_ZNSs4_Rep20_S_empty_rep_storageE@ha
  83 0064 3B9C0000 		la 28,_ZNSs4_Rep20_S_empty_rep_storageE@l(28)
  84              	.LBE2349:
  85              	.LBE2348:
  86              		.loc 2 534 0
  87 0068 3869FFF4 		addi 3,9,-12
  88              	.LVL4:
  89              	.LBB2358:
  90              	.LBB2356:
  91              		.loc 2 235 0
  92 006c 7F83E000 		cmpw 7,3,28
  93 0070 409E01D0 		bne- 7,.L52
  94              	.LVL5:
  95              	.L10:
  96              	.LBE2356:
  97              	.LBE2358:
  98              	.LBE2344:
  99              	.LBE2343:
 100              	.LBE2342:
 101              		.loc 1 182 0 discriminator 1
 102 0074 7FC3F378 		mr 3,30
 103 0078 48000001 		bl strlen
 104 007c 81210000 		lwz 9,0(1)
 105 0080 38030028 		addi 0,3,40
 106 0084 7C641B78 		mr 4,3
 107              	.LVL6:
 108 0088 54000036 		rlwinm 0,0,0,0,27
 109              		.loc 1 183 0 discriminator 1
 110 008c 3CA00000 		lis 5,.LC0@ha
 111              		.loc 1 182 0 discriminator 1
 112 0090 7C0000D0 		neg 0,0
 113              		.loc 1 183 0 discriminator 1
 114 0094 3884000A 		addi 4,4,10
 115              		.loc 1 182 0 discriminator 1
 116 0098 7D21016E 		stwux 9,1,0
 117              		.loc 1 183 0 discriminator 1
 118 009c 38A50000 		la 5,.LC0@l(5)
 119 00a0 7FC6F378 		mr 6,30
 120              		.loc 1 182 0 discriminator 1
 121 00a4 3BA10017 		addi 29,1,23
 122 00a8 57BD0036 		rlwinm 29,29,0,0,27
 123              	.LVL7:
 124              		.loc 1 183 0 discriminator 1
 125 00ac 7FA3EB78 		mr 3,29
 126              	.LVL8:
 127              	.LEHB3:
 128 00b0 4CC63182 		crxor 6,6,6
 129 00b4 48000001 		bl snprintf
 130              	.LVL9:
 131              		.loc 1 185 0
 132 00b8 3C800000 		lis 4,.LC1@ha
 133 00bc 7FA3EB78 		mr 3,29
 134 00c0 3884000C 		la 4,.LC1@l(4)
 135 00c4 48000001 		bl fopen
 136              	.LVL10:
 137              		.loc 1 186 0
 138 00c8 7C7A1B79 		mr. 26,3
 139 00cc 41820088 		beq- 0,.L41
 140              		.loc 1 189 0
 141 00d0 7F23CB78 		mr 3,25
 142              	.LVL11:
 143 00d4 38800001 		li 4,1
 144 00d8 7F65DB78 		mr 5,27
 145 00dc 7F46D378 		mr 6,26
 146 00e0 48000001 		bl fwrite
 147 00e4 7F9B1800 		cmpw 7,27,3
 148              		.loc 1 191 0
 149 00e8 7F43D378 		mr 3,26
 150              		.loc 1 189 0
 151 00ec 419E00A0 		beq- 7,.L11
 152              		.loc 1 191 0
 153 00f0 48000001 		bl fclose
 154              	.LEHE3:
 155              		.loc 1 192 0
 156 00f4 387F0014 		addi 3,31,20
 157 00f8 7FA4EB78 		mr 4,29
 158 00fc 38BF000C 		addi 5,31,12
 159              	.LEHB4:
 160 0100 48000001 		bl _ZNSsC1EPKcRKSaIcE
 161              	.LEHE4:
 162              		.loc 1 192 0 is_stmt 0 discriminator 1
 163 0104 387F0014 		addi 3,31,20
 164              	.LEHB5:
 165 0108 48000001 		bl _Z10RemoveFileSs
 166              	.LEHE5:
 167              	.LVL12:
 168              	.LBB2362:
 169              	.LBB2363:
 170              	.LBB2364:
 171              	.LBB2365:
 172              	.LBB2366:
 173              	.LBB2367:
 174              		.loc 2 288 0 is_stmt 1
 175 010c 813F0014 		lwz 9,20(31)
 176              	.LBE2367:
 177              	.LBE2366:
 178              	.LBE2365:
 179              	.LBB2368:
 180              	.LBB2369:
 181              		.loc 1 193 0
 182 0110 3BC00000 		li 30,0
 183              	.LBE2369:
 184              	.LBE2368:
 185              		.loc 2 534 0
 186 0114 3869FFF4 		addi 3,9,-12
 187              	.LVL13:
 188              	.LBB2378:
 189              	.LBB2376:
 190              		.loc 2 235 0
 191 0118 7F83E000 		cmpw 7,3,28
 192 011c 409E0144 		bne- 7,.L53
 193              	.LVL14:
 194              	.L26:
 195              	.LBE2376:
 196              	.LBE2378:
 197              	.LBE2364:
 198              	.LBE2363:
 199              	.LBE2362:
 200              	.LBE2341:
 201              		.loc 1 203 0
 202 0120 397F0048 		addi 11,31,72
 203 0124 7FC3F378 		mr 3,30
 204 0128 800B0004 		lwz 0,4(11)
 205 012c 832BFFE4 		lwz 25,-28(11)
 206 0130 7C0803A6 		mtlr 0
 207 0134 834BFFE8 		lwz 26,-24(11)
 208              	.LVL15:
 209 0138 836BFFEC 		lwz 27,-20(11)
 210 013c 838BFFF0 		lwz 28,-16(11)
 211 0140 83ABFFF4 		lwz 29,-12(11)
 212              	.LVL16:
 213 0144 83CBFFF8 		lwz 30,-8(11)
 214 0148 83EBFFFC 		lwz 31,-4(11)
 215              		.cfi_remember_state
 216              	.LCFI2:
 217              		.cfi_def_cfa 11, 0
 218 014c 7D615B78 		mr 1,11
 219              	.LCFI3:
 220              		.cfi_def_cfa_register 1
 221              		.cfi_restore 31
 222              		.cfi_restore 30
 223              		.cfi_restore 29
 224              		.cfi_restore 28
 225              		.cfi_restore 27
 226              		.cfi_restore 26
 227              		.cfi_restore 25
 228 0150 4E800020 		blr
 229              	.LVL17:
 230              	.L41:
 231              	.LCFI4:
 232              		.cfi_restore_state
 233 0154 397F0048 		addi 11,31,72
 234              	.LBB2403:
 235              		.loc 1 187 0
 236 0158 3BC00000 		li 30,0
 237              	.LBE2403:
 238              		.loc 1 203 0
 239 015c 800B0004 		lwz 0,4(11)
 240 0160 7FC3F378 		mr 3,30
 241 0164 832BFFE4 		lwz 25,-28(11)
 242 0168 7C0803A6 		mtlr 0
 243 016c 834BFFE8 		lwz 26,-24(11)
 244 0170 836BFFEC 		lwz 27,-20(11)
 245 0174 838BFFF0 		lwz 28,-16(11)
 246 0178 83ABFFF4 		lwz 29,-12(11)
 247 017c 83CBFFF8 		lwz 30,-8(11)
 248 0180 83EBFFFC 		lwz 31,-4(11)
 249              		.cfi_remember_state
 250              	.LCFI5:
 251              		.cfi_def_cfa 11, 0
 252 0184 7D615B78 		mr 1,11
 253              		.cfi_restore 25
 254              		.cfi_restore 26
 255              		.cfi_restore 27
 256              		.cfi_restore 28
 257              		.cfi_restore 29
 258              		.cfi_restore 30
 259              		.cfi_restore 31
 260              	.LCFI6:
 261              		.cfi_def_cfa_register 1
 262 0188 4E800020 		blr
 263              	.LVL18:
 264              	.L11:
 265              	.LCFI7:
 266              		.cfi_restore_state
 267              	.LEHB6:
 268              	.LBB2404:
 269              		.loc 1 195 0
 270 018c 48000001 		bl fclose
 271              	.LVL19:
 272              		.loc 1 197 0
 273 0190 7FA3EB78 		mr 3,29
 274 0194 48000001 		bl strlen
 275 0198 81210000 		lwz 9,0(1)
 276 019c 3803001F 		addi 0,3,31
 277 01a0 7C641B78 		mr 4,3
 278              	.LVL20:
 279 01a4 54000036 		rlwinm 0,0,0,0,27
 280              		.loc 1 198 0
 281 01a8 3CA00000 		lis 5,.LC2@ha
 282              		.loc 1 197 0
 283 01ac 7C0000D0 		neg 0,0
 284              		.loc 1 198 0
 285 01b0 38840001 		addi 4,4,1
 286              		.loc 1 197 0
 287 01b4 7D21016E 		stwux 9,1,0
 288              		.loc 1 198 0
 289 01b8 38A50010 		la 5,.LC2@l(5)
 290 01bc 7FC6F378 		mr 6,30
 291              		.loc 1 197 0
 292 01c0 3B610017 		addi 27,1,23
 293 01c4 577B0036 		rlwinm 27,27,0,0,27
 294              	.LVL21:
 295              		.loc 1 198 0
 296 01c8 7F63DB78 		mr 3,27
 297              	.LVL22:
 298 01cc 4CC63182 		crxor 6,6,6
 299 01d0 48000001 		bl snprintf
 300              	.LEHE6:
 301              	.LVL23:
 302              		.loc 1 199 0
 303 01d4 387F0010 		addi 3,31,16
 304 01d8 7F64DB78 		mr 4,27
 305 01dc 38BF000B 		addi 5,31,11
 306              	.LEHB7:
 307 01e0 48000001 		bl _ZNSsC1EPKcRKSaIcE
 308              	.LEHE7:
 309              		.loc 1 199 0 is_stmt 0 discriminator 1
 310 01e4 387F0010 		addi 3,31,16
 311              	.LEHB8:
 312 01e8 48000001 		bl _Z10RemoveFileSs
 313              	.LEHE8:
 314              	.LVL24:
 315              	.LBB2382:
 316              	.LBB2383:
 317              	.LBB2384:
 318              	.LBB2385:
 319              	.LBB2386:
 320              	.LBB2387:
 321              		.loc 2 288 0 is_stmt 1
 322 01ec 813F0010 		lwz 9,16(31)
 323              	.LBE2387:
 324              	.LBE2386:
 325              	.LBE2385:
 326              		.loc 2 534 0
 327 01f0 3869FFF4 		addi 3,9,-12
 328              	.LVL25:
 329              	.LBB2388:
 330              	.LBB2389:
 331              		.loc 2 235 0
 332 01f4 7F83E000 		cmpw 7,3,28
 333 01f8 409E0088 		bne- 7,.L54
 334              	.LVL26:
 335              	.L19:
 336              	.LBE2389:
 337              	.LBE2388:
 338              	.LBE2384:
 339              	.LBE2383:
 340              	.LBE2382:
 341              		.loc 1 200 0 discriminator 1
 342 01fc 7FA3EB78 		mr 3,29
 343 0200 7F64DB78 		mr 4,27
 344              	.LEHB9:
 345 0204 48000001 		bl rename
 346              	.LEHE9:
 347              	.LBE2404:
 348              		.loc 1 203 0
 349 0208 397F0048 		addi 11,31,72
 350              	.LBB2405:
 351              		.loc 1 202 0
 352 020c 3BC00001 		li 30,1
 353              	.LBE2405:
 354              		.loc 1 203 0
 355 0210 800B0004 		lwz 0,4(11)
 356 0214 7FC3F378 		mr 3,30
 357 0218 832BFFE4 		lwz 25,-28(11)
 358 021c 7C0803A6 		mtlr 0
 359 0220 834BFFE8 		lwz 26,-24(11)
 360              	.LVL27:
 361 0224 836BFFEC 		lwz 27,-20(11)
 362              	.LVL28:
 363 0228 838BFFF0 		lwz 28,-16(11)
 364 022c 83ABFFF4 		lwz 29,-12(11)
 365              	.LVL29:
 366 0230 83CBFFF8 		lwz 30,-8(11)
 367 0234 83EBFFFC 		lwz 31,-4(11)
 368              		.cfi_remember_state
 369              	.LCFI8:
 370              		.cfi_def_cfa 11, 0
 371 0238 7D615B78 		mr 1,11
 372              		.cfi_restore 25
 373              		.cfi_restore 26
 374              		.cfi_restore 27
 375              		.cfi_restore 28
 376              		.cfi_restore 29
 377              		.cfi_restore 30
 378              		.cfi_restore 31
 379              	.LCFI9:
 380              		.cfi_def_cfa_register 1
 381 023c 4E800020 		blr
 382              	.LVL30:
 383              	.L52:
 384              	.LCFI10:
 385              		.cfi_restore_state
 386              	.LBB2406:
 387              	.LBB2400:
 388              	.LBB2361:
 389              	.LBB2360:
 390              	.LBB2359:
 391              	.LBB2357:
 392              	.LBB2350:
 393              	.LBB2351:
 394              	.LBB2352:
 395              		.file 3 "d:\\devkitpro\\devkitppc\\bin\\../lib/gcc/powerpc-eabi/4.6.3/../../../../powerpc-eabi/inc
 396              		.loc 3 66 0
 397 0240 8169FFFC 		lwz 11,-4(9)
 398              	.LVL31:
 399              	.LBE2352:
 400              	.LBE2351:
 401              	.LBE2350:
 402              		.loc 2 240 0
 403 0244 2F8B0000 		cmpwi 7,11,0
 404              	.LBB2355:
 405              	.LBB2354:
 406              	.LBB2353:
 407              		.loc 3 67 0
 408 0248 396BFFFF 		addi 11,11,-1
 409 024c 9169FFFC 		stw 11,-4(9)
 410              	.LBE2353:
 411              	.LBE2354:
 412              	.LBE2355:
 413              		.loc 2 240 0
 414 0250 419DFE24 		bgt+ 7,.L10
 415              		.loc 2 244 0
 416 0254 389F000A 		addi 4,31,10
 417 0258 48000001 		bl _ZNSs4_Rep10_M_destroyERKSaIcE
 418              	.LVL32:
 419 025c 4BFFFE18 		b .L10
 420              	.LVL33:
 421              	.L53:
 422              	.LBE2357:
 423              	.LBE2359:
 424              	.LBE2360:
 425              	.LBE2361:
 426              	.LBE2400:
 427              	.LBB2401:
 428              	.LBB2381:
 429              	.LBB2380:
 430              	.LBB2379:
 431              	.LBB2377:
 432              	.LBB2370:
 433              	.LBB2371:
 434              	.LBB2372:
 435              		.loc 3 66 0
 436 0260 8169FFFC 		lwz 11,-4(9)
 437              	.LVL34:
 438              	.LBE2372:
 439              	.LBE2371:
 440              	.LBE2370:
 441              		.loc 2 240 0
 442 0264 2F8B0000 		cmpwi 7,11,0
 443              	.LBB2375:
 444              	.LBB2374:
 445              	.LBB2373:
 446              		.loc 3 67 0
 447 0268 396BFFFF 		addi 11,11,-1
 448 026c 9169FFFC 		stw 11,-4(9)
 449              	.LBE2373:
 450              	.LBE2374:
 451              	.LBE2375:
 452              		.loc 2 240 0
 453 0270 419DFEB0 		bgt+ 7,.L26
 454              		.loc 2 244 0
 455 0274 389F0009 		addi 4,31,9
 456 0278 48000001 		bl _ZNSs4_Rep10_M_destroyERKSaIcE
 457              	.LVL35:
 458 027c 4BFFFEA4 		b .L26
 459              	.LVL36:
 460              	.L54:
 461              	.LBE2377:
 462              	.LBE2379:
 463              	.LBE2380:
 464              	.LBE2381:
 465              	.LBE2401:
 466              	.LBB2402:
 467              	.LBB2399:
 468              	.LBB2398:
 469              	.LBB2397:
 470              	.LBB2396:
 471              	.LBB2390:
 472              	.LBB2391:
 473              	.LBB2392:
 474              		.loc 3 66 0
 475 0280 8169FFFC 		lwz 11,-4(9)
 476              	.LVL37:
 477              	.LBE2392:
 478              	.LBE2391:
 479              	.LBE2390:
 480              		.loc 2 240 0
 481 0284 2F8B0000 		cmpwi 7,11,0
 482              	.LBB2395:
 483              	.LBB2394:
 484              	.LBB2393:
 485              		.loc 3 67 0
 486 0288 396BFFFF 		addi 11,11,-1
 487 028c 9169FFFC 		stw 11,-4(9)
 488              	.LBE2393:
 489              	.LBE2394:
 490              	.LBE2395:
 491              		.loc 2 240 0
 492 0290 419DFF6C 		bgt+ 7,.L19
 493              		.loc 2 244 0
 494 0294 389F0008 		addi 4,31,8
 495 0298 48000001 		bl _ZNSs4_Rep10_M_destroyERKSaIcE
 496              	.LVL38:
 497 029c 4BFFFF60 		b .L19
 498              	.LVL39:
 499              	.L47:
 500              	.L31:
 501              	.LEHB10:
 502              	.LBE2396:
 503              	.LBE2397:
 504              	.LBE2398:
 505              	.LBE2399:
 506              	.LBE2402:
 507              		.loc 1 199 0
 508 02a0 48000001 		bl _Unwind_Resume
 509              	.LEHE10:
 510              	.L45:
 511 02a4 4BFFFFFC 		b .L31
 512              	.LVL40:
 513              	.L48:
 514 02a8 7C7E1B78 		mr 30,3
 515              		.loc 1 192 0
 516 02ac 387F0014 		addi 3,31,20
 517 02b0 48000001 		bl _ZNSsD1Ev
 518 02b4 7FC3F378 		mr 3,30
 519 02b8 4BFFFFE8 		b .L31
 520              	.LVL41:
 521              	.L50:
 522 02bc 7C7E1B78 		mr 30,3
 523              		.loc 1 199 0
 524 02c0 387F0010 		addi 3,31,16
 525 02c4 48000001 		bl _ZNSsD1Ev
 526 02c8 7FC3F378 		mr 3,30
 527 02cc 4BFFFFD4 		b .L31
 528              	.L49:
 529 02d0 4BFFFFD0 		b .L31
 530              	.LVL42:
 531              	.L44:
 532 02d4 4BFFFFCC 		b .L31
 533              	.L46:
 534 02d8 7C7E1B78 		mr 30,3
 535              		.loc 1 180 0
 536 02dc 387F0018 		addi 3,31,24
 537 02e0 48000001 		bl _ZNSsD1Ev
 538 02e4 7FC3F378 		mr 3,30
 539 02e8 4BFFFFB8 		b .L31
 540              	.LBE2406:
 541              		.cfi_endproc
 542              	.LFE1503:
 543              		.globl __gxx_personality_v0
 544              		.section	.gcc_except_table,"a",@progbits
 545              	.LLSDA1503:
 546 0000 FF       		.byte	0xff
 547 0001 FF       		.byte	0xff
 548 0002 01       		.byte	0x1
 549 0003 3E       		.uleb128 .LLSDACSE1503-.LLSDACSB1503
 550              	.LLSDACSB1503:
 551 0004 2C       		.uleb128 .LEHB0-.LFB1503
 552 0005 04       		.uleb128 .LEHE0-.LEHB0
 553 0006 D405     		.uleb128 .L44-.LFB1503
 554 0008 00       		.uleb128 0
 555 0009 50       		.uleb128 .LEHB1-.LFB1503
 556 000a 04       		.uleb128 .LEHE1-.LEHB1
 557 000b A405     		.uleb128 .L45-.LFB1503
 558 000d 00       		.uleb128 0
 559 000e 58       		.uleb128 .LEHB2-.LFB1503
 560 000f 04       		.uleb128 .LEHE2-.LEHB2
 561 0010 D805     		.uleb128 .L46-.LFB1503
 562 0012 00       		.uleb128 0
 563 0013 B001     		.uleb128 .LEHB3-.LFB1503
 564 0015 44       		.uleb128 .LEHE3-.LEHB3
 565 0016 D405     		.uleb128 .L44-.LFB1503
 566 0018 00       		.uleb128 0
 567 0019 8002     		.uleb128 .LEHB4-.LFB1503
 568 001b 04       		.uleb128 .LEHE4-.LEHB4
 569 001c A005     		.uleb128 .L47-.LFB1503
 570 001e 00       		.uleb128 0
 571 001f 8802     		.uleb128 .LEHB5-.LFB1503
 572 0021 04       		.uleb128 .LEHE5-.LEHB5
 573 0022 A805     		.uleb128 .L48-.LFB1503
 574 0024 00       		.uleb128 0
 575 0025 8C03     		.uleb128 .LEHB6-.LFB1503
 576 0027 48       		.uleb128 .LEHE6-.LEHB6
 577 0028 D405     		.uleb128 .L44-.LFB1503
 578 002a 00       		.uleb128 0
 579 002b E003     		.uleb128 .LEHB7-.LFB1503
 580 002d 04       		.uleb128 .LEHE7-.LEHB7
 581 002e D005     		.uleb128 .L49-.LFB1503
 582 0030 00       		.uleb128 0
 583 0031 E803     		.uleb128 .LEHB8-.LFB1503
 584 0033 04       		.uleb128 .LEHE8-.LEHB8
 585 0034 BC05     		.uleb128 .L50-.LFB1503
 586 0036 00       		.uleb128 0
 587 0037 8404     		.uleb128 .LEHB9-.LFB1503
 588 0039 04       		.uleb128 .LEHE9-.LEHB9
 589 003a D405     		.uleb128 .L44-.LFB1503
 590 003c 00       		.uleb128 0
 591 003d A005     		.uleb128 .LEHB10-.LFB1503
 592 003f 04       		.uleb128 .LEHE10-.LEHB10
 593 0040 00       		.uleb128 0
 594 0041 00       		.uleb128 0
 595              	.LLSDACSE1503:
 596              		.section	".text"
 597              		.size	_Z11DownloadDolPKc, .-_Z11DownloadDolPKc
 598              		.align 2
 599              		.globl _Z13UpdateMetaXmlv
 600              		.type	_Z13UpdateMetaXmlv, @function
 601              	_Z13UpdateMetaXmlv:
 602              	.LFB1505:
 603              		.loc 1 282 0
 604              		.cfi_startproc
 605              		.cfi_personality 0,__gxx_personality_v0
 606              		.cfi_lsda 0,.LLSDA1505
 607 02ec 7C0802A6 		mflr 0
 608 02f0 9421FBD8 		stwu 1,-1064(1)
 609              	.LCFI11:
 610              		.cfi_def_cfa_offset 1064
 611              		.cfi_register 65, 0
 612              	.LBB2433:
 613              		.loc 1 283 0
 614 02f4 3C600000 		lis 3,.LANCHOR0@ha
 615 02f8 38630000 		la 3,.LANCHOR0@l(3)
 616              	.LBE2433:
 617              		.loc 1 282 0
 618 02fc 93A1041C 		stw 29,1052(1)
 619 0300 93C10420 		stw 30,1056(1)
 620 0304 9001042C 		stw 0,1068(1)
 621 0308 93E10424 		stw 31,1060(1)
 622              	.LEHB11:
 623              	.LBB2455:
 624              		.loc 1 283 0
 625              		.cfi_offset 31, -4
 626              		.cfi_offset 65, 4
 627              		.cfi_offset 30, -8
 628              		.cfi_offset 29, -12
 629 030c 48000001 		bl downloadfile
 630              	.LVL43:
 631              		.loc 1 284 0
 632 0310 7C9E2379 		mr. 30,4
 633              		.loc 1 283 0
 634 0314 7C7D1B78 		mr 29,3
 635              	.LVL44:
 636              		.loc 1 284 0
 637 0318 418200B0 		beq- 0,.L66
 638              		.loc 1 287 0
 639 031c 3FE00000 		lis 31,Settings+494@ha
 640 0320 3861000C 		addi 3,1,12
 641 0324 3BFF01EE 		la 31,Settings+494@l(31)
 642 0328 38A10009 		addi 5,1,9
 643 032c 7FE4FB78 		mr 4,31
 644              	.LVL45:
 645 0330 48000001 		bl _ZNSsC1EPKcRKSaIcE
 646              	.LEHE11:
 647 0334 3861000C 		addi 3,1,12
 648              	.LEHB12:
 649 0338 48000001 		bl _Z15CreateSubfolderSs
 650              	.LEHE12:
 651              	.LVL46:
 652              	.LBB2434:
 653              	.LBB2435:
 654              	.LBB2436:
 655              	.LBB2437:
 656              	.LBB2438:
 657              	.LBB2439:
 658              		.loc 2 288 0
 659 033c 8121000C 		lwz 9,12(1)
 660              	.LBE2439:
 661              	.LBE2438:
 662              	.LBE2437:
 663              	.LBB2440:
 664              	.LBB2441:
 665              		.loc 2 235 0
 666 0340 3D600000 		lis 11,_ZNSs4_Rep20_S_empty_rep_storageE@ha
 667 0344 380B0000 		la 0,_ZNSs4_Rep20_S_empty_rep_storageE@l(11)
 668              	.LBE2441:
 669              	.LBE2440:
 670              		.loc 2 534 0
 671 0348 3869FFF4 		addi 3,9,-12
 672              	.LVL47:
 673              	.LBB2450:
 674              	.LBB2448:
 675              		.loc 2 235 0
 676 034c 7F830000 		cmpw 7,3,0
 677 0350 409E0098 		bne- 7,.L69
 678              	.LVL48:
 679              	.L64:
 680              	.LBE2448:
 681              	.LBE2450:
 682              	.LBE2436:
 683              	.LBE2435:
 684              	.LBE2434:
 685              		.loc 1 290 0 discriminator 1
 686 0354 3CA00000 		lis 5,.LC3@ha
 687 0358 7FE6FB78 		mr 6,31
 688 035c 38800400 		li 4,1024
 689 0360 38A5001C 		la 5,.LC3@l(5)
 690 0364 38610010 		addi 3,1,16
 691              	.LEHB13:
 692 0368 4CC63182 		crxor 6,6,6
 693 036c 48000001 		bl snprintf
 694              		.loc 1 291 0 discriminator 1
 695 0370 3C800000 		lis 4,.LC1@ha
 696 0374 38610010 		addi 3,1,16
 697 0378 3884000C 		la 4,.LC1@l(4)
 698 037c 48000001 		bl fopen
 699              	.LVL49:
 700              		.loc 1 292 0 discriminator 1
 701 0380 7C7F1B79 		mr. 31,3
 702              		.loc 1 293 0 discriminator 1
 703 0384 38600000 		li 3,0
 704              	.LVL50:
 705              		.loc 1 292 0 discriminator 1
 706 0388 41820024 		beq- 0,.L56
 707              		.loc 1 295 0
 708 038c 38800001 		li 4,1
 709              	.LVL51:
 710 0390 7FA5EB78 		mr 5,29
 711 0394 7FE6FB78 		mr 6,31
 712 0398 7FC3F378 		mr 3,30
 713 039c 48000001 		bl fwrite
 714              		.loc 1 296 0
 715 03a0 7FE3FB78 		mr 3,31
 716 03a4 48000001 		bl fclose
 717              		.loc 1 298 0
 718 03a8 38600001 		li 3,1
 719              	.L56:
 720              	.LBE2455:
 721              		.loc 1 299 0
 722 03ac 8001042C 		lwz 0,1068(1)
 723 03b0 83A1041C 		lwz 29,1052(1)
 724 03b4 7C0803A6 		mtlr 0
 725 03b8 83C10420 		lwz 30,1056(1)
 726              	.LVL52:
 727 03bc 83E10424 		lwz 31,1060(1)
 728              	.LVL53:
 729 03c0 38210428 		addi 1,1,1064
 730              		.cfi_remember_state
 731              	.LCFI12:
 732              		.cfi_def_cfa_offset 0
 733              		.cfi_restore 31
 734              		.cfi_restore 30
 735              		.cfi_restore 29
 736 03c4 4E800020 		blr
 737              	.LVL54:
 738              	.L66:
 739              	.LCFI13:
 740              		.cfi_restore_state
 741 03c8 8001042C 		lwz 0,1068(1)
 742              	.LBB2456:
 743              		.loc 1 285 0
 744 03cc 38600000 		li 3,0
 745              	.LBE2456:
 746              		.loc 1 299 0
 747 03d0 83A1041C 		lwz 29,1052(1)
 748 03d4 7C0803A6 		mtlr 0
 749 03d8 83C10420 		lwz 30,1056(1)
 750 03dc 83E10424 		lwz 31,1060(1)
 751 03e0 38210428 		addi 1,1,1064
 752              		.cfi_remember_state
 753              		.cfi_restore 29
 754              		.cfi_restore 30
 755              		.cfi_restore 31
 756              	.LCFI14:
 757              		.cfi_def_cfa_offset 0
 758 03e4 4E800020 		blr
 759              	.LVL55:
 760              	.L69:
 761              	.LCFI15:
 762              		.cfi_restore_state
 763              	.LBB2457:
 764              	.LBB2454:
 765              	.LBB2453:
 766              	.LBB2452:
 767              	.LBB2451:
 768              	.LBB2449:
 769              	.LBB2442:
 770              	.LBB2443:
 771              	.LBB2444:
 772              		.loc 3 66 0
 773 03e8 8169FFFC 		lwz 11,-4(9)
 774              	.LVL56:
 775              	.LBE2444:
 776              	.LBE2443:
 777              	.LBE2442:
 778              		.loc 2 240 0
 779 03ec 2F8B0000 		cmpwi 7,11,0
 780              	.LBB2447:
 781              	.LBB2446:
 782              	.LBB2445:
 783              		.loc 3 67 0
 784 03f0 396BFFFF 		addi 11,11,-1
 785 03f4 9169FFFC 		stw 11,-4(9)
 786              	.LBE2445:
 787              	.LBE2446:
 788              	.LBE2447:
 789              		.loc 2 240 0
 790 03f8 419DFF5C 		bgt+ 7,.L64
 791              		.loc 2 244 0
 792 03fc 38810008 		addi 4,1,8
 793 0400 48000001 		bl _ZNSs4_Rep10_M_destroyERKSaIcE
 794              	.LVL57:
 795 0404 4BFFFF50 		b .L64
 796              	.LVL58:
 797              	.L68:
 798 0408 7C7F1B78 		mr 31,3
 799              	.LBE2449:
 800              	.LBE2451:
 801              	.LBE2452:
 802              	.LBE2453:
 803              	.LBE2454:
 804              		.loc 1 287 0
 805 040c 3861000C 		addi 3,1,12
 806 0410 48000001 		bl _ZNSsD1Ev
 807 0414 7FE3FB78 		mr 3,31
 808 0418 48000001 		bl _Unwind_Resume
 809              	.LEHE13:
 810              	.LBE2457:
 811              		.cfi_endproc
 812              	.LFE1505:
 813              		.section	.gcc_except_table
 814              	.LLSDA1505:
 815 0042 FF       		.byte	0xff
 816 0043 FF       		.byte	0xff
 817 0044 01       		.byte	0x1
 818 0045 0E       		.uleb128 .LLSDACSE1505-.LLSDACSB1505
 819              	.LLSDACSB1505:
 820 0046 20       		.uleb128 .LEHB11-.LFB1505
 821 0047 28       		.uleb128 .LEHE11-.LEHB11
 822 0048 00       		.uleb128 0
 823 0049 00       		.uleb128 0
 824 004a 4C       		.uleb128 .LEHB12-.LFB1505
 825 004b 04       		.uleb128 .LEHE12-.LEHB12
 826 004c 9C02     		.uleb128 .L68-.LFB1505
 827 004e 00       		.uleb128 0
 828 004f 7C       		.uleb128 .LEHB13-.LFB1505
 829 0050 B401     		.uleb128 .LEHE13-.LEHB13
 830 0052 00       		.uleb128 0
 831 0053 00       		.uleb128 0
 832              	.LLSDACSE1505:
 833              		.section	".text"
 834              		.size	_Z13UpdateMetaXmlv, .-_Z13UpdateMetaXmlv
 835              		.align 2
 836              		.globl _Z13UpdateIconPNGv
 837              		.type	_Z13UpdateIconPNGv, @function
 838              	_Z13UpdateIconPNGv:
 839              	.LFB1506:
 840              		.loc 1 305 0
 841              		.cfi_startproc
 842              		.cfi_personality 0,__gxx_personality_v0
 843              		.cfi_lsda 0,.LLSDA1506
 844 041c 7C0802A6 		mflr 0
 845 0420 9421F7D8 		stwu 1,-2088(1)
 846              	.LCFI16:
 847              		.cfi_def_cfa_offset 2088
 848              		.cfi_register 65, 0
 849              	.LBB2484:
 850              		.loc 1 307 0
 851 0424 3C800000 		lis 4,.LC4@ha
 852              	.LBE2484:
 853              		.loc 1 305 0
 854 0428 93E10824 		stw 31,2084(1)
 855              	.LBB2506:
 856              		.loc 1 307 0
 857 042c 3FE00000 		lis 31,Settings@ha
 858              		.cfi_offset 31, -4
 859              	.LBE2506:
 860              		.loc 1 305 0
 861 0430 9001082C 		stw 0,2092(1)
 862              	.LBB2507:
 863              		.loc 1 307 0
 864 0434 3BFF0000 		la 31,Settings@l(31)
 865 0438 38840028 		la 4,.LC4@l(4)
 866 043c 38610410 		addi 3,1,1040
 867 0440 A8BF051E 		lha 5,1310(31)
 868              	.LBE2507:
 869              		.loc 1 305 0
 870 0444 93A1081C 		stw 29,2076(1)
 871 0448 93C10820 		stw 30,2080(1)
 872              	.LBB2508:
 873              		.loc 1 307 0
 874              		.cfi_offset 30, -8
 875              		.cfi_offset 29, -12
 876              		.cfi_offset 65, 4
 877 044c 4CC63182 		crxor 6,6,6
 878 0450 48000001 		bl sprintf
 879              		.loc 1 309 0
 880 0454 38610410 		addi 3,1,1040
 881              	.LEHB14:
 882 0458 48000001 		bl downloadfile
 883              	.LVL59:
 884              		.loc 1 310 0
 885 045c 7C9E2379 		mr. 30,4
 886              		.loc 1 309 0
 887 0460 7C7D1B78 		mr 29,3
 888              	.LVL60:
 889              		.loc 1 310 0
 890 0464 418200AC 		beq- 0,.L81
 891              		.loc 1 313 0
 892 0468 3BFF01EE 		addi 31,31,494
 893 046c 3861000C 		addi 3,1,12
 894 0470 7FE4FB78 		mr 4,31
 895              	.LVL61:
 896 0474 38A10009 		addi 5,1,9
 897 0478 48000001 		bl _ZNSsC1EPKcRKSaIcE
 898              	.LEHE14:
 899 047c 3861000C 		addi 3,1,12
 900              	.LEHB15:
 901 0480 48000001 		bl _Z15CreateSubfolderSs
 902              	.LEHE15:
 903              	.LVL62:
 904              	.LBB2485:
 905              	.LBB2486:
 906              	.LBB2487:
 907              	.LBB2488:
 908              	.LBB2489:
 909              	.LBB2490:
 910              		.loc 2 288 0
 911 0484 8121000C 		lwz 9,12(1)
 912              	.LBE2490:
 913              	.LBE2489:
 914              	.LBE2488:
 915              	.LBB2491:
 916              	.LBB2492:
 917              		.loc 2 235 0
 918 0488 3D600000 		lis 11,_ZNSs4_Rep20_S_empty_rep_storageE@ha
 919 048c 380B0000 		la 0,_ZNSs4_Rep20_S_empty_rep_storageE@l(11)
 920              	.LBE2492:
 921              	.LBE2491:
 922              		.loc 2 534 0
 923 0490 3869FFF4 		addi 3,9,-12
 924              	.LVL63:
 925              	.LBB2501:
 926              	.LBB2499:
 927              		.loc 2 235 0
 928 0494 7F830000 		cmpw 7,3,0
 929 0498 409E0098 		bne- 7,.L84
 930              	.LVL64:
 931              	.L79:
 932              	.LBE2499:
 933              	.LBE2501:
 934              	.LBE2487:
 935              	.LBE2486:
 936              	.LBE2485:
 937              		.loc 1 316 0 discriminator 1
 938 049c 3CA00000 		lis 5,.LC5@ha
 939 04a0 7FE6FB78 		mr 6,31
 940 04a4 38800400 		li 4,1024
 941 04a8 38A5006C 		la 5,.LC5@l(5)
 942 04ac 38610010 		addi 3,1,16
 943              	.LEHB16:
 944 04b0 4CC63182 		crxor 6,6,6
 945 04b4 48000001 		bl snprintf
 946              		.loc 1 317 0 discriminator 1
 947 04b8 3C800000 		lis 4,.LC1@ha
 948 04bc 38610010 		addi 3,1,16
 949 04c0 3884000C 		la 4,.LC1@l(4)
 950 04c4 48000001 		bl fopen
 951              	.LVL65:
 952              		.loc 1 318 0 discriminator 1
 953 04c8 7C7F1B79 		mr. 31,3
 954              		.loc 1 319 0 discriminator 1
 955 04cc 38600000 		li 3,0
 956              	.LVL66:
 957              		.loc 1 318 0 discriminator 1
 958 04d0 41820024 		beq- 0,.L71
 959              		.loc 1 321 0
 960 04d4 38800001 		li 4,1
 961              	.LVL67:
 962 04d8 7FA5EB78 		mr 5,29
 963 04dc 7FE6FB78 		mr 6,31
 964 04e0 7FC3F378 		mr 3,30
 965 04e4 48000001 		bl fwrite
 966              		.loc 1 322 0
 967 04e8 7FE3FB78 		mr 3,31
 968 04ec 48000001 		bl fclose
 969              		.loc 1 324 0
 970 04f0 38600001 		li 3,1
 971              	.L71:
 972              	.LBE2508:
 973              		.loc 1 325 0
 974 04f4 8001082C 		lwz 0,2092(1)
 975 04f8 83A1081C 		lwz 29,2076(1)
 976 04fc 7C0803A6 		mtlr 0
 977 0500 83C10820 		lwz 30,2080(1)
 978              	.LVL68:
 979 0504 83E10824 		lwz 31,2084(1)
 980              	.LVL69:
 981 0508 38210828 		addi 1,1,2088
 982              		.cfi_remember_state
 983              	.LCFI17:
 984              		.cfi_def_cfa_offset 0
 985              		.cfi_restore 31
 986              		.cfi_restore 30
 987              		.cfi_restore 29
 988 050c 4E800020 		blr
 989              	.LVL70:
 990              	.L81:
 991              	.LCFI18:
 992              		.cfi_restore_state
 993 0510 8001082C 		lwz 0,2092(1)
 994              	.LBB2509:
 995              		.loc 1 311 0
 996 0514 38600000 		li 3,0
 997              	.LBE2509:
 998              		.loc 1 325 0
 999 0518 83A1081C 		lwz 29,2076(1)
 1000 051c 7C0803A6 		mtlr 0
 1001 0520 83C10820 		lwz 30,2080(1)
 1002 0524 83E10824 		lwz 31,2084(1)
 1003 0528 38210828 		addi 1,1,2088
 1004              		.cfi_remember_state
 1005              		.cfi_restore 29
 1006              		.cfi_restore 30
 1007              		.cfi_restore 31
 1008              	.LCFI19:
 1009              		.cfi_def_cfa_offset 0
 1010 052c 4E800020 		blr
 1011              	.LVL71:
 1012              	.L84:
 1013              	.LCFI20:
 1014              		.cfi_restore_state
 1015              	.LBB2510:
 1016              	.LBB2505:
 1017              	.LBB2504:
 1018              	.LBB2503:
 1019              	.LBB2502:
 1020              	.LBB2500:
 1021              	.LBB2493:
 1022              	.LBB2494:
 1023              	.LBB2495:
 1024              		.loc 3 66 0
 1025 0530 8169FFFC 		lwz 11,-4(9)
 1026              	.LVL72:
 1027              	.LBE2495:
 1028              	.LBE2494:
 1029              	.LBE2493:
 1030              		.loc 2 240 0
 1031 0534 2F8B0000 		cmpwi 7,11,0
 1032              	.LBB2498:
 1033              	.LBB2497:
 1034              	.LBB2496:
 1035              		.loc 3 67 0
 1036 0538 396BFFFF 		addi 11,11,-1
 1037 053c 9169FFFC 		stw 11,-4(9)
 1038              	.LBE2496:
 1039              	.LBE2497:
 1040              	.LBE2498:
 1041              		.loc 2 240 0
 1042 0540 419DFF5C 		bgt+ 7,.L79
 1043              		.loc 2 244 0
 1044 0544 38810008 		addi 4,1,8
 1045 0548 48000001 		bl _ZNSs4_Rep10_M_destroyERKSaIcE
 1046              	.LVL73:
 1047 054c 4BFFFF50 		b .L79
 1048              	.LVL74:
 1049              	.L83:
 1050 0550 7C7F1B78 		mr 31,3
 1051              	.LBE2500:
 1052              	.LBE2502:
 1053              	.LBE2503:
 1054              	.LBE2504:
 1055              	.LBE2505:
 1056              		.loc 1 313 0
 1057 0554 3861000C 		addi 3,1,12
 1058 0558 48000001 		bl _ZNSsD1Ev
 1059 055c 7FE3FB78 		mr 3,31
 1060 0560 48000001 		bl _Unwind_Resume
 1061              	.LEHE16:
 1062              	.LBE2510:
 1063              		.cfi_endproc
 1064              	.LFE1506:
 1065              		.section	.gcc_except_table
 1066              	.LLSDA1506:
 1067 0054 FF       		.byte	0xff
 1068 0055 FF       		.byte	0xff
 1069 0056 01       		.byte	0x1
 1070 0057 0F       		.uleb128 .LLSDACSE1506-.LLSDACSB1506
 1071              	.LLSDACSB1506:
 1072 0058 3C       		.uleb128 .LEHB14-.LFB1506
 1073 0059 24       		.uleb128 .LEHE14-.LEHB14
 1074 005a 00       		.uleb128 0
 1075 005b 00       		.uleb128 0
 1076 005c 64       		.uleb128 .LEHB15-.LFB1506
 1077 005d 04       		.uleb128 .LEHE15-.LEHB15
 1078 005e B402     		.uleb128 .L83-.LFB1506
 1079 0060 00       		.uleb128 0
 1080 0061 9401     		.uleb128 .LEHB16-.LFB1506
 1081 0063 B401     		.uleb128 .LEHE16-.LEHB16
 1082 0065 00       		.uleb128 0
 1083 0066 00       		.uleb128 0
 1084              	.LLSDACSE1506:
 1085              		.section	".text"
 1086              		.size	_Z13UpdateIconPNGv, .-_Z13UpdateIconPNGv
 1087              		.align 2
 1088              		.globl _Z13UpdateGameTDBP12UpdateWindow
 1089              		.type	_Z13UpdateGameTDBP12UpdateWindow, @function
 1090              	_Z13UpdateGameTDBP12UpdateWindow:
 1091              	.LFB1507:
 1092              		.loc 1 331 0
 1093              		.cfi_startproc
 1094              		.cfi_personality 0,__gxx_personality_v0
 1095              		.cfi_lsda 0,.LLSDA1507
 1096              	.LVL75:
 1097 0564 9421FBC0 		stwu 1,-1088(1)
 1098              	.LCFI21:
 1099              		.cfi_def_cfa_offset 1088
 1100 0568 7C0802A6 		mflr 0
 1101 056c 93A10434 		stw 29,1076(1)
 1102 0570 7C7D1B78 		mr 29,3
 1103              		.cfi_offset 29, -12
 1104              		.cfi_register 65, 0
 1105              	.LBB2616:
 1106              		.loc 1 332 0
 1107 0574 3C600000 		lis 3,.LANCHOR0@ha
 1108              	.LVL76:
 1109              	.LBE2616:
 1110              		.loc 1 331 0
 1111 0578 9361042C 		stw 27,1068(1)
 1112              	.LBB2692:
 1113              		.loc 1 332 0
 1114 057c 38630000 		la 3,.LANCHOR0@l(3)
 1115              	.LBE2692:
 1116              		.loc 1 331 0
 1117 0580 93810430 		stw 28,1072(1)
 1118              	.LBB2693:
 1119              		.loc 1 332 0
 1120 0584 38630400 		addi 3,3,1024
 1121              	.LBE2693:
 1122              		.loc 1 331 0
 1123 0588 90010444 		stw 0,1092(1)
 1124 058c 93410428 		stw 26,1064(1)
 1125 0590 93C10438 		stw 30,1080(1)
 1126 0594 93E1043C 		stw 31,1084(1)
 1127              	.LEHB17:
 1128              	.LBB2694:
 1129              		.loc 1 332 0
 1130              		.cfi_offset 31, -4
 1131              		.cfi_offset 30, -8
 1132              		.cfi_offset 26, -24
 1133              		.cfi_offset 65, 4
 1134              		.cfi_offset 28, -16
 1135              		.cfi_offset 27, -20
 1136 0598 48000001 		bl downloadfile
 1137              	.LVL77:
 1138              		.loc 1 333 0
 1139 059c 7C9C2379 		mr. 28,4
 1140              		.loc 1 332 0
 1141 05a0 7C7B1B78 		mr 27,3
 1142              	.LVL78:
 1143              		.loc 1 333 0
 1144 05a4 41820180 		beq- 0,.L128
 1145              		.loc 1 336 0
 1146 05a8 3FC00000 		lis 30,Settings+2068@ha
 1147 05ac 3861001C 		addi 3,1,28
 1148 05b0 3BDE0814 		la 30,Settings+2068@l(30)
 1149 05b4 38A1000F 		addi 5,1,15
 1150 05b8 7FC4F378 		mr 4,30
 1151              	.LVL79:
 1152 05bc 48000001 		bl _ZNSsC1EPKcRKSaIcE
 1153              	.LEHE17:
 1154 05c0 3861001C 		addi 3,1,28
 1155              	.LEHB18:
 1156 05c4 48000001 		bl _Z15CreateSubfolderSs
 1157              	.LEHE18:
 1158              	.LVL80:
 1159              	.LBB2617:
 1160              	.LBB2618:
 1161              	.LBB2619:
 1162              	.LBB2620:
 1163              	.LBB2621:
 1164              	.LBB2622:
 1165              		.loc 2 288 0
 1166 05c8 8121001C 		lwz 9,28(1)
 1167              	.LBE2622:
 1168              	.LBE2621:
 1169              	.LBE2620:
 1170              	.LBB2623:
 1171              	.LBB2624:
 1172              		.loc 2 235 0
 1173 05cc 3FE00000 		lis 31,_ZNSs4_Rep20_S_empty_rep_storageE@ha
 1174 05d0 3BFF0000 		la 31,_ZNSs4_Rep20_S_empty_rep_storageE@l(31)
 1175              	.LBE2624:
 1176              	.LBE2623:
 1177              		.loc 2 534 0
 1178 05d4 3869FFF4 		addi 3,9,-12
 1179              	.LVL81:
 1180              	.LBB2633:
 1181              	.LBB2631:
 1182              		.loc 2 235 0
 1183 05d8 7F83F800 		cmpw 7,3,31
 1184 05dc 409E0178 		bne- 7,.L136
 1185              	.LVL82:
 1186              	.L94:
 1187              	.LBE2631:
 1188              	.LBE2633:
 1189              	.LBE2619:
 1190              	.LBE2618:
 1191              	.LBE2617:
 1192              		.loc 1 339 0 discriminator 1
 1193 05e0 3CA00000 		lis 5,.LC6@ha
 1194 05e4 38800400 		li 4,1024
 1195 05e8 38A50078 		la 5,.LC6@l(5)
 1196 05ec 7FC6F378 		mr 6,30
 1197 05f0 38610020 		addi 3,1,32
 1198              	.LEHB19:
 1199 05f4 4CC63182 		crxor 6,6,6
 1200 05f8 48000001 		bl snprintf
 1201              		.loc 1 341 0 discriminator 1
 1202 05fc 3C800000 		lis 4,.LC1@ha
 1203 0600 38610020 		addi 3,1,32
 1204 0604 3884000C 		la 4,.LC1@l(4)
 1205 0608 48000001 		bl fopen
 1206              	.LVL83:
 1207              		.loc 1 342 0 discriminator 1
 1208 060c 7C7A1B79 		mr. 26,3
 1209 0610 41820114 		beq- 0,.L128
 1210              		.loc 1 345 0
 1211 0614 38800001 		li 4,1
 1212              	.LVL84:
 1213 0618 7F65DB78 		mr 5,27
 1214 061c 7F46D378 		mr 6,26
 1215 0620 7F83E378 		mr 3,28
 1216              	.LVL85:
 1217 0624 48000001 		bl fwrite
 1218              	.LVL86:
 1219              		.loc 1 346 0
 1220 0628 7F43D378 		mr 3,26
 1221 062c 48000001 		bl fclose
 1222              		.loc 1 349 0
 1223 0630 3C600000 		lis 3,.LC7@ha
 1224 0634 38630088 		la 3,.LC7@l(3)
 1225 0638 48000001 		bl gettext
 1226 063c 38A1000E 		addi 5,1,14
 1227 0640 7C641B78 		mr 4,3
 1228 0644 38610018 		addi 3,1,24
 1229 0648 48000001 		bl _ZNSsC1EPKcRKSaIcE
 1230              	.LEHE19:
 1231 064c 3C800000 		lis 4,.LC8@ha
 1232 0650 38610014 		addi 3,1,20
 1233 0654 3884009C 		la 4,.LC8@l(4)
 1234 0658 38A1000D 		addi 5,1,13
 1235              	.LEHB20:
 1236 065c 48000001 		bl _ZNSsC1EPKcRKSaIcE
 1237              	.LEHE20:
 1238              		.loc 1 349 0 is_stmt 0 discriminator 2
 1239 0660 7FA3EB78 		mr 3,29
 1240 0664 38810018 		addi 4,1,24
 1241 0668 38A10014 		addi 5,1,20
 1242              	.LEHB21:
 1243 066c 48000001 		bl _ZN12UpdateWindow12ShowThrobberESsSs
 1244              	.LEHE21:
 1245              	.LVL87:
 1246              	.LBB2637:
 1247              	.LBB2638:
 1248              	.LBB2639:
 1249              	.LBB2640:
 1250              	.LBB2641:
 1251              	.LBB2642:
 1252              		.loc 2 288 0 is_stmt 1
 1253 0670 81210014 		lwz 9,20(1)
 1254              	.LBE2642:
 1255              	.LBE2641:
 1256              	.LBE2640:
 1257              		.loc 2 534 0
 1258 0674 3869FFF4 		addi 3,9,-12
 1259              	.LVL88:
 1260              	.LBB2643:
 1261              	.LBB2644:
 1262              		.loc 2 235 0
 1263 0678 7F83F800 		cmpw 7,3,31
 1264 067c 409E0118 		bne- 7,.L137
 1265              	.LVL89:
 1266              	.L102:
 1267              	.LBE2644:
 1268              	.LBE2643:
 1269              	.LBE2639:
 1270              	.LBE2638:
 1271              	.LBE2637:
 1272              	.LBB2655:
 1273              	.LBB2656:
 1274              	.LBB2657:
 1275              	.LBB2658:
 1276              	.LBB2659:
 1277              	.LBB2660:
 1278              		.loc 2 288 0
 1279 0680 81210018 		lwz 9,24(1)
 1280              	.LBE2660:
 1281              	.LBE2659:
 1282              	.LBE2658:
 1283              		.loc 2 534 0
 1284 0684 3869FFF4 		addi 3,9,-12
 1285              	.LVL90:
 1286              	.LBB2661:
 1287              	.LBB2662:
 1288              		.loc 2 235 0
 1289 0688 7F83F800 		cmpw 7,3,31
 1290 068c 409E00E8 		bne- 7,.L138
 1291              	.LVL91:
 1292              	.L110:
 1293              	.LBE2662:
 1294              	.LBE2661:
 1295              	.LBE2657:
 1296              	.LBE2656:
 1297              	.LBE2655:
 1298              		.loc 1 350 0 discriminator 1
 1299 0690 38600020 		li 3,32
 1300              	.LEHB22:
 1301 0694 48000001 		bl _Znwj
 1302              	.LEHE22:
 1303 0698 38810020 		addi 4,1,32
 1304 069c 38A00001 		li 5,1
 1305 06a0 7C7D1B78 		mr 29,3
 1306              	.LVL92:
 1307              	.LEHB23:
 1308 06a4 48000001 		bl _ZN7ZipFileC1EPKcs
 1309              	.LEHE23:
 1310              	.LVL93:
 1311              		.loc 1 352 0 discriminator 1
 1312 06a8 7FA3EB78 		mr 3,29
 1313 06ac 7FC4F378 		mr 4,30
 1314 06b0 38A00000 		li 5,0
 1315              	.LEHB24:
 1316 06b4 48000001 		bl _ZN7ZipFile10ExtractAllEPKcb
 1317 06b8 2F830000 		cmpwi 7,3,0
 1318 06bc 419C0068 		blt- 7,.L128
 1319              		.loc 1 355 0
 1320 06c0 2F9D0000 		cmpwi 7,29,0
 1321 06c4 419E0014 		beq- 7,.L111
 1322              		.loc 1 355 0 is_stmt 0 discriminator 1
 1323 06c8 7FA3EB78 		mr 3,29
 1324 06cc 48000001 		bl _ZN7ZipFileD1Ev
 1325 06d0 7FA3EB78 		mr 3,29
 1326 06d4 48000001 		bl _ZdlPv
 1327              	.L111:
 1328              		.loc 1 357 0 is_stmt 1
 1329 06d8 38610010 		addi 3,1,16
 1330 06dc 38810020 		addi 4,1,32
 1331 06e0 38A1000C 		addi 5,1,12
 1332 06e4 48000001 		bl _ZNSsC1EPKcRKSaIcE
 1333              	.LEHE24:
 1334 06e8 38610010 		addi 3,1,16
 1335              	.LEHB25:
 1336 06ec 48000001 		bl _Z10RemoveFileSs
 1337              	.LEHE25:
 1338              	.LVL94:
 1339              	.LBB2673:
 1340              	.LBB2674:
 1341              	.LBB2675:
 1342              	.LBB2676:
 1343              	.LBB2677:
 1344              	.LBB2678:
 1345              		.loc 2 288 0
 1346 06f0 81210010 		lwz 9,16(1)
 1347              	.LBE2678:
 1348              	.LBE2677:
 1349              	.LBE2676:
 1350              	.LBB2679:
 1351              	.LBB2680:
 1352              		.loc 1 359 0
 1353 06f4 3BC00001 		li 30,1
 1354              	.LBE2680:
 1355              	.LBE2679:
 1356              		.loc 2 534 0
 1357 06f8 3869FFF4 		addi 3,9,-12
 1358              	.LVL95:
 1359              	.LBB2688:
 1360              	.LBB2687:
 1361              		.loc 2 235 0
 1362 06fc 7F83F800 		cmpw 7,3,31
 1363 0700 41BE0028 		beq+ 7,.L118
 1364              	.LVL96:
 1365              	.LBB2681:
 1366              	.LBB2682:
 1367              	.LBB2683:
 1368              		.loc 3 66 0
 1369 0704 8169FFFC 		lwz 11,-4(9)
 1370              	.LVL97:
 1371              	.LBE2683:
 1372              	.LBE2682:
 1373              	.LBE2681:
 1374              		.loc 2 240 0
 1375 0708 2F8B0000 		cmpwi 7,11,0
 1376              	.LBB2686:
 1377              	.LBB2685:
 1378              	.LBB2684:
 1379              		.loc 3 67 0
 1380 070c 396BFFFF 		addi 11,11,-1
 1381 0710 9169FFFC 		stw 11,-4(9)
 1382              	.LBE2684:
 1383              	.LBE2685:
 1384              	.LBE2686:
 1385              		.loc 2 240 0
 1386 0714 41BD0014 		bgt+ 7,.L118
 1387              		.loc 2 244 0
 1388 0718 38810008 		addi 4,1,8
 1389 071c 48000001 		bl _ZNSs4_Rep10_M_destroyERKSaIcE
 1390              	.LVL98:
 1391 0720 48000008 		b .L118
 1392              	.LVL99:
 1393              	.L128:
 1394              	.LBE2687:
 1395              	.LBE2688:
 1396              	.LBE2675:
 1397              	.LBE2674:
 1398              	.LBE2673:
 1399              		.loc 1 353 0
 1400 0724 3BC00000 		li 30,0
 1401              	.L118:
 1402              	.LBE2694:
 1403              		.loc 1 360 0
 1404 0728 80010444 		lwz 0,1092(1)
 1405 072c 7FC3F378 		mr 3,30
 1406 0730 83410428 		lwz 26,1064(1)
 1407 0734 7C0803A6 		mtlr 0
 1408 0738 8361042C 		lwz 27,1068(1)
 1409 073c 83810430 		lwz 28,1072(1)
 1410              	.LVL100:
 1411 0740 83A10434 		lwz 29,1076(1)
 1412 0744 83C10438 		lwz 30,1080(1)
 1413 0748 83E1043C 		lwz 31,1084(1)
 1414 074c 38210440 		addi 1,1,1088
 1415              		.cfi_remember_state
 1416              	.LCFI22:
 1417              		.cfi_def_cfa_offset 0
 1418              		.cfi_restore 31
 1419              		.cfi_restore 30
 1420              		.cfi_restore 29
 1421              		.cfi_restore 28
 1422              		.cfi_restore 27
 1423              		.cfi_restore 26
 1424 0750 4E800020 		blr
 1425              	.LVL101:
 1426              	.L136:
 1427              	.LCFI23:
 1428              		.cfi_restore_state
 1429              	.LBB2695:
 1430              	.LBB2689:
 1431              	.LBB2636:
 1432              	.LBB2635:
 1433              	.LBB2634:
 1434              	.LBB2632:
 1435              	.LBB2625:
 1436              	.LBB2626:
 1437              	.LBB2627:
 1438              		.loc 3 66 0
 1439 0754 8169FFFC 		lwz 11,-4(9)
 1440              	.LVL102:
 1441              	.LBE2627:
 1442              	.LBE2626:
 1443              	.LBE2625:
 1444              		.loc 2 240 0
 1445 0758 2F8B0000 		cmpwi 7,11,0
 1446              	.LBB2630:
 1447              	.LBB2629:
 1448              	.LBB2628:
 1449              		.loc 3 67 0
 1450 075c 396BFFFF 		addi 11,11,-1
 1451 0760 9169FFFC 		stw 11,-4(9)
 1452              	.LBE2628:
 1453              	.LBE2629:
 1454              	.LBE2630:
 1455              		.loc 2 240 0
 1456 0764 419DFE7C 		bgt+ 7,.L94
 1457              		.loc 2 244 0
 1458 0768 3881000B 		addi 4,1,11
 1459 076c 48000001 		bl _ZNSs4_Rep10_M_destroyERKSaIcE
 1460              	.LVL103:
 1461 0770 4BFFFE70 		b .L94
 1462              	.LVL104:
 1463              	.L138:
 1464              	.LBE2632:
 1465              	.LBE2634:
 1466              	.LBE2635:
 1467              	.LBE2636:
 1468              	.LBE2689:
 1469              	.LBB2690:
 1470              	.LBB2672:
 1471              	.LBB2671:
 1472              	.LBB2670:
 1473              	.LBB2669:
 1474              	.LBB2663:
 1475              	.LBB2664:
 1476              	.LBB2665:
 1477              		.loc 3 66 0
 1478 0774 8169FFFC 		lwz 11,-4(9)
 1479              	.LVL105:
 1480              	.LBE2665:
 1481              	.LBE2664:
 1482              	.LBE2663:
 1483              		.loc 2 240 0
 1484 0778 2F8B0000 		cmpwi 7,11,0
 1485              	.LBB2668:
 1486              	.LBB2667:
 1487              	.LBB2666:
 1488              		.loc 3 67 0
 1489 077c 396BFFFF 		addi 11,11,-1
 1490 0780 9169FFFC 		stw 11,-4(9)
 1491              	.LBE2666:
 1492              	.LBE2667:
 1493              	.LBE2668:
 1494              		.loc 2 240 0
 1495 0784 419DFF0C 		bgt+ 7,.L110
 1496              		.loc 2 244 0
 1497 0788 38810009 		addi 4,1,9
 1498 078c 48000001 		bl _ZNSs4_Rep10_M_destroyERKSaIcE
 1499              	.LVL106:
 1500 0790 4BFFFF00 		b .L110
 1501              	.LVL107:
 1502              	.L137:
 1503              	.LBE2669:
 1504              	.LBE2670:
 1505              	.LBE2671:
 1506              	.LBE2672:
 1507              	.LBE2690:
 1508              	.LBB2691:
 1509              	.LBB2654:
 1510              	.LBB2653:
 1511              	.LBB2652:
 1512              	.LBB2651:
 1513              	.LBB2645:
 1514              	.LBB2646:
 1515              	.LBB2647:
 1516              		.loc 3 66 0
 1517 0794 8169FFFC 		lwz 11,-4(9)
 1518              	.LVL108:
 1519              	.LBE2647:
 1520              	.LBE2646:
 1521              	.LBE2645:
 1522              		.loc 2 240 0
 1523 0798 2F8B0000 		cmpwi 7,11,0
 1524              	.LBB2650:
 1525              	.LBB2649:
 1526              	.LBB2648:
 1527              		.loc 3 67 0
 1528 079c 396BFFFF 		addi 11,11,-1
 1529 07a0 9169FFFC 		stw 11,-4(9)
 1530              	.LBE2648:
 1531              	.LBE2649:
 1532              	.LBE2650:
 1533              		.loc 2 240 0
 1534 07a4 419DFEDC 		bgt+ 7,.L102
 1535              		.loc 2 244 0
 1536 07a8 3881000A 		addi 4,1,10
 1537 07ac 48000001 		bl _ZNSs4_Rep10_M_destroyERKSaIcE
 1538              	.LVL109:
 1539 07b0 4BFFFED0 		b .L102
 1540              	.LVL110:
 1541              	.L134:
 1542 07b4 7C7F1B78 		mr 31,3
 1543              	.LBE2651:
 1544              	.LBE2652:
 1545              	.LBE2653:
 1546              	.LBE2654:
 1547              	.LBE2691:
 1548              		.loc 1 350 0
 1549 07b8 7FA3EB78 		mr 3,29
 1550 07bc 48000001 		bl _ZdlPv
 1551 07c0 7FE3FB78 		mr 3,31
 1552              	.LEHB26:
 1553 07c4 48000001 		bl _Unwind_Resume
 1554              	.LVL111:
 1555              	.L131:
 1556 07c8 7C7F1B78 		mr 31,3
 1557              		.loc 1 336 0
 1558 07cc 3861001C 		addi 3,1,28
 1559 07d0 48000001 		bl _ZNSsD1Ev
 1560 07d4 7FE3FB78 		mr 3,31
 1561 07d8 48000001 		bl _Unwind_Resume
 1562              	.LVL112:
 1563              	.L133:
 1564 07dc 7C7F1B78 		mr 31,3
 1565              		.loc 1 349 0
 1566 07e0 38610014 		addi 3,1,20
 1567 07e4 48000001 		bl _ZNSsD1Ev
 1568              	.L123:
 1569 07e8 38610018 		addi 3,1,24
 1570 07ec 48000001 		bl _ZNSsD1Ev
 1571 07f0 7FE3FB78 		mr 3,31
 1572 07f4 48000001 		bl _Unwind_Resume
 1573              	.L132:
 1574 07f8 7C7F1B78 		mr 31,3
 1575 07fc 4BFFFFEC 		b .L123
 1576              	.LVL113:
 1577              	.L135:
 1578 0800 7C7F1B78 		mr 31,3
 1579              		.loc 1 357 0
 1580 0804 38610010 		addi 3,1,16
 1581 0808 48000001 		bl _ZNSsD1Ev
 1582 080c 7FE3FB78 		mr 3,31
 1583 0810 48000001 		bl _Unwind_Resume
 1584              	.LEHE26:
 1585              	.LBE2695:
 1586              		.cfi_endproc
 1587              	.LFE1507:
 1588              		.section	.gcc_except_table
 1589              	.LLSDA1507:
 1590 0067 FF       		.byte	0xff
 1591 0068 FF       		.byte	0xff
 1592 0069 01       		.byte	0x1
 1593 006a 35       		.uleb128 .LLSDACSE1507-.LLSDACSB1507
 1594              	.LLSDACSB1507:
 1595 006b 34       		.uleb128 .LEHB17-.LFB1507
 1596 006c 28       		.uleb128 .LEHE17-.LEHB17
 1597 006d 00       		.uleb128 0
 1598 006e 00       		.uleb128 0
 1599 006f 60       		.uleb128 .LEHB18-.LFB1507
 1600 0070 04       		.uleb128 .LEHE18-.LEHB18
 1601 0071 E404     		.uleb128 .L131-.LFB1507
 1602 0073 00       		.uleb128 0
 1603 0074 9001     		.uleb128 .LEHB19-.LFB1507
 1604 0076 58       		.uleb128 .LEHE19-.LEHB19
 1605 0077 00       		.uleb128 0
 1606 0078 00       		.uleb128 0
 1607 0079 F801     		.uleb128 .LEHB20-.LFB1507
 1608 007b 04       		.uleb128 .LEHE20-.LEHB20
 1609 007c 9405     		.uleb128 .L132-.LFB1507
 1610 007e 00       		.uleb128 0
 1611 007f 8802     		.uleb128 .LEHB21-.LFB1507
 1612 0081 04       		.uleb128 .LEHE21-.LEHB21
 1613 0082 F804     		.uleb128 .L133-.LFB1507
 1614 0084 00       		.uleb128 0
 1615 0085 B002     		.uleb128 .LEHB22-.LFB1507
 1616 0087 04       		.uleb128 .LEHE22-.LEHB22
 1617 0088 00       		.uleb128 0
 1618 0089 00       		.uleb128 0
 1619 008a C002     		.uleb128 .LEHB23-.LFB1507
 1620 008c 04       		.uleb128 .LEHE23-.LEHB23
 1621 008d D004     		.uleb128 .L134-.LFB1507
 1622 008f 00       		.uleb128 0
 1623 0090 D002     		.uleb128 .LEHB24-.LFB1507
 1624 0092 34       		.uleb128 .LEHE24-.LEHB24
 1625 0093 00       		.uleb128 0
 1626 0094 00       		.uleb128 0
 1627 0095 8803     		.uleb128 .LEHB25-.LFB1507
 1628 0097 04       		.uleb128 .LEHE25-.LEHB25
 1629 0098 9C05     		.uleb128 .L135-.LFB1507
 1630 009a 00       		.uleb128 0
 1631 009b E004     		.uleb128 .LEHB26-.LFB1507
 1632 009d 50       		.uleb128 .LEHE26-.LEHB26
 1633 009e 00       		.uleb128 0
 1634 009f 00       		.uleb128 0
 1635              	.LLSDACSE1507:
 1636              		.section	".text"
 1637              		.size	_Z13UpdateGameTDBP12UpdateWindow, .-_Z13UpdateGameTDBP12UpdateWindow
 1638              		.align 2
 1639              		.globl _Z20DownloadAllLanguagesP12UpdateWindow
 1640              		.type	_Z20DownloadAllLanguagesP12UpdateWindow, @function
 1641              	_Z20DownloadAllLanguagesP12UpdateWindow:
 1642              	.LFB1508:
 1643              		.loc 1 366 0
 1644              		.cfi_startproc
 1645              		.cfi_personality 0,__gxx_personality_v0
 1646              		.cfi_lsda 0,.LLSDA1508
 1647              	.LVL114:
 1648 0814 7D800026 		mfcr 12
 1649              	.LBB2838:
 1650              		.loc 1 367 0
 1651 0818 2E030000 		cmpwi 4,3,0
 1652              	.LBE2838:
 1653              		.loc 1 366 0
 1654 081c 7C0802A6 		mflr 0
 1655 0820 9421FD50 		stwu 1,-688(1)
 1656              	.LCFI24:
 1657              		.cfi_def_cfa_offset 688
 1658              		.cfi_register 65, 0
 1659              		.cfi_register 70, 12
 1660 0824 93210294 		stw 25,660(1)
 1661              	.LBB2953:
 1662              		.loc 1 367 0
 1663 0828 7C791B78 		mr 25,3
 1664              		.cfi_offset 25, -28
 1665              	.LBE2953:
 1666              		.loc 1 366 0
 1667 082c 900102B4 		stw 0,692(1)
 1668 0830 92E1028C 		stw 23,652(1)
 1669 0834 93010290 		stw 24,656(1)
 1670 0838 93410298 		stw 26,664(1)
 1671 083c 9361029C 		stw 27,668(1)
 1672 0840 938102A0 		stw 28,672(1)
 1673 0844 93A102A4 		stw 29,676(1)
 1674 0848 93C102A8 		stw 30,680(1)
 1675 084c 93E102AC 		stw 31,684(1)
 1676 0850 91810288 		stw 12,648(1)
 1677              	.LBB2954:
 1678              		.loc 1 367 0
 1679 0854 4192007C 		beq- 4,.L155
 1680              		.cfi_offset 70, -40
 1681              		.cfi_offset 31, -4
 1682              		.cfi_offset 30, -8
 1683              		.cfi_offset 29, -12
 1684              		.cfi_offset 28, -16
 1685              		.cfi_offset 27, -20
 1686              		.cfi_offset 26, -24
 1687              		.cfi_offset 24, -32
 1688              		.cfi_offset 23, -36
 1689              		.cfi_offset 65, 4
 1690              		.loc 1 368 0
 1691 0858 3C600000 		lis 3,.LC9@ha
 1692              	.LVL115:
 1693 085c 386300A8 		la 3,.LC9@l(3)
 1694              	.LEHB27:
 1695 0860 48000001 		bl gettext
 1696 0864 38A10011 		addi 5,1,17
 1697 0868 7C641B78 		mr 4,3
 1698 086c 38610024 		addi 3,1,36
 1699 0870 48000001 		bl _ZNSsC1EPKcRKSaIcE
 1700              	.LEHE27:
 1701 0874 3C600000 		lis 3,.LC10@ha
 1702 0878 386300B8 		la 3,.LC10@l(3)
 1703              	.LEHB28:
 1704 087c 48000001 		bl gettext
 1705              	.LEHE28:
 1706 0880 7C641B78 		mr 4,3
 1707 0884 38A10010 		addi 5,1,16
 1708 0888 38610020 		addi 3,1,32
 1709              	.LEHB29:
 1710 088c 48000001 		bl _ZNSsC1EPKcRKSaIcE
 1711              	.LEHE29:
 1712              		.loc 1 368 0 is_stmt 0 discriminator 3
 1713 0890 7F23CB78 		mr 3,25
 1714 0894 38810024 		addi 4,1,36
 1715 0898 38A10020 		addi 5,1,32
 1716 089c 38C00000 		li 6,0
 1717 08a0 38E00001 		li 7,1
 1718              	.LEHB30:
 1719 08a4 48000001 		bl _ZN12UpdateWindow12ShowProgressESsSsii
 1720              	.LEHE30:
 1721              	.LVL116:
 1722              	.LBB2839:
 1723              	.LBB2840:
 1724              	.LBB2841:
 1725              	.LBB2842:
 1726              	.LBB2843:
 1727              	.LBB2844:
 1728              		.loc 2 288 0 is_stmt 1
 1729 08a8 81210020 		lwz 9,32(1)
 1730              	.LBE2844:
 1731              	.LBE2843:
 1732              	.LBE2842:
 1733              	.LBB2845:
 1734              	.LBB2846:
 1735              		.loc 2 235 0
 1736 08ac 3F800000 		lis 28,_ZNSs4_Rep20_S_empty_rep_storageE@ha
 1737 08b0 3B9C0000 		la 28,_ZNSs4_Rep20_S_empty_rep_storageE@l(28)
 1738              	.LBE2846:
 1739              	.LBE2845:
 1740              		.loc 2 534 0
 1741 08b4 3869FFF4 		addi 3,9,-12
 1742              	.LVL117:
 1743              	.LBB2855:
 1744              	.LBB2853:
 1745              		.loc 2 235 0
 1746 08b8 7F83E000 		cmpw 7,3,28
 1747 08bc 409E030C 		bne- 7,.L213
 1748              	.LVL118:
 1749              	.L148:
 1750              	.LBE2853:
 1751              	.LBE2855:
 1752              	.LBE2841:
 1753              	.LBE2840:
 1754              	.LBE2839:
 1755              	.LBB2859:
 1756              	.LBB2860:
 1757              	.LBB2861:
 1758              	.LBB2862:
 1759              	.LBB2863:
 1760              	.LBB2864:
 1761              		.loc 2 288 0
 1762 08c0 81210024 		lwz 9,36(1)
 1763              	.LBE2864:
 1764              	.LBE2863:
 1765              	.LBE2862:
 1766              		.loc 2 534 0
 1767 08c4 3869FFF4 		addi 3,9,-12
 1768              	.LVL119:
 1769              	.LBB2865:
 1770              	.LBB2866:
 1771              		.loc 2 235 0
 1772 08c8 7F83E000 		cmpw 7,3,28
 1773 08cc 409E02DC 		bne- 7,.L214
 1774              	.LVL120:
 1775              	.L155:
 1776              	.LBE2866:
 1777              	.LBE2865:
 1778              	.LBE2861:
 1779              	.LBE2860:
 1780              	.LBE2859:
 1781              		.loc 1 370 0
 1782 08d0 3EE00000 		lis 23,Settings+1568@ha
 1783 08d4 3861001C 		addi 3,1,28
 1784 08d8 3AF70620 		la 23,Settings+1568@l(23)
 1785 08dc 38A1000F 		addi 5,1,15
 1786 08e0 7EE4BB78 		mr 4,23
 1787              	.LEHB31:
 1788 08e4 48000001 		bl _ZNSsC1EPKcRKSaIcE
 1789              	.LEHE31:
 1790 08e8 3861001C 		addi 3,1,28
 1791              	.LEHB32:
 1792 08ec 48000001 		bl _Z15CreateSubfolderSs
 1793              	.LEHE32:
 1794              	.LBB2877:
 1795              	.LBB2878:
 1796              	.LBB2879:
 1797              	.LBB2880:
 1798              	.LBB2881:
 1799              	.LBB2882:
 1800              		.loc 2 288 0
 1801 08f0 8121001C 		lwz 9,28(1)
 1802              	.LBE2882:
 1803              	.LBE2881:
 1804              	.LBE2880:
 1805              	.LBB2883:
 1806              	.LBB2884:
 1807              		.loc 2 235 0
 1808 08f4 3F800000 		lis 28,_ZNSs4_Rep20_S_empty_rep_storageE@ha
 1809              	.LBE2884:
 1810              	.LBE2883:
 1811              	.LBE2879:
 1812              	.LBE2878:
 1813              	.LBE2877:
 1814              		.loc 1 370 0
 1815 08f8 7C7F1B78 		mr 31,3
 1816              	.LVL121:
 1817              	.LBB2901:
 1818              	.LBB2899:
 1819              	.LBB2897:
 1820              	.LBB2894:
 1821              	.LBB2891:
 1822              		.loc 2 235 0
 1823 08fc 3B9C0000 		la 28,_ZNSs4_Rep20_S_empty_rep_storageE@l(28)
 1824              	.LBE2891:
 1825              	.LBE2894:
 1826              		.loc 2 534 0
 1827 0900 3869FFF4 		addi 3,9,-12
 1828              	.LVL122:
 1829              	.LBB2895:
 1830              	.LBB2892:
 1831              		.loc 2 235 0
 1832 0904 7F83E000 		cmpw 7,3,28
 1833 0908 409E026C 		bne- 7,.L215
 1834              	.LVL123:
 1835              	.L163:
 1836              	.LBE2892:
 1837              	.LBE2895:
 1838              	.LBE2897:
 1839              	.LBE2899:
 1840              	.LBE2901:
 1841              		.loc 1 370 0 discriminator 2
 1842 090c 2F9F0000 		cmpwi 7,31,0
 1843              		.loc 1 371 0 discriminator 2
 1844 0910 38600000 		li 3,0
 1845              		.loc 1 370 0 discriminator 2
 1846 0914 409E0040 		bne- 7,.L216
 1847              	.LBE2954:
 1848              		.loc 1 413 0
 1849 0918 800102B4 		lwz 0,692(1)
 1850 091c 81810288 		lwz 12,648(1)
 1851 0920 7C0803A6 		mtlr 0
 1852 0924 82E1028C 		lwz 23,652(1)
 1853 0928 83010290 		lwz 24,656(1)
 1854 092c 7D808120 		mtcrf 8,12
 1855 0930 83210294 		lwz 25,660(1)
 1856              	.LVL124:
 1857 0934 83410298 		lwz 26,664(1)
 1858 0938 8361029C 		lwz 27,668(1)
 1859 093c 838102A0 		lwz 28,672(1)
 1860 0940 83A102A4 		lwz 29,676(1)
 1861 0944 83C102A8 		lwz 30,680(1)
 1862 0948 83E102AC 		lwz 31,684(1)
 1863 094c 382102B0 		addi 1,1,688
 1864              		.cfi_remember_state
 1865              	.LCFI25:
 1866              		.cfi_def_cfa_offset 0
 1867              		.cfi_restore 70
 1868              		.cfi_restore 31
 1869              		.cfi_restore 30
 1870              		.cfi_restore 29
 1871              		.cfi_restore 28
 1872              		.cfi_restore 27
 1873              		.cfi_restore 26
 1874              		.cfi_restore 25
 1875              		.cfi_restore 24
 1876              		.cfi_restore 23
 1877 0950 4E800020 		blr
 1878              	.LVL125:
 1879              	.L216:
 1880              	.LCFI26:
 1881              		.cfi_restore_state
 1882              	.LBB2955:
 1883              		.loc 1 375 0
 1884 0954 3F000000 		lis 24,.LANCHOR0@ha
 1885 0958 38610028 		addi 3,1,40
 1886 095c 3B180000 		la 24,.LANCHOR0@l(24)
 1887 0960 3B180800 		addi 24,24,2048
 1888 0964 7F04C378 		mr 4,24
 1889              	.LEHB33:
 1890 0968 48000001 		bl _ZN8URL_ListC1EPKc
 1891              	.LEHE33:
 1892              		.loc 1 376 0
 1893 096c 38610028 		addi 3,1,40
 1894              	.LEHB34:
 1895 0970 48000001 		bl _ZN8URL_List11GetURLCountEv
 1896              	.LVL126:
 1897              	.LBB2902:
 1898              		.loc 1 379 0
 1899 0974 7C7D1B79 		mr. 29,3
 1900 0978 40810174 		ble- 0,.L165
 1901 097c 3BE00000 		li 31,0
 1902 0980 4800013C 		b .L186
 1903              	.LVL127:
 1904              	.L219:
 1905              	.LBB2903:
 1906              		.loc 1 382 0 discriminator 1
 1907 0984 3BC30001 		addi 30,3,1
 1908              	.LVL128:
 1909              	.L167:
 1910              		.loc 1 385 0
 1911 0988 2F9E0000 		cmpwi 7,30,0
 1912 098c 419E0124 		beq- 7,.L168
 1913              		.loc 1 388 0
 1914 0990 7FC3F378 		mr 3,30
 1915 0994 3880002E 		li 4,46
 1916 0998 48000001 		bl strrchr
 1917              	.LVL129:
 1918              		.loc 1 389 0
 1919 099c 2F830000 		cmpwi 7,3,0
 1920 09a0 419E0110 		beq- 7,.L168
 1921              		.loc 1 389 0 is_stmt 0 discriminator 1
 1922 09a4 3C800000 		lis 4,.LC11@ha
 1923 09a8 388400CC 		la 4,.LC11@l(4)
 1924 09ac 48000001 		bl strcasecmp
 1925              	.LVL130:
 1926 09b0 2F830000 		cmpwi 7,3,0
 1927 09b4 409E00FC 		bne- 7,.L168
 1928              		.loc 1 392 0 is_stmt 1
 1929 09b8 41920068 		beq- 4,.L184
 1930              		.loc 1 393 0
 1931 09bc 3C600000 		lis 3,.LC9@ha
 1932 09c0 386300A8 		la 3,.LC9@l(3)
 1933 09c4 48000001 		bl gettext
 1934              	.LEHE34:
 1935 09c8 7C641B78 		mr 4,3
 1936 09cc 38A1000E 		addi 5,1,14
 1937 09d0 38610018 		addi 3,1,24
 1938              	.LEHB35:
 1939 09d4 48000001 		bl _ZNSsC1EPKcRKSaIcE
 1940              	.LEHE35:
 1941              		.loc 1 393 0 is_stmt 0 discriminator 2
 1942 09d8 38610014 		addi 3,1,20
 1943 09dc 7FC4F378 		mr 4,30
 1944 09e0 38A1000D 		addi 5,1,13
 1945              	.LEHB36:
 1946 09e4 48000001 		bl _ZNSsC1EPKcRKSaIcE
 1947              	.LEHE36:
 1948              		.loc 1 393 0 discriminator 3
 1949 09e8 7F23CB78 		mr 3,25
 1950 09ec 38810018 		addi 4,1,24
 1951 09f0 38A10014 		addi 5,1,20
 1952 09f4 7FE6FB78 		mr 6,31
 1953 09f8 7FA7EB78 		mr 7,29
 1954              	.LEHB37:
 1955 09fc 48000001 		bl _ZN12UpdateWindow12ShowProgressESsSsii
 1956              	.LEHE37:
 1957              	.LVL131:
 1958              	.LBB2904:
 1959              	.LBB2905:
 1960              	.LBB2906:
 1961              	.LBB2907:
 1962              	.LBB2908:
 1963              	.LBB2909:
 1964              		.loc 2 288 0 is_stmt 1
 1965 0a00 81210014 		lwz 9,20(1)
 1966              	.LBE2909:
 1967              	.LBE2908:
 1968              	.LBE2907:
 1969              		.loc 2 534 0
 1970 0a04 3869FFF4 		addi 3,9,-12
 1971              	.LVL132:
 1972              	.LBB2910:
 1973              	.LBB2911:
 1974              		.loc 2 235 0
 1975 0a08 7F83E000 		cmpw 7,3,28
 1976 0a0c 409E0128 		bne- 7,.L217
 1977              	.LVL133:
 1978              	.L177:
 1979              	.LBE2911:
 1980              	.LBE2910:
 1981              	.LBE2906:
 1982              	.LBE2905:
 1983              	.LBE2904:
 1984              	.LBB2922:
 1985              	.LBB2923:
 1986              	.LBB2924:
 1987              	.LBB2925:
 1988              	.LBB2926:
 1989              	.LBB2927:
 1990              		.loc 2 288 0
 1991 0a10 81210018 		lwz 9,24(1)
 1992              	.LBE2927:
 1993              	.LBE2926:
 1994              	.LBE2925:
 1995              		.loc 2 534 0
 1996 0a14 3869FFF4 		addi 3,9,-12
 1997              	.LVL134:
 1998              	.LBB2928:
 1999              	.LBB2929:
 2000              		.loc 2 235 0
 2001 0a18 7F83E000 		cmpw 7,3,28
 2002 0a1c 409E0138 		bne- 7,.L218
 2003              	.LVL135:
 2004              	.L184:
 2005              	.LBE2929:
 2006              	.LBE2928:
 2007              	.LBE2924:
 2008              	.LBE2923:
 2009              	.LBE2922:
 2010              		.loc 1 395 0
 2011 0a20 3CA00000 		lis 5,.LC12@ha
 2012 0a24 3861015C 		addi 3,1,348
 2013 0a28 3880012C 		li 4,300
 2014 0a2c 38A500D4 		la 5,.LC12@l(5)
 2015 0a30 7F06C378 		mr 6,24
 2016 0a34 7FC7F378 		mr 7,30
 2017              	.LEHB38:
 2018 0a38 4CC63182 		crxor 6,6,6
 2019 0a3c 48000001 		bl snprintf
 2020              		.loc 1 397 0
 2021 0a40 3861015C 		addi 3,1,348
 2022 0a44 48000001 		bl downloadfile
 2023              	.LBB2940:
 2024              		.loc 1 398 0
 2025 0a48 7C9B2379 		mr. 27,4
 2026              	.LBE2940:
 2027              		.loc 1 397 0
 2028 0a4c 7C7A1B78 		mr 26,3
 2029              	.LBB2942:
 2030              		.loc 1 398 0
 2031 0a50 41820060 		beq- 0,.L168
 2032              	.LBB2941:
 2033              		.loc 1 401 0
 2034 0a54 3CA00000 		lis 5,.LC13@ha
 2035 0a58 38610030 		addi 3,1,48
 2036 0a5c 3880012C 		li 4,300
 2037 0a60 38A500DC 		la 5,.LC13@l(5)
 2038 0a64 7EE6BB78 		mr 6,23
 2039 0a68 7FC7F378 		mr 7,30
 2040 0a6c 4CC63182 		crxor 6,6,6
 2041 0a70 48000001 		bl snprintf
 2042              		.loc 1 402 0
 2043 0a74 3C800000 		lis 4,.LC1@ha
 2044 0a78 38610030 		addi 3,1,48
 2045 0a7c 3884000C 		la 4,.LC1@l(4)
 2046 0a80 48000001 		bl fopen
 2047              	.LVL136:
 2048              		.loc 1 403 0
 2049 0a84 7C7E1B79 		mr. 30,3
 2050              	.LVL137:
 2051 0a88 41820020 		beq- 0,.L185
 2052              		.loc 1 405 0
 2053 0a8c 7F63DB78 		mr 3,27
 2054              	.LVL138:
 2055 0a90 38800001 		li 4,1
 2056 0a94 7F45D378 		mr 5,26
 2057 0a98 7FC6F378 		mr 6,30
 2058 0a9c 48000001 		bl fwrite
 2059              		.loc 1 406 0
 2060 0aa0 7FC3F378 		mr 3,30
 2061 0aa4 48000001 		bl fclose
 2062              	.L185:
 2063              		.loc 1 408 0
 2064 0aa8 7F63DB78 		mr 3,27
 2065 0aac 48000001 		bl free
 2066              	.LVL139:
 2067              	.L168:
 2068              	.LBE2941:
 2069              	.LBE2942:
 2070              	.LBE2903:
 2071              		.loc 1 379 0
 2072 0ab0 3BFF0001 		addi 31,31,1
 2073              	.LVL140:
 2074 0ab4 7F9FE800 		cmpw 7,31,29
 2075 0ab8 419E0034 		beq- 7,.L165
 2076              	.LVL141:
 2077              	.L186:
 2078              	.LBB2945:
 2079              		.loc 1 381 0
 2080 0abc 38610028 		addi 3,1,40
 2081 0ac0 7FE4FB78 		mr 4,31
 2082 0ac4 48000001 		bl _ZN8URL_List6GetURLEi
 2083 0ac8 3880002F 		li 4,47
 2084 0acc 48000001 		bl strrchr
 2085              	.LVL142:
 2086              		.loc 1 382 0
 2087 0ad0 2C030000 		cmpwi 0,3,0
 2088 0ad4 4082FEB0 		bne+ 0,.L219
 2089              		.loc 1 383 0
 2090 0ad8 38610028 		addi 3,1,40
 2091              	.LVL143:
 2092 0adc 7FE4FB78 		mr 4,31
 2093 0ae0 48000001 		bl _ZN8URL_List6GetURLEi
 2094              	.LEHE38:
 2095 0ae4 7C7E1B78 		mr 30,3
 2096 0ae8 4BFFFEA0 		b .L167
 2097              	.L165:
 2098              	.LBE2945:
 2099              	.LBE2902:
 2100              		.loc 1 412 0
 2101 0aec 38610028 		addi 3,1,40
 2102              	.LEHB39:
 2103 0af0 48000001 		bl _ZN8URL_ListD1Ev
 2104              	.LBE2955:
 2105              		.loc 1 413 0
 2106 0af4 800102B4 		lwz 0,692(1)
 2107 0af8 81810288 		lwz 12,648(1)
 2108              	.LBB2956:
 2109              		.loc 1 412 0
 2110 0afc 38600001 		li 3,1
 2111              	.LBE2956:
 2112              		.loc 1 413 0
 2113 0b00 7C0803A6 		mtlr 0
 2114 0b04 82E1028C 		lwz 23,652(1)
 2115 0b08 83010290 		lwz 24,656(1)
 2116 0b0c 7D808120 		mtcrf 8,12
 2117 0b10 83210294 		lwz 25,660(1)
 2118              	.LVL144:
 2119 0b14 83410298 		lwz 26,664(1)
 2120 0b18 8361029C 		lwz 27,668(1)
 2121 0b1c 838102A0 		lwz 28,672(1)
 2122 0b20 83A102A4 		lwz 29,676(1)
 2123 0b24 83C102A8 		lwz 30,680(1)
 2124 0b28 83E102AC 		lwz 31,684(1)
 2125 0b2c 382102B0 		addi 1,1,688
 2126              		.cfi_remember_state
 2127              		.cfi_restore 23
 2128              		.cfi_restore 24
 2129              		.cfi_restore 25
 2130              		.cfi_restore 26
 2131              		.cfi_restore 27
 2132              		.cfi_restore 28
 2133              		.cfi_restore 29
 2134              		.cfi_restore 30
 2135              		.cfi_restore 31
 2136              		.cfi_restore 70
 2137              	.LCFI27:
 2138              		.cfi_def_cfa_offset 0
 2139 0b30 4E800020 		blr
 2140              	.LVL145:
 2141              	.L217:
 2142              	.LCFI28:
 2143              		.cfi_restore_state
 2144              	.LBB2957:
 2145              	.LBB2948:
 2146              	.LBB2946:
 2147              	.LBB2943:
 2148              	.LBB2921:
 2149              	.LBB2920:
 2150              	.LBB2919:
 2151              	.LBB2918:
 2152              	.LBB2912:
 2153              	.LBB2913:
 2154              	.LBB2914:
 2155              		.loc 3 66 0
 2156 0b34 8169FFFC 		lwz 11,-4(9)
 2157              	.LVL146:
 2158              	.LBE2914:
 2159              	.LBE2913:
 2160              	.LBE2912:
 2161              		.loc 2 240 0
 2162 0b38 2F8B0000 		cmpwi 7,11,0
 2163              	.LBB2917:
 2164              	.LBB2916:
 2165              	.LBB2915:
 2166              		.loc 3 67 0
 2167 0b3c 396BFFFF 		addi 11,11,-1
 2168 0b40 9169FFFC 		stw 11,-4(9)
 2169              	.LBE2915:
 2170              	.LBE2916:
 2171              	.LBE2917:
 2172              		.loc 2 240 0
 2173 0b44 419DFECC 		bgt+ 7,.L177
 2174              		.loc 2 244 0
 2175 0b48 38810009 		addi 4,1,9
 2176 0b4c 48000001 		bl _ZNSs4_Rep10_M_destroyERKSaIcE
 2177              	.LVL147:
 2178 0b50 4BFFFEC0 		b .L177
 2179              	.LVL148:
 2180              	.L218:
 2181              	.LBE2918:
 2182              	.LBE2919:
 2183              	.LBE2920:
 2184              	.LBE2921:
 2185              	.LBE2943:
 2186              	.LBB2944:
 2187              	.LBB2939:
 2188              	.LBB2938:
 2189              	.LBB2937:
 2190              	.LBB2936:
 2191              	.LBB2930:
 2192              	.LBB2931:
 2193              	.LBB2932:
 2194              		.loc 3 66 0
 2195 0b54 8169FFFC 		lwz 11,-4(9)
 2196              	.LVL149:
 2197              	.LBE2932:
 2198              	.LBE2931:
 2199              	.LBE2930:
 2200              		.loc 2 240 0
 2201 0b58 2F8B0000 		cmpwi 7,11,0
 2202              	.LBB2935:
 2203              	.LBB2934:
 2204              	.LBB2933:
 2205              		.loc 3 67 0
 2206 0b5c 396BFFFF 		addi 11,11,-1
 2207 0b60 9169FFFC 		stw 11,-4(9)
 2208              	.LBE2933:
 2209              	.LBE2934:
 2210              	.LBE2935:
 2211              		.loc 2 240 0
 2212 0b64 419DFEBC 		bgt+ 7,.L184
 2213              		.loc 2 244 0
 2214 0b68 38810008 		addi 4,1,8
 2215 0b6c 48000001 		bl _ZNSs4_Rep10_M_destroyERKSaIcE
 2216              	.LVL150:
 2217 0b70 4BFFFEB0 		b .L184
 2218              	.LVL151:
 2219              	.L215:
 2220              	.LBE2936:
 2221              	.LBE2937:
 2222              	.LBE2938:
 2223              	.LBE2939:
 2224              	.LBE2944:
 2225              	.LBE2946:
 2226              	.LBE2948:
 2227              	.LBB2949:
 2228              	.LBB2900:
 2229              	.LBB2898:
 2230              	.LBB2896:
 2231              	.LBB2893:
 2232              	.LBB2885:
 2233              	.LBB2886:
 2234              	.LBB2887:
 2235              		.loc 3 66 0
 2236 0b74 8169FFFC 		lwz 11,-4(9)
 2237              	.LVL152:
 2238              	.LBE2887:
 2239              	.LBE2886:
 2240              	.LBE2885:
 2241              		.loc 2 240 0
 2242 0b78 2F8B0000 		cmpwi 7,11,0
 2243              	.LBB2890:
 2244              	.LBB2889:
 2245              	.LBB2888:
 2246              		.loc 3 67 0
 2247 0b7c 396BFFFF 		addi 11,11,-1
 2248 0b80 9169FFFC 		stw 11,-4(9)
 2249              	.LBE2888:
 2250              	.LBE2889:
 2251              	.LBE2890:
 2252              		.loc 2 240 0
 2253 0b84 419DFD88 		bgt+ 7,.L163
 2254              		.loc 2 244 0
 2255 0b88 3881000A 		addi 4,1,10
 2256 0b8c 48000001 		bl _ZNSs4_Rep10_M_destroyERKSaIcE
 2257              	.LVL153:
 2258 0b90 4BFFFD7C 		b .L163
 2259              	.LVL154:
 2260              	.L205:
 2261 0b94 7C7F1B78 		mr 31,3
 2262              	.LBE2893:
 2263              	.LBE2896:
 2264              	.LBE2898:
 2265              	.LBE2900:
 2266              	.LBE2949:
 2267              		.loc 1 370 0
 2268 0b98 3861001C 		addi 3,1,28
 2269 0b9c 48000001 		bl _ZNSsD1Ev
 2270 0ba0 7FE3FB78 		mr 3,31
 2271 0ba4 48000001 		bl _Unwind_Resume
 2272              	.LVL155:
 2273              	.L214:
 2274              	.LBB2950:
 2275              	.LBB2876:
 2276              	.LBB2875:
 2277              	.LBB2874:
 2278              	.LBB2873:
 2279              	.LBB2867:
 2280              	.LBB2868:
 2281              	.LBB2869:
 2282              		.loc 3 66 0
 2283 0ba8 8169FFFC 		lwz 11,-4(9)
 2284              	.LVL156:
 2285              	.LBE2869:
 2286              	.LBE2868:
 2287              	.LBE2867:
 2288              		.loc 2 240 0
 2289 0bac 2F8B0000 		cmpwi 7,11,0
 2290              	.LBB2872:
 2291              	.LBB2871:
 2292              	.LBB2870:
 2293              		.loc 3 67 0
 2294 0bb0 396BFFFF 		addi 11,11,-1
 2295 0bb4 9169FFFC 		stw 11,-4(9)
 2296              	.LBE2870:
 2297              	.LBE2871:
 2298              	.LBE2872:
 2299              		.loc 2 240 0
 2300 0bb8 419DFD18 		bgt+ 7,.L155
 2301              		.loc 2 244 0
 2302 0bbc 3881000B 		addi 4,1,11
 2303 0bc0 48000001 		bl _ZNSs4_Rep10_M_destroyERKSaIcE
 2304              	.LVL157:
 2305 0bc4 4BFFFD0C 		b .L155
 2306              	.LVL158:
 2307              	.L213:
 2308              	.LBE2873:
 2309              	.LBE2874:
 2310              	.LBE2875:
 2311              	.LBE2876:
 2312              	.LBE2950:
 2313              	.LBB2951:
 2314              	.LBB2858:
 2315              	.LBB2857:
 2316              	.LBB2856:
 2317              	.LBB2854:
 2318              	.LBB2847:
 2319              	.LBB2848:
 2320              	.LBB2849:
 2321              		.loc 3 66 0
 2322 0bc8 8169FFFC 		lwz 11,-4(9)
 2323              	.LVL159:
 2324              	.LBE2849:
 2325              	.LBE2848:
 2326              	.LBE2847:
 2327              		.loc 2 240 0
 2328 0bcc 2F8B0000 		cmpwi 7,11,0
 2329              	.LBB2852:
 2330              	.LBB2851:
 2331              	.LBB2850:
 2332              		.loc 3 67 0
 2333 0bd0 396BFFFF 		addi 11,11,-1
 2334 0bd4 9169FFFC 		stw 11,-4(9)
 2335              	.LBE2850:
 2336              	.LBE2851:
 2337              	.LBE2852:
 2338              		.loc 2 240 0
 2339 0bd8 419DFCE8 		bgt+ 7,.L148
 2340              		.loc 2 244 0
 2341 0bdc 3881000C 		addi 4,1,12
 2342 0be0 48000001 		bl _ZNSs4_Rep10_M_destroyERKSaIcE
 2343              	.LVL160:
 2344 0be4 4BFFFCDC 		b .L148
 2345              	.LVL161:
 2346              	.L204:
 2347 0be8 7C7F1B78 		mr 31,3
 2348              	.LBE2854:
 2349              	.LBE2856:
 2350              	.LBE2857:
 2351              	.LBE2858:
 2352              	.LBE2951:
 2353              		.loc 1 368 0
 2354 0bec 38610020 		addi 3,1,32
 2355 0bf0 48000001 		bl _ZNSsD1Ev
 2356 0bf4 7FE3FB78 		mr 3,31
 2357              	.L211:
 2358 0bf8 7C7F1B78 		mr 31,3
 2359 0bfc 38610024 		addi 3,1,36
 2360 0c00 48000001 		bl _ZNSsD1Ev
 2361 0c04 7FE3FB78 		mr 3,31
 2362 0c08 48000001 		bl _Unwind_Resume
 2363              	.LEHE39:
 2364              	.L203:
 2365 0c0c 4BFFFFEC 		b .L211
 2366              	.L202:
 2367 0c10 4BFFFFE8 		b .L211
 2368              	.LVL162:
 2369              	.L206:
 2370              	.L212:
 2371 0c14 7C7F1B78 		mr 31,3
 2372              		.loc 1 412 0
 2373 0c18 38610028 		addi 3,1,40
 2374 0c1c 48000001 		bl _ZN8URL_ListD1Ev
 2375 0c20 7FE3FB78 		mr 3,31
 2376              	.LEHB40:
 2377 0c24 48000001 		bl _Unwind_Resume
 2378              	.LEHE40:
 2379              	.LVL163:
 2380              	.L207:
 2381 0c28 4BFFFFEC 		b .L212
 2382              	.L208:
 2383 0c2c 7C7F1B78 		mr 31,3
 2384              	.L196:
 2385              	.LBB2952:
 2386              	.LBB2947:
 2387              		.loc 1 393 0
 2388 0c30 38610018 		addi 3,1,24
 2389 0c34 48000001 		bl _ZNSsD1Ev
 2390 0c38 7FE3FB78 		mr 3,31
 2391 0c3c 4BFFFFD8 		b .L212
 2392              	.L209:
 2393 0c40 7C7F1B78 		mr 31,3
 2394 0c44 38610014 		addi 3,1,20
 2395 0c48 48000001 		bl _ZNSsD1Ev
 2396 0c4c 4BFFFFE4 		b .L196
 2397              	.LBE2947:
 2398              	.LBE2952:
 2399              	.LBE2957:
 2400              		.cfi_endproc
 2401              	.LFE1508:
 2402              		.section	.gcc_except_table
 2403              	.LLSDA1508:
 2404 00a0 FF       		.byte	0xff
 2405 00a1 FF       		.byte	0xff
 2406 00a2 01       		.byte	0x1
 2407 00a3 4E       		.uleb128 .LLSDACSE1508-.LLSDACSB1508
 2408              	.LLSDACSB1508:
 2409 00a4 4C       		.uleb128 .LEHB27-.LFB1508
 2410 00a5 14       		.uleb128 .LEHE27-.LEHB27
 2411 00a6 00       		.uleb128 0
 2412 00a7 00       		.uleb128 0
 2413 00a8 68       		.uleb128 .LEHB28-.LFB1508
 2414 00a9 04       		.uleb128 .LEHE28-.LEHB28
 2415 00aa FC07     		.uleb128 .L202-.LFB1508
 2416 00ac 00       		.uleb128 0
 2417 00ad 78       		.uleb128 .LEHB29-.LFB1508
 2418 00ae 04       		.uleb128 .LEHE29-.LEHB29
 2419 00af F807     		.uleb128 .L203-.LFB1508
 2420 00b1 00       		.uleb128 0
 2421 00b2 9001     		.uleb128 .LEHB30-.LFB1508
 2422 00b4 04       		.uleb128 .LEHE30-.LEHB30
 2423 00b5 D407     		.uleb128 .L204-.LFB1508
 2424 00b7 00       		.uleb128 0
 2425 00b8 D001     		.uleb128 .LEHB31-.LFB1508
 2426 00ba 04       		.uleb128 .LEHE31-.LEHB31
 2427 00bb 00       		.uleb128 0
 2428 00bc 00       		.uleb128 0
 2429 00bd D801     		.uleb128 .LEHB32-.LFB1508
 2430 00bf 04       		.uleb128 .LEHE32-.LEHB32
 2431 00c0 8007     		.uleb128 .L205-.LFB1508
 2432 00c2 00       		.uleb128 0
 2433 00c3 D402     		.uleb128 .LEHB33-.LFB1508
 2434 00c5 04       		.uleb128 .LEHE33-.LEHB33
 2435 00c6 00       		.uleb128 0
 2436 00c7 00       		.uleb128 0
 2437 00c8 DC02     		.uleb128 .LEHB34-.LFB1508
 2438 00ca 58       		.uleb128 .LEHE34-.LEHB34
 2439 00cb 8008     		.uleb128 .L206-.LFB1508
 2440 00cd 00       		.uleb128 0
 2441 00ce C003     		.uleb128 .LEHB35-.LFB1508
 2442 00d0 04       		.uleb128 .LEHE35-.LEHB35
 2443 00d1 9408     		.uleb128 .L207-.LFB1508
 2444 00d3 00       		.uleb128 0
 2445 00d4 D003     		.uleb128 .LEHB36-.LFB1508
 2446 00d6 04       		.uleb128 .LEHE36-.LEHB36
 2447 00d7 9808     		.uleb128 .L208-.LFB1508
 2448 00d9 00       		.uleb128 0
 2449 00da E803     		.uleb128 .LEHB37-.LFB1508
 2450 00dc 04       		.uleb128 .LEHE37-.LEHB37
 2451 00dd AC08     		.uleb128 .L209-.LFB1508
 2452 00df 00       		.uleb128 0
 2453 00e0 A404     		.uleb128 .LEHB38-.LFB1508
 2454 00e2 AC01     		.uleb128 .LEHE38-.LEHB38
 2455 00e4 8008     		.uleb128 .L206-.LFB1508
 2456 00e6 00       		.uleb128 0
 2457 00e7 DC05     		.uleb128 .LEHB39-.LFB1508
 2458 00e9 9C02     		.uleb128 .LEHE39-.LEHB39
 2459 00eb 00       		.uleb128 0
 2460 00ec 00       		.uleb128 0
 2461 00ed 9008     		.uleb128 .LEHB40-.LFB1508
 2462 00ef 04       		.uleb128 .LEHE40-.LEHB40
 2463 00f0 00       		.uleb128 0
 2464 00f1 00       		.uleb128 0
 2465              	.LLSDACSE1508:
 2466              		.section	".text"
 2467              		.size	_Z20DownloadAllLanguagesP12UpdateWindow, .-_Z20DownloadAllLanguagesP12UpdateWindow
 2468              		.align 2
 2469              		.globl _Z15UpdateLanguagesP12UpdateWindow
 2470              		.type	_Z15UpdateLanguagesP12UpdateWindow, @function
 2471              	_Z15UpdateLanguagesP12UpdateWindow:
 2472              	.LFB1509:
 2473              		.loc 1 419 0
 2474              		.cfi_startproc
 2475              		.cfi_personality 0,__gxx_personality_v0
 2476              		.cfi_lsda 0,.LLSDA1509
 2477              	.LVL164:
 2478 0c50 7D800026 		mfcr 12
 2479              	.LBB3155:
 2480              		.loc 1 420 0
 2481 0c54 2E030000 		cmpwi 4,3,0
 2482              	.LBE3155:
 2483              		.loc 1 419 0
 2484 0c58 7C0802A6 		mflr 0
 2485 0c5c 9421FE30 		stwu 1,-464(1)
 2486              	.LCFI29:
 2487              		.cfi_def_cfa_offset 464
 2488              		.cfi_register 65, 0
 2489              		.cfi_register 70, 12
 2490 0c60 930101B0 		stw 24,432(1)
 2491              	.LBB3308:
 2492              		.loc 1 420 0
 2493 0c64 7C781B78 		mr 24,3
 2494              		.cfi_offset 24, -32
 2495              	.LBE3308:
 2496              		.loc 1 419 0
 2497 0c68 900101D4 		stw 0,468(1)
 2498 0c6c 932101B4 		stw 25,436(1)
 2499 0c70 934101B8 		stw 26,440(1)
 2500 0c74 936101BC 		stw 27,444(1)
 2501 0c78 938101C0 		stw 28,448(1)
 2502 0c7c 93A101C4 		stw 29,452(1)
 2503 0c80 93C101C8 		stw 30,456(1)
 2504 0c84 93E101CC 		stw 31,460(1)
 2505 0c88 918101AC 		stw 12,428(1)
 2506              	.LBB3309:
 2507              		.loc 1 420 0
 2508 0c8c 4192007C 		beq- 4,.L236
 2509              		.cfi_offset 70, -36
 2510              		.cfi_offset 31, -4
 2511              		.cfi_offset 30, -8
 2512              		.cfi_offset 29, -12
 2513              		.cfi_offset 28, -16
 2514              		.cfi_offset 27, -20
 2515              		.cfi_offset 26, -24
 2516              		.cfi_offset 25, -28
 2517              		.cfi_offset 65, 4
 2518              		.loc 1 421 0
 2519 0c90 3C600000 		lis 3,.LC9@ha
 2520              	.LVL165:
 2521 0c94 386300A8 		la 3,.LC9@l(3)
 2522              	.LEHB41:
 2523 0c98 48000001 		bl gettext
 2524 0c9c 38A10014 		addi 5,1,20
 2525 0ca0 7C641B78 		mr 4,3
 2526 0ca4 38610030 		addi 3,1,48
 2527 0ca8 48000001 		bl _ZNSsC1EPKcRKSaIcE
 2528              	.LEHE41:
 2529 0cac 3C600000 		lis 3,.LC14@ha
 2530 0cb0 386300E4 		la 3,.LC14@l(3)
 2531              	.LEHB42:
 2532 0cb4 48000001 		bl gettext
 2533              	.LEHE42:
 2534 0cb8 7C641B78 		mr 4,3
 2535 0cbc 38A10013 		addi 5,1,19
 2536 0cc0 3861002C 		addi 3,1,44
 2537              	.LEHB43:
 2538 0cc4 48000001 		bl _ZNSsC1EPKcRKSaIcE
 2539              	.LEHE43:
 2540              		.loc 1 421 0 is_stmt 0 discriminator 3
 2541 0cc8 7F03C378 		mr 3,24
 2542 0ccc 38810030 		addi 4,1,48
 2543 0cd0 38A1002C 		addi 5,1,44
 2544 0cd4 38C00000 		li 6,0
 2545 0cd8 38E00001 		li 7,1
 2546              	.LEHB44:
 2547 0cdc 48000001 		bl _ZN12UpdateWindow12ShowProgressESsSsii
 2548              	.LEHE44:
 2549              	.LVL166:
 2550              	.LBB3156:
 2551              	.LBB3157:
 2552              	.LBB3158:
 2553              	.LBB3159:
 2554              	.LBB3160:
 2555              	.LBB3161:
 2556              		.loc 2 288 0 is_stmt 1
 2557 0ce0 8121002C 		lwz 9,44(1)
 2558              	.LBE3161:
 2559              	.LBE3160:
 2560              	.LBE3159:
 2561              	.LBB3162:
 2562              	.LBB3163:
 2563              		.loc 2 235 0
 2564 0ce4 3FC00000 		lis 30,_ZNSs4_Rep20_S_empty_rep_storageE@ha
 2565 0ce8 3BDE0000 		la 30,_ZNSs4_Rep20_S_empty_rep_storageE@l(30)
 2566              	.LBE3163:
 2567              	.LBE3162:
 2568              		.loc 2 534 0
 2569 0cec 3869FFF4 		addi 3,9,-12
 2570              	.LVL167:
 2571              	.LBB3172:
 2572              	.LBB3170:
 2573              		.loc 2 235 0
 2574 0cf0 7F83F000 		cmpw 7,3,30
 2575 0cf4 409E039C 		bne- 7,.L310
 2576              	.LVL168:
 2577              	.L229:
 2578              	.LBE3170:
 2579              	.LBE3172:
 2580              	.LBE3158:
 2581              	.LBE3157:
 2582              	.LBE3156:
 2583              	.LBB3176:
 2584              	.LBB3177:
 2585              	.LBB3178:
 2586              	.LBB3179:
 2587              	.LBB3180:
 2588              	.LBB3181:
 2589              		.loc 2 288 0
 2590 0cf8 81210030 		lwz 9,48(1)
 2591              	.LBE3181:
 2592              	.LBE3180:
 2593              	.LBE3179:
 2594              		.loc 2 534 0
 2595 0cfc 3869FFF4 		addi 3,9,-12
 2596              	.LVL169:
 2597              	.LBB3182:
 2598              	.LBB3183:
 2599              		.loc 2 235 0
 2600 0d00 7F83F000 		cmpw 7,3,30
 2601 0d04 409E036C 		bne- 7,.L311
 2602              	.LVL170:
 2603              	.L236:
 2604              	.LBE3183:
 2605              	.LBE3182:
 2606              	.LBE3178:
 2607              	.LBE3177:
 2608              	.LBE3176:
 2609              		.loc 1 423 0
 2610 0d08 3F200000 		lis 25,Settings+1568@ha
 2611 0d0c 38610028 		addi 3,1,40
 2612 0d10 3B390620 		la 25,Settings+1568@l(25)
 2613 0d14 38A10012 		addi 5,1,18
 2614 0d18 7F24CB78 		mr 4,25
 2615              	.LEHB45:
 2616 0d1c 48000001 		bl _ZNSsC1EPKcRKSaIcE
 2617              	.LEHE45:
 2618 0d20 38610028 		addi 3,1,40
 2619              	.LEHB46:
 2620 0d24 48000001 		bl _Z15CreateSubfolderSs
 2621              	.LEHE46:
 2622              	.LBB3194:
 2623              	.LBB3195:
 2624              	.LBB3196:
 2625              	.LBB3197:
 2626              	.LBB3198:
 2627              	.LBB3199:
 2628              		.loc 2 288 0
 2629 0d28 81210028 		lwz 9,40(1)
 2630              	.LBE3199:
 2631              	.LBE3198:
 2632              	.LBE3197:
 2633              	.LBB3200:
 2634              	.LBB3201:
 2635              		.loc 2 235 0
 2636 0d2c 3FC00000 		lis 30,_ZNSs4_Rep20_S_empty_rep_storageE@ha
 2637              	.LBE3201:
 2638              	.LBE3200:
 2639              	.LBE3196:
 2640              	.LBE3195:
 2641              	.LBE3194:
 2642              		.loc 1 423 0
 2643 0d30 7C7F1B78 		mr 31,3
 2644              	.LVL171:
 2645              	.LBB3218:
 2646              	.LBB3216:
 2647              	.LBB3214:
 2648              	.LBB3211:
 2649              	.LBB3208:
 2650              		.loc 2 235 0
 2651 0d34 3BDE0000 		la 30,_ZNSs4_Rep20_S_empty_rep_storageE@l(30)
 2652              	.LBE3208:
 2653              	.LBE3211:
 2654              		.loc 2 534 0
 2655 0d38 3869FFF4 		addi 3,9,-12
 2656              	.LVL172:
 2657              	.LBB3212:
 2658              	.LBB3209:
 2659              		.loc 2 235 0
 2660 0d3c 7F83F000 		cmpw 7,3,30
 2661 0d40 409E02FC 		bne- 7,.L312
 2662              	.LVL173:
 2663              	.L244:
 2664              	.LBE3209:
 2665              	.LBE3212:
 2666              	.LBE3214:
 2667              	.LBE3216:
 2668              	.LBE3218:
 2669              		.loc 1 423 0 discriminator 2
 2670 0d44 2F9F0000 		cmpwi 7,31,0
 2671              		.loc 1 424 0 discriminator 2
 2672 0d48 3BE00000 		li 31,0
 2673              		.loc 1 423 0 discriminator 2
 2674 0d4c 409E0040 		bne- 7,.L313
 2675              	.LBE3309:
 2676              		.loc 1 460 0
 2677 0d50 800101D4 		lwz 0,468(1)
 2678 0d54 7FE3FB78 		mr 3,31
 2679 0d58 818101AC 		lwz 12,428(1)
 2680 0d5c 7C0803A6 		mtlr 0
 2681 0d60 830101B0 		lwz 24,432(1)
 2682              	.LVL174:
 2683 0d64 832101B4 		lwz 25,436(1)
 2684 0d68 7D808120 		mtcrf 8,12
 2685 0d6c 834101B8 		lwz 26,440(1)
 2686 0d70 836101BC 		lwz 27,444(1)
 2687 0d74 838101C0 		lwz 28,448(1)
 2688 0d78 83A101C4 		lwz 29,452(1)
 2689 0d7c 83C101C8 		lwz 30,456(1)
 2690 0d80 83E101CC 		lwz 31,460(1)
 2691 0d84 382101D0 		addi 1,1,464
 2692              		.cfi_remember_state
 2693              	.LCFI30:
 2694              		.cfi_def_cfa_offset 0
 2695              		.cfi_restore 70
 2696              		.cfi_restore 31
 2697              		.cfi_restore 30
 2698              		.cfi_restore 29
 2699              		.cfi_restore 28
 2700              		.cfi_restore 27
 2701              		.cfi_restore 26
 2702              		.cfi_restore 25
 2703              		.cfi_restore 24
 2704 0d88 4E800020 		blr
 2705              	.LVL175:
 2706              	.L313:
 2707              	.LCFI31:
 2708              		.cfi_restore_state
 2709              	.LBB3310:
 2710              		.loc 1 426 0
 2711 0d8c 38610024 		addi 3,1,36
 2712 0d90 7F24CB78 		mr 4,25
 2713 0d94 38A10011 		addi 5,1,17
 2714              	.LEHB47:
 2715 0d98 48000001 		bl _ZNSsC1EPKcRKSaIcE
 2716              	.LEHE47:
 2717 0d9c 3CA00000 		lis 5,.LC11@ha
 2718 0da0 38610034 		addi 3,1,52
 2719 0da4 38810024 		addi 4,1,36
 2720 0da8 38A500CC 		la 5,.LC11@l(5)
 2721 0dac 38C00003 		li 6,3
 2722              	.LEHB48:
 2723 0db0 48000001 		bl _ZN7DirListC1ESsPKcj
 2724              	.LEHE48:
 2725              	.LVL176:
 2726              	.LBB3219:
 2727              	.LBB3220:
 2728              	.LBB3221:
 2729              	.LBB3222:
 2730              	.LBB3223:
 2731              	.LBB3224:
 2732              		.loc 2 288 0
 2733 0db4 81210024 		lwz 9,36(1)
 2734              	.LBE3224:
 2735              	.LBE3223:
 2736              	.LBE3222:
 2737              		.loc 2 534 0
 2738 0db8 3869FFF4 		addi 3,9,-12
 2739              	.LVL177:
 2740              	.LBB3225:
 2741              	.LBB3226:
 2742              		.loc 2 235 0
 2743 0dbc 7F83F000 		cmpw 7,3,30
 2744 0dc0 409E0244 		bne- 7,.L314
 2745              	.LVL178:
 2746              	.L253:
 2747              	.LBE3226:
 2748              	.LBE3225:
 2749              	.LBE3221:
 2750              	.LBE3220:
 2751              	.LBE3219:
 2752              	.LBB3237:
 2753              	.LBB3238:
 2754              	.LBB3239:
 2755              		.file 4 "d:\\devkitpro\\devkitppc\\bin\\../lib/gcc/powerpc-eabi/4.6.3/../../../../powerpc-eabi/inc
 2756              		.loc 4 571 0
 2757 0dc4 80010034 		lwz 0,52(1)
 2758 0dc8 83610038 		lwz 27,56(1)
 2759 0dcc 7F60D850 		subf 27,0,27
 2760 0dd0 3C00AAAA 		lis 0,0xaaaa
 2761 0dd4 7F7B1E70 		srawi 27,27,3
 2762 0dd8 6000AAAB 		ori 0,0,43691
 2763              	.LBE3239:
 2764              	.LBE3238:
 2765              	.LBE3237:
 2766              		.loc 1 428 0
 2767 0ddc 7F7B01D7 		mullw. 27,27,0
 2768 0de0 41820188 		beq- 0,.L295
 2769              	.LVL179:
 2770              	.LBB3240:
 2771              		.loc 1 434 0 discriminator 1
 2772 0de4 4081013C 		ble- 0,.L296
 2773              		.loc 1 434 0 is_stmt 0
 2774 0de8 3BE00000 		li 31,0
 2775              	.LVL180:
 2776              	.L279:
 2777              	.LBB3241:
 2778              		.loc 1 436 0 is_stmt 1
 2779 0dec 38610034 		addi 3,1,52
 2780              	.LVL181:
 2781 0df0 7FE4FB78 		mr 4,31
 2782              	.LEHB49:
 2783 0df4 48000001 		bl _ZN7DirList11GetFilenameEi
 2784              	.LVL182:
 2785 0df8 7C641B78 		mr 4,3
 2786 0dfc 38A10010 		addi 5,1,16
 2787 0e00 38610020 		addi 3,1,32
 2788 0e04 48000001 		bl _ZNSsC1EPKcRKSaIcE
 2789              	.LEHE49:
 2790              		.loc 1 438 0 discriminator 2
 2791 0e08 41920064 		beq- 4,.L270
 2792              		.loc 1 439 0
 2793 0e0c 3C600000 		lis 3,.LC9@ha
 2794 0e10 386300A8 		la 3,.LC9@l(3)
 2795              	.LEHB50:
 2796 0e14 48000001 		bl gettext
 2797              	.LEHE50:
 2798 0e18 7C641B78 		mr 4,3
 2799 0e1c 38A1000F 		addi 5,1,15
 2800 0e20 3861001C 		addi 3,1,28
 2801              	.LEHB51:
 2802 0e24 48000001 		bl _ZNSsC1EPKcRKSaIcE
 2803              	.LEHE51:
 2804              		.loc 1 439 0 is_stmt 0 discriminator 2
 2805 0e28 38610018 		addi 3,1,24
 2806 0e2c 38810020 		addi 4,1,32
 2807              	.LEHB52:
 2808 0e30 48000001 		bl _ZNSsC1ERKSs
 2809              	.LEHE52:
 2810              		.loc 1 439 0 discriminator 3
 2811 0e34 7F03C378 		mr 3,24
 2812 0e38 3881001C 		addi 4,1,28
 2813 0e3c 38A10018 		addi 5,1,24
 2814 0e40 7FE6FB78 		mr 6,31
 2815 0e44 7F67DB78 		mr 7,27
 2816              	.LEHB53:
 2817 0e48 48000001 		bl _ZN12UpdateWindow12ShowProgressESsSsii
 2818              	.LEHE53:
 2819              	.LVL183:
 2820              	.LBB3242:
 2821              	.LBB3243:
 2822              	.LBB3244:
 2823              	.LBB3245:
 2824              	.LBB3246:
 2825              	.LBB3247:
 2826              		.loc 2 288 0 is_stmt 1
 2827 0e4c 81210018 		lwz 9,24(1)
 2828              	.LBE3247:
 2829              	.LBE3246:
 2830              	.LBE3245:
 2831              		.loc 2 534 0
 2832 0e50 3869FFF4 		addi 3,9,-12
 2833              	.LVL184:
 2834              	.LBB3248:
 2835              	.LBB3249:
 2836              		.loc 2 235 0
 2837 0e54 7F83F000 		cmpw 7,3,30
 2838 0e58 409E0138 		bne- 7,.L315
 2839              	.LVL185:
 2840              	.L263:
 2841              	.LBE3249:
 2842              	.LBE3248:
 2843              	.LBE3244:
 2844              	.LBE3243:
 2845              	.LBE3242:
 2846              	.LBB3260:
 2847              	.LBB3261:
 2848              	.LBB3262:
 2849              	.LBB3263:
 2850              	.LBB3264:
 2851              	.LBB3265:
 2852              		.loc 2 288 0
 2853 0e5c 8121001C 		lwz 9,28(1)
 2854              	.LBE3265:
 2855              	.LBE3264:
 2856              	.LBE3263:
 2857              		.loc 2 534 0
 2858 0e60 3869FFF4 		addi 3,9,-12
 2859              	.LVL186:
 2860              	.LBB3266:
 2861              	.LBB3267:
 2862              		.loc 2 235 0
 2863 0e64 7F83F000 		cmpw 7,3,30
 2864 0e68 409E0148 		bne- 7,.L316
 2865              	.LVL187:
 2866              	.L270:
 2867              	.LBE3267:
 2868              	.LBE3266:
 2869              	.LBE3262:
 2870              	.LBE3261:
 2871              	.LBE3260:
 2872              		.loc 1 441 0
 2873 0e6c 3CC00000 		lis 6,.LANCHOR0@ha
 2874 0e70 3CA00000 		lis 5,.LC12@ha
 2875 0e74 38C60000 		la 6,.LANCHOR0@l(6)
 2876 0e78 80E10020 		lwz 7,32(1)
 2877 0e7c 386100D8 		addi 3,1,216
 2878 0e80 388000C8 		li 4,200
 2879 0e84 38A500D4 		la 5,.LC12@l(5)
 2880 0e88 38C60800 		addi 6,6,2048
 2881              	.LEHB54:
 2882 0e8c 4CC63182 		crxor 6,6,6
 2883 0e90 48000001 		bl snprintf
 2884              	.LVL188:
 2885              		.loc 1 442 0
 2886 0e94 3CA00000 		lis 5,.LC13@ha
 2887 0e98 80E10020 		lwz 7,32(1)
 2888 0e9c 38610040 		addi 3,1,64
 2889 0ea0 38800096 		li 4,150
 2890 0ea4 38A500DC 		la 5,.LC13@l(5)
 2891 0ea8 7F26CB78 		mr 6,25
 2892 0eac 4CC63182 		crxor 6,6,6
 2893 0eb0 48000001 		bl snprintf
 2894              		.loc 1 444 0
 2895 0eb4 386100D8 		addi 3,1,216
 2896 0eb8 48000001 		bl downloadfile
 2897              	.LBB3278:
 2898              		.loc 1 446 0
 2899 0ebc 7C9D2379 		mr. 29,4
 2900              	.LBE3278:
 2901              		.loc 1 444 0
 2902 0ec0 7C7A1B78 		mr 26,3
 2903              	.LBB3280:
 2904              		.loc 1 446 0
 2905 0ec4 41820040 		beq- 0,.L271
 2906              	.LBB3279:
 2907              		.loc 1 449 0
 2908 0ec8 3C800000 		lis 4,.LC1@ha
 2909 0ecc 38610040 		addi 3,1,64
 2910 0ed0 3884000C 		la 4,.LC1@l(4)
 2911 0ed4 48000001 		bl fopen
 2912              	.LVL189:
 2913              		.loc 1 450 0
 2914 0ed8 7C7C1B79 		mr. 28,3
 2915 0edc 41820020 		beq- 0,.L272
 2916              		.loc 1 452 0
 2917 0ee0 7FA3EB78 		mr 3,29
 2918              	.LVL190:
 2919 0ee4 38800001 		li 4,1
 2920 0ee8 7F45D378 		mr 5,26
 2921 0eec 7F86E378 		mr 6,28
 2922 0ef0 48000001 		bl fwrite
 2923              		.loc 1 453 0
 2924 0ef4 7F83E378 		mr 3,28
 2925 0ef8 48000001 		bl fclose
 2926              	.LEHE54:
 2927              	.L272:
 2928              		.loc 1 455 0
 2929 0efc 7FA3EB78 		mr 3,29
 2930 0f00 48000001 		bl free
 2931              	.LVL191:
 2932              	.L271:
 2933              	.LBE3279:
 2934              	.LBE3280:
 2935              	.LBB3281:
 2936              	.LBB3282:
 2937              	.LBB3283:
 2938              	.LBB3284:
 2939              	.LBB3285:
 2940              	.LBB3286:
 2941              		.loc 2 288 0
 2942 0f04 81210020 		lwz 9,32(1)
 2943              	.LBE3286:
 2944              	.LBE3285:
 2945              	.LBE3284:
 2946              		.loc 2 534 0
 2947 0f08 3869FFF4 		addi 3,9,-12
 2948              	.LVL192:
 2949              	.LBB3287:
 2950              	.LBB3288:
 2951              		.loc 2 235 0
 2952 0f0c 7F83F000 		cmpw 7,3,30
 2953 0f10 409E0060 		bne- 7,.L317
 2954              	.LVL193:
 2955              	.L278:
 2956              	.LBE3288:
 2957              	.LBE3287:
 2958              	.LBE3283:
 2959              	.LBE3282:
 2960              	.LBE3281:
 2961              	.LBE3241:
 2962              		.loc 1 434 0
 2963 0f14 3BFF0001 		addi 31,31,1
 2964              	.LVL194:
 2965 0f18 7F9FD800 		cmpw 7,31,27
 2966 0f1c 409EFED0 		bne+ 7,.L279
 2967              	.LVL195:
 2968              	.L296:
 2969              		.loc 1 459 0
 2970 0f20 3BE00001 		li 31,1
 2971              	.L254:
 2972              	.LBE3240:
 2973 0f24 38610034 		addi 3,1,52
 2974              	.LVL196:
 2975              	.LEHB55:
 2976 0f28 48000001 		bl _ZN7DirListD1Ev
 2977              	.LEHE55:
 2978              	.LVL197:
 2979              	.LBE3310:
 2980              		.loc 1 460 0
 2981 0f2c 800101D4 		lwz 0,468(1)
 2982 0f30 818101AC 		lwz 12,428(1)
 2983 0f34 7FE3FB78 		mr 3,31
 2984 0f38 7C0803A6 		mtlr 0
 2985 0f3c 830101B0 		lwz 24,432(1)
 2986              	.LVL198:
 2987 0f40 832101B4 		lwz 25,436(1)
 2988 0f44 7D808120 		mtcrf 8,12
 2989 0f48 834101B8 		lwz 26,440(1)
 2990 0f4c 836101BC 		lwz 27,444(1)
 2991 0f50 838101C0 		lwz 28,448(1)
 2992 0f54 83A101C4 		lwz 29,452(1)
 2993 0f58 83C101C8 		lwz 30,456(1)
 2994 0f5c 83E101CC 		lwz 31,460(1)
 2995 0f60 382101D0 		addi 1,1,464
 2996              		.cfi_remember_state
 2997              		.cfi_restore 24
 2998              		.cfi_restore 25
 2999              		.cfi_restore 26
 3000              		.cfi_restore 27
 3001              		.cfi_restore 28
 3002              		.cfi_restore 29
 3003              		.cfi_restore 30
 3004              		.cfi_restore 31
 3005              		.cfi_restore 70
 3006              	.LCFI32:
 3007              		.cfi_def_cfa_offset 0
 3008 0f64 4E800020 		blr
 3009              	.LVL199:
 3010              	.L295:
 3011              	.LCFI33:
 3012              		.cfi_restore_state
 3013              	.LBB3311:
 3014              		.loc 1 428 0
 3015 0f68 3BE00000 		li 31,0
 3016 0f6c 4BFFFFB8 		b .L254
 3017              	.LVL200:
 3018              	.L317:
 3019              	.LBB3303:
 3020              	.LBB3302:
 3021              	.LBB3299:
 3022              	.LBB3298:
 3023              	.LBB3297:
 3024              	.LBB3296:
 3025              	.LBB3295:
 3026              	.LBB3289:
 3027              	.LBB3290:
 3028              	.LBB3291:
 3029              		.loc 3 66 0
 3030 0f70 8169FFFC 		lwz 11,-4(9)
 3031              	.LVL201:
 3032              	.LBE3291:
 3033              	.LBE3290:
 3034              	.LBE3289:
 3035              		.loc 2 240 0
 3036 0f74 2F8B0000 		cmpwi 7,11,0
 3037              	.LBB3294:
 3038              	.LBB3293:
 3039              	.LBB3292:
 3040              		.loc 3 67 0
 3041 0f78 396BFFFF 		addi 11,11,-1
 3042 0f7c 9169FFFC 		stw 11,-4(9)
 3043              	.LBE3292:
 3044              	.LBE3293:
 3045              	.LBE3294:
 3046              		.loc 2 240 0
 3047 0f80 419DFF94 		bgt+ 7,.L278
 3048              		.loc 2 244 0
 3049 0f84 38810008 		addi 4,1,8
 3050 0f88 48000001 		bl _ZNSs4_Rep10_M_destroyERKSaIcE
 3051              	.LVL202:
 3052 0f8c 4BFFFF88 		b .L278
 3053              	.LVL203:
 3054              	.L315:
 3055              	.LBE3295:
 3056              	.LBE3296:
 3057              	.LBE3297:
 3058              	.LBE3298:
 3059              	.LBE3299:
 3060              	.LBB3300:
 3061              	.LBB3259:
 3062              	.LBB3258:
 3063              	.LBB3257:
 3064              	.LBB3256:
 3065              	.LBB3250:
 3066              	.LBB3251:
 3067              	.LBB3252:
 3068              		.loc 3 66 0
 3069 0f90 8169FFFC 		lwz 11,-4(9)
 3070              	.LVL204:
 3071              	.LBE3252:
 3072              	.LBE3251:
 3073              	.LBE3250:
 3074              		.loc 2 240 0
 3075 0f94 2F8B0000 		cmpwi 7,11,0
 3076              	.LBB3255:
 3077              	.LBB3254:
 3078              	.LBB3253:
 3079              		.loc 3 67 0
 3080 0f98 396BFFFF 		addi 11,11,-1
 3081 0f9c 9169FFFC 		stw 11,-4(9)
 3082              	.LBE3253:
 3083              	.LBE3254:
 3084              	.LBE3255:
 3085              		.loc 2 240 0
 3086 0fa0 419DFEBC 		bgt+ 7,.L263
 3087              		.loc 2 244 0
 3088 0fa4 3881000A 		addi 4,1,10
 3089 0fa8 48000001 		bl _ZNSs4_Rep10_M_destroyERKSaIcE
 3090              	.LVL205:
 3091 0fac 4BFFFEB0 		b .L263
 3092              	.LVL206:
 3093              	.L316:
 3094              	.LBE3256:
 3095              	.LBE3257:
 3096              	.LBE3258:
 3097              	.LBE3259:
 3098              	.LBE3300:
 3099              	.LBB3301:
 3100              	.LBB3277:
 3101              	.LBB3276:
 3102              	.LBB3275:
 3103              	.LBB3274:
 3104              	.LBB3268:
 3105              	.LBB3269:
 3106              	.LBB3270:
 3107              		.loc 3 66 0
 3108 0fb0 8169FFFC 		lwz 11,-4(9)
 3109              	.LVL207:
 3110              	.LBE3270:
 3111              	.LBE3269:
 3112              	.LBE3268:
 3113              		.loc 2 240 0
 3114 0fb4 2F8B0000 		cmpwi 7,11,0
 3115              	.LBB3273:
 3116              	.LBB3272:
 3117              	.LBB3271:
 3118              		.loc 3 67 0
 3119 0fb8 396BFFFF 		addi 11,11,-1
 3120 0fbc 9169FFFC 		stw 11,-4(9)
 3121              	.LBE3271:
 3122              	.LBE3272:
 3123              	.LBE3273:
 3124              		.loc 2 240 0
 3125 0fc0 419DFEAC 		bgt+ 7,.L270
 3126              		.loc 2 244 0
 3127 0fc4 38810009 		addi 4,1,9
 3128 0fc8 48000001 		bl _ZNSs4_Rep10_M_destroyERKSaIcE
 3129              	.LVL208:
 3130 0fcc 4BFFFEA0 		b .L270
 3131              	.LVL209:
 3132              	.L306:
 3133 0fd0 7C7F1B78 		mr 31,3
 3134              	.LBE3274:
 3135              	.LBE3275:
 3136              	.LBE3276:
 3137              	.LBE3277:
 3138              	.LBE3301:
 3139              		.loc 1 439 0
 3140 0fd4 38610018 		addi 3,1,24
 3141 0fd8 48000001 		bl _ZNSsD1Ev
 3142              	.L288:
 3143 0fdc 3861001C 		addi 3,1,28
 3144 0fe0 48000001 		bl _ZNSsD1Ev
 3145 0fe4 7FE3FB78 		mr 3,31
 3146              	.L309:
 3147 0fe8 7C7F1B78 		mr 31,3
 3148              		.loc 1 457 0
 3149 0fec 38610020 		addi 3,1,32
 3150 0ff0 48000001 		bl _ZNSsD1Ev
 3151              	.L293:
 3152              	.LBE3302:
 3153              	.LBE3303:
 3154              		.loc 1 459 0
 3155 0ff4 38610034 		addi 3,1,52
 3156              	.LVL210:
 3157 0ff8 48000001 		bl _ZN7DirListD1Ev
 3158              	.LVL211:
 3159 0ffc 7FE3FB78 		mr 3,31
 3160              	.LEHB56:
 3161 1000 48000001 		bl _Unwind_Resume
 3162              	.LVL212:
 3163              	.L314:
 3164              	.LBB3304:
 3165              	.LBB3236:
 3166              	.LBB3235:
 3167              	.LBB3234:
 3168              	.LBB3233:
 3169              	.LBB3227:
 3170              	.LBB3228:
 3171              	.LBB3229:
 3172              		.loc 3 66 0
 3173 1004 8169FFFC 		lwz 11,-4(9)
 3174              	.LVL213:
 3175              	.LBE3229:
 3176              	.LBE3228:
 3177              	.LBE3227:
 3178              		.loc 2 240 0
 3179 1008 2F8B0000 		cmpwi 7,11,0
 3180              	.LBB3232:
 3181              	.LBB3231:
 3182              	.LBB3230:
 3183              		.loc 3 67 0
 3184 100c 396BFFFF 		addi 11,11,-1
 3185 1010 9169FFFC 		stw 11,-4(9)
 3186              	.LBE3230:
 3187              	.LBE3231:
 3188              	.LBE3232:
 3189              		.loc 2 240 0
 3190 1014 419DFDB0 		bgt+ 7,.L253
 3191              		.loc 2 244 0
 3192 1018 3881000B 		addi 4,1,11
 3193 101c 48000001 		bl _ZNSs4_Rep10_M_destroyERKSaIcE
 3194              	.LVL214:
 3195 1020 4BFFFDA4 		b .L253
 3196              	.LVL215:
 3197              	.L302:
 3198 1024 7C7F1B78 		mr 31,3
 3199 1028 4BFFFFCC 		b .L293
 3200              	.L303:
 3201 102c 4BFFFFBC 		b .L309
 3202              	.L304:
 3203 1030 4BFFFFB8 		b .L309
 3204              	.L305:
 3205 1034 7C7F1B78 		mr 31,3
 3206 1038 4BFFFFA4 		b .L288
 3207              	.LVL216:
 3208              	.L312:
 3209              	.LBE3233:
 3210              	.LBE3234:
 3211              	.LBE3235:
 3212              	.LBE3236:
 3213              	.LBE3304:
 3214              	.LBB3305:
 3215              	.LBB3217:
 3216              	.LBB3215:
 3217              	.LBB3213:
 3218              	.LBB3210:
 3219              	.LBB3202:
 3220              	.LBB3203:
 3221              	.LBB3204:
 3222              		.loc 3 66 0
 3223 103c 8169FFFC 		lwz 11,-4(9)
 3224              	.LVL217:
 3225              	.LBE3204:
 3226              	.LBE3203:
 3227              	.LBE3202:
 3228              		.loc 2 240 0
 3229 1040 2F8B0000 		cmpwi 7,11,0
 3230              	.LBB3207:
 3231              	.LBB3206:
 3232              	.LBB3205:
 3233              		.loc 3 67 0
 3234 1044 396BFFFF 		addi 11,11,-1
 3235 1048 9169FFFC 		stw 11,-4(9)
 3236              	.LBE3205:
 3237              	.LBE3206:
 3238              	.LBE3207:
 3239              		.loc 2 240 0
 3240 104c 419DFCF8 		bgt+ 7,.L244
 3241              		.loc 2 244 0
 3242 1050 3881000C 		addi 4,1,12
 3243 1054 48000001 		bl _ZNSs4_Rep10_M_destroyERKSaIcE
 3244              	.LVL218:
 3245 1058 4BFFFCEC 		b .L244
 3246              	.LVL219:
 3247              	.L300:
 3248 105c 7C7F1B78 		mr 31,3
 3249              	.LBE3210:
 3250              	.LBE3213:
 3251              	.LBE3215:
 3252              	.LBE3217:
 3253              	.LBE3305:
 3254              		.loc 1 423 0
 3255 1060 38610028 		addi 3,1,40
 3256 1064 48000001 		bl _ZNSsD1Ev
 3257 1068 7FE3FB78 		mr 3,31
 3258 106c 48000001 		bl _Unwind_Resume
 3259              	.LVL220:
 3260              	.L311:
 3261              	.LBB3306:
 3262              	.LBB3193:
 3263              	.LBB3192:
 3264              	.LBB3191:
 3265              	.LBB3190:
 3266              	.LBB3184:
 3267              	.LBB3185:
 3268              	.LBB3186:
 3269              		.loc 3 66 0
 3270 1070 8169FFFC 		lwz 11,-4(9)
 3271              	.LVL221:
 3272              	.LBE3186:
 3273              	.LBE3185:
 3274              	.LBE3184:
 3275              		.loc 2 240 0
 3276 1074 2F8B0000 		cmpwi 7,11,0
 3277              	.LBB3189:
 3278              	.LBB3188:
 3279              	.LBB3187:
 3280              		.loc 3 67 0
 3281 1078 396BFFFF 		addi 11,11,-1
 3282 107c 9169FFFC 		stw 11,-4(9)
 3283              	.LBE3187:
 3284              	.LBE3188:
 3285              	.LBE3189:
 3286              		.loc 2 240 0
 3287 1080 419DFC88 		bgt+ 7,.L236
 3288              		.loc 2 244 0
 3289 1084 3881000D 		addi 4,1,13
 3290 1088 48000001 		bl _ZNSs4_Rep10_M_destroyERKSaIcE
 3291              	.LVL222:
 3292 108c 4BFFFC7C 		b .L236
 3293              	.LVL223:
 3294              	.L310:
 3295              	.LBE3190:
 3296              	.LBE3191:
 3297              	.LBE3192:
 3298              	.LBE3193:
 3299              	.LBE3306:
 3300              	.LBB3307:
 3301              	.LBB3175:
 3302              	.LBB3174:
 3303              	.LBB3173:
 3304              	.LBB3171:
 3305              	.LBB3164:
 3306              	.LBB3165:
 3307              	.LBB3166:
 3308              		.loc 3 66 0
 3309 1090 8169FFFC 		lwz 11,-4(9)
 3310              	.LVL224:
 3311              	.LBE3166:
 3312              	.LBE3165:
 3313              	.LBE3164:
 3314              		.loc 2 240 0
 3315 1094 2F8B0000 		cmpwi 7,11,0
 3316              	.LBB3169:
 3317              	.LBB3168:
 3318              	.LBB3167:
 3319              		.loc 3 67 0
 3320 1098 396BFFFF 		addi 11,11,-1
 3321 109c 9169FFFC 		stw 11,-4(9)
 3322              	.LBE3167:
 3323              	.LBE3168:
 3324              	.LBE3169:
 3325              		.loc 2 240 0
 3326 10a0 419DFC58 		bgt+ 7,.L229
 3327              		.loc 2 244 0
 3328 10a4 3881000E 		addi 4,1,14
 3329 10a8 48000001 		bl _ZNSs4_Rep10_M_destroyERKSaIcE
 3330              	.LVL225:
 3331 10ac 4BFFFC4C 		b .L229
 3332              	.LVL226:
 3333              	.L299:
 3334 10b0 7C7F1B78 		mr 31,3
 3335              	.LBE3171:
 3336              	.LBE3173:
 3337              	.LBE3174:
 3338              	.LBE3175:
 3339              	.LBE3307:
 3340              		.loc 1 421 0
 3341 10b4 3861002C 		addi 3,1,44
 3342 10b8 48000001 		bl _ZNSsD1Ev
 3343 10bc 7FE3FB78 		mr 3,31
 3344              	.L308:
 3345 10c0 7C7F1B78 		mr 31,3
 3346 10c4 38610030 		addi 3,1,48
 3347 10c8 48000001 		bl _ZNSsD1Ev
 3348 10cc 7FE3FB78 		mr 3,31
 3349 10d0 48000001 		bl _Unwind_Resume
 3350              	.L298:
 3351 10d4 4BFFFFEC 		b .L308
 3352              	.L297:
 3353 10d8 4BFFFFE8 		b .L308
 3354              	.LVL227:
 3355              	.L301:
 3356 10dc 7C7F1B78 		mr 31,3
 3357              		.loc 1 426 0
 3358 10e0 38610024 		addi 3,1,36
 3359 10e4 48000001 		bl _ZNSsD1Ev
 3360 10e8 7FE3FB78 		mr 3,31
 3361 10ec 48000001 		bl _Unwind_Resume
 3362              	.LEHE56:
 3363              	.LBE3311:
 3364              		.cfi_endproc
 3365              	.LFE1509:
 3366              		.section	.gcc_except_table
 3367              	.LLSDA1509:
 3368 00f2 FF       		.byte	0xff
 3369 00f3 FF       		.byte	0xff
 3370 00f4 01       		.byte	0x1
 3371 00f5 59       		.uleb128 .LLSDACSE1509-.LLSDACSB1509
 3372              	.LLSDACSB1509:
 3373 00f6 48       		.uleb128 .LEHB41-.LFB1509
 3374 00f7 14       		.uleb128 .LEHE41-.LEHB41
 3375 00f8 00       		.uleb128 0
 3376 00f9 00       		.uleb128 0
 3377 00fa 64       		.uleb128 .LEHB42-.LFB1509
 3378 00fb 04       		.uleb128 .LEHE42-.LEHB42
 3379 00fc 8809     		.uleb128 .L297-.LFB1509
 3380 00fe 00       		.uleb128 0
 3381 00ff 74       		.uleb128 .LEHB43-.LFB1509
 3382 0100 04       		.uleb128 .LEHE43-.LEHB43
 3383 0101 8409     		.uleb128 .L298-.LFB1509
 3384 0103 00       		.uleb128 0
 3385 0104 8C01     		.uleb128 .LEHB44-.LFB1509
 3386 0106 04       		.uleb128 .LEHE44-.LEHB44
 3387 0107 E008     		.uleb128 .L299-.LFB1509
 3388 0109 00       		.uleb128 0
 3389 010a CC01     		.uleb128 .LEHB45-.LFB1509
 3390 010c 04       		.uleb128 .LEHE45-.LEHB45
 3391 010d 00       		.uleb128 0
 3392 010e 00       		.uleb128 0
 3393 010f D401     		.uleb128 .LEHB46-.LFB1509
 3394 0111 04       		.uleb128 .LEHE46-.LEHB46
 3395 0112 8C08     		.uleb128 .L300-.LFB1509
 3396 0114 00       		.uleb128 0
 3397 0115 C802     		.uleb128 .LEHB47-.LFB1509
 3398 0117 04       		.uleb128 .LEHE47-.LEHB47
 3399 0118 00       		.uleb128 0
 3400 0119 00       		.uleb128 0
 3401 011a E002     		.uleb128 .LEHB48-.LFB1509
 3402 011c 04       		.uleb128 .LEHE48-.LEHB48
 3403 011d 8C09     		.uleb128 .L301-.LFB1509
 3404 011f 00       		.uleb128 0
 3405 0120 A403     		.uleb128 .LEHB49-.LFB1509
 3406 0122 14       		.uleb128 .LEHE49-.LEHB49
 3407 0123 D407     		.uleb128 .L302-.LFB1509
 3408 0125 00       		.uleb128 0
 3409 0126 C403     		.uleb128 .LEHB50-.LFB1509
 3410 0128 04       		.uleb128 .LEHE50-.LEHB50
 3411 0129 DC07     		.uleb128 .L303-.LFB1509
 3412 012b 00       		.uleb128 0
 3413 012c D403     		.uleb128 .LEHB51-.LFB1509
 3414 012e 04       		.uleb128 .LEHE51-.LEHB51
 3415 012f E007     		.uleb128 .L304-.LFB1509
 3416 0131 00       		.uleb128 0
 3417 0132 E003     		.uleb128 .LEHB52-.LFB1509
 3418 0134 04       		.uleb128 .LEHE52-.LEHB52
 3419 0135 E407     		.uleb128 .L305-.LFB1509
 3420 0137 00       		.uleb128 0
 3421 0138 F803     		.uleb128 .LEHB53-.LFB1509
 3422 013a 04       		.uleb128 .LEHE53-.LEHB53
 3423 013b 8007     		.uleb128 .L306-.LFB1509
 3424 013d 00       		.uleb128 0
 3425 013e BC04     		.uleb128 .LEHB54-.LFB1509
 3426 0140 70       		.uleb128 .LEHE54-.LEHB54
 3427 0141 DC07     		.uleb128 .L303-.LFB1509
 3428 0143 00       		.uleb128 0
 3429 0144 D805     		.uleb128 .LEHB55-.LFB1509
 3430 0146 04       		.uleb128 .LEHE55-.LEHB55
 3431 0147 00       		.uleb128 0
 3432 0148 00       		.uleb128 0
 3433 0149 B007     		.uleb128 .LEHB56-.LFB1509
 3434 014b F001     		.uleb128 .LEHE56-.LEHB56
 3435 014d 00       		.uleb128 0
 3436 014e 00       		.uleb128 0
 3437              	.LLSDACSE1509:
 3438              		.section	".text"
 3439              		.size	_Z15UpdateLanguagesP12UpdateWindow, .-_Z15UpdateLanguagesP12UpdateWindow
 3440              		.align 2
 3441              		.globl _Z11UpdateFilesbP12UpdateWindow
 3442              		.type	_Z11UpdateFilesbP12UpdateWindow, @function
 3443              	_Z11UpdateFilesbP12UpdateWindow:
 3444              	.LFB1504:
 3445              		.loc 1 209 0
 3446              		.cfi_startproc
 3447              		.cfi_personality 0,__gxx_personality_v0
 3448              		.cfi_lsda 0,.LLSDA1504
 3449              	.LVL228:
 3450 10f0 9421FF48 		stwu 1,-184(1)
 3451              	.LCFI34:
 3452              		.cfi_def_cfa_offset 184
 3453 10f4 7C0802A6 		mflr 0
 3454 10f8 938100A8 		stw 28,168(1)
 3455              	.LBB4145:
 3456              		.loc 1 214 0
 3457 10fc 7C9C2379 		mr. 28,4
 3458              		.cfi_offset 28, -16
 3459              		.cfi_register 65, 0
 3460              	.LBE4145:
 3461              		.loc 1 209 0
 3462 1100 934100A0 		stw 26,160(1)
 3463 1104 7C7A1B78 		mr 26,3
 3464              		.cfi_offset 26, -24
 3465 1108 936100A4 		stw 27,164(1)
 3466              	.LBB4846:
 3467              		.loc 1 212 0
 3468 110c 3B600000 		li 27,0
 3469              		.cfi_offset 27, -20
 3470              	.LBE4846:
 3471              		.loc 1 209 0
 3472 1110 900100BC 		stw 0,188(1)
 3473 1114 9321009C 		stw 25,156(1)
 3474 1118 93A100AC 		stw 29,172(1)
 3475 111c 93C100B0 		stw 30,176(1)
 3476 1120 93E100B4 		stw 31,180(1)
 3477              	.LBB4847:
 3478              		.loc 1 214 0
 3479 1124 418205FC 		beq- 0,.L708
 3480              		.cfi_offset 31, -4
 3481              		.cfi_offset 30, -8
 3482              		.cfi_offset 29, -12
 3483              		.cfi_offset 25, -28
 3484              		.cfi_offset 65, 4
 3485              	.LVL229:
 3486              	.L319:
 3487              	.LBB4146:
 3488              	.LBB4147:
 3489              		.file 5 "d:/Projects/SaveGameManager/savegame-manager-gx/trunk/source/Network/../Tools/ErrorLog.h"
 3490              		.loc 5 40 0
 3491 1128 3FC00000 		lis 30,_ZN8ErrorLog8instanceE@ha
 3492 112c 83BE0000 		lwz 29,_ZN8ErrorLog8instanceE@l(30)
 3493 1130 2F9D0000 		cmpwi 7,29,0
 3494 1134 419E003C 		beq- 7,.L320
 3495              	.LVL230:
 3496              	.LBB4148:
 3497              	.LBB4149:
 3498              	.LBB4150:
 3499              		.loc 5 48 0
 3500 1138 7FA3EB78 		mr 3,29
 3501              	.LEHB57:
 3502 113c 48000001 		bl _ZN8ErrorLog5ResetEv
 3503              	.LEHE57:
 3504              	.LVL231:
 3505              	.LBB4151:
 3506              	.LBB4152:
 3507              	.LBB4153:
 3508              	.LBB4154:
 3509              	.LBB4155:
 3510              	.LBB4156:
 3511              		.loc 2 288 0
 3512 1140 813D0004 		lwz 9,4(29)
 3513              	.LBE4156:
 3514              	.LBE4155:
 3515              	.LBE4154:
 3516              	.LBB4157:
 3517              	.LBB4158:
 3518              		.loc 2 235 0
 3519 1144 3FE00000 		lis 31,_ZNSs4_Rep20_S_empty_rep_storageE@ha
 3520 1148 3BFF0000 		la 31,_ZNSs4_Rep20_S_empty_rep_storageE@l(31)
 3521              	.LBE4158:
 3522              	.LBE4157:
 3523              		.loc 2 534 0
 3524 114c 3869FFF4 		addi 3,9,-12
 3525              	.LVL232:
 3526              	.LBB4167:
 3527              	.LBB4165:
 3528              		.loc 2 235 0
 3529 1150 7F83F800 		cmpw 7,3,31
 3530 1154 409E0924 		bne- 7,.L709
 3531              	.LVL233:
 3532              	.L326:
 3533              	.LBE4165:
 3534              	.LBE4167:
 3535              	.LBE4153:
 3536              	.LBE4152:
 3537              	.LBE4151:
 3538              	.LBB4171:
 3539              	.LBB4172:
 3540              	.LBB4173:
 3541              	.LBB4174:
 3542              	.LBB4175:
 3543              	.LBB4176:
 3544              		.loc 2 288 0
 3545 1158 813D0000 		lwz 9,0(29)
 3546              	.LBE4176:
 3547              	.LBE4175:
 3548              	.LBE4174:
 3549              		.loc 2 534 0
 3550 115c 3869FFF4 		addi 3,9,-12
 3551              	.LVL234:
 3552              	.LBB4177:
 3553              	.LBB4178:
 3554              		.loc 2 235 0
 3555 1160 7F83F800 		cmpw 7,3,31
 3556 1164 409E0934 		bne- 7,.L710
 3557              	.LVL235:
 3558              	.L334:
 3559              	.LBE4178:
 3560              	.LBE4177:
 3561              	.LBE4173:
 3562              	.LBE4172:
 3563              	.LBE4171:
 3564              	.LBE4150:
 3565              	.LBE4149:
 3566              	.LBE4148:
 3567              		.loc 5 40 0
 3568 1168 7FA3EB78 		mr 3,29
 3569 116c 48000001 		bl _ZdlPv
 3570              	.LVL236:
 3571              	.L320:
 3572              	.LBE4147:
 3573              	.LBE4146:
 3574              		.loc 1 222 0
 3575 1170 2F9A0000 		cmpwi 7,26,0
 3576              	.LBB4200:
 3577              	.LBB4197:
 3578              		.loc 5 40 0
 3579 1174 38000000 		li 0,0
 3580 1178 901E0000 		stw 0,_ZN8ErrorLog8instanceE@l(30)
 3581              	.LBE4197:
 3582              	.LBE4200:
 3583              		.loc 1 222 0
 3584 117c 409E049C 		bne- 7,.L711
 3585              	.L335:
 3586              		.loc 1 230 0
 3587 1180 3FA00000 		lis 29,Settings@ha
 3588 1184 3BBD0000 		la 29,Settings@l(29)
 3589 1188 A81D051E 		lha 0,1310(29)
 3590 118c 2F800000 		cmpwi 7,0,0
 3591 1190 409D0088 		ble- 7,.L375
 3592              		.loc 1 232 0
 3593 1194 3C600000 		lis 3,.LC9@ha
 3594 1198 3F400000 		lis 26,.LC17@ha
 3595 119c 386300A8 		la 3,.LC9@l(3)
 3596 11a0 3B5A011C 		la 26,.LC17@l(26)
 3597              	.LEHB58:
 3598 11a4 48000001 		bl gettext
 3599 11a8 38A10032 		addi 5,1,50
 3600 11ac 7C641B78 		mr 4,3
 3601 11b0 38610080 		addi 3,1,128
 3602 11b4 48000001 		bl _ZNSsC1EPKcRKSaIcE
 3603              	.LEHE58:
 3604 11b8 3861007C 		addi 3,1,124
 3605 11bc 7F44D378 		mr 4,26
 3606 11c0 38A10031 		addi 5,1,49
 3607              	.LEHB59:
 3608 11c4 48000001 		bl _ZNSsC1EPKcRKSaIcE
 3609              	.LEHE59:
 3610              		.loc 1 232 0 is_stmt 0 discriminator 2
 3611 11c8 7F83E378 		mr 3,28
 3612 11cc 38810080 		addi 4,1,128
 3613 11d0 38A1007C 		addi 5,1,124
 3614              	.LEHB60:
 3615 11d4 48000001 		bl _ZN12UpdateWindow12ShowThrobberESsSs
 3616              	.LEHE60:
 3617              	.LVL237:
 3618              	.LBB4201:
 3619              	.LBB4202:
 3620              	.LBB4203:
 3621              	.LBB4204:
 3622              	.LBB4205:
 3623              	.LBB4206:
 3624              		.loc 2 288 0 is_stmt 1
 3625 11d8 8121007C 		lwz 9,124(1)
 3626              	.LBE4206:
 3627              	.LBE4205:
 3628              	.LBE4204:
 3629              	.LBB4207:
 3630              	.LBB4208:
 3631              		.loc 2 235 0
 3632 11dc 3FE00000 		lis 31,_ZNSs4_Rep20_S_empty_rep_storageE@ha
 3633 11e0 3BFF0000 		la 31,_ZNSs4_Rep20_S_empty_rep_storageE@l(31)
 3634              	.LBE4208:
 3635              	.LBE4207:
 3636              		.loc 2 534 0
 3637 11e4 3869FFF4 		addi 3,9,-12
 3638              	.LVL238:
 3639              	.LBB4217:
 3640              	.LBB4215:
 3641              		.loc 2 235 0
 3642 11e8 7F83F800 		cmpw 7,3,31
 3643 11ec 409E090C 		bne- 7,.L712
 3644              	.LVL239:
 3645              	.L383:
 3646              	.LBE4215:
 3647              	.LBE4217:
 3648              	.LBE4203:
 3649              	.LBE4202:
 3650              	.LBE4201:
 3651              	.LBB4221:
 3652              	.LBB4222:
 3653              	.LBB4223:
 3654              	.LBB4224:
 3655              	.LBB4225:
 3656              	.LBB4226:
 3657              		.loc 2 288 0
 3658 11f0 81210080 		lwz 9,128(1)
 3659              	.LBE4226:
 3660              	.LBE4225:
 3661              	.LBE4224:
 3662              		.loc 2 534 0
 3663 11f4 3869FFF4 		addi 3,9,-12
 3664              	.LVL240:
 3665              	.LBB4227:
 3666              	.LBB4228:
 3667              		.loc 2 235 0
 3668 11f8 7F83F800 		cmpw 7,3,31
 3669 11fc 409E08DC 		bne- 7,.L713
 3670              	.LVL241:
 3671              	.L391:
 3672              	.LEHB61:
 3673              	.LBE4228:
 3674              	.LBE4227:
 3675              	.LBE4223:
 3676              	.LBE4222:
 3677              	.LBE4221:
 3678              		.loc 1 233 0 discriminator 1
 3679 1200 48000001 		bl _Z13UpdateIconPNGv
 3680 1204 2F830000 		cmpwi 7,3,0
 3681 1208 419E02E0 		beq- 7,.L714
 3682              	.LVL242:
 3683              	.L414:
 3684              		.loc 1 235 0
 3685 120c 3C60000F 		lis 3,0xf
 3686 1210 60634240 		ori 3,3,16960
 3687 1214 48000001 		bl usleep
 3688              	.LVL243:
 3689              	.L375:
 3690              		.loc 1 238 0
 3691 1218 A81D0520 		lha 0,1312(29)
 3692 121c 2F800000 		cmpwi 7,0,0
 3693 1220 409D0014 		ble- 7,.L461
 3694              		.loc 1 240 0
 3695 1224 2F800001 		cmpwi 7,0,1
 3696 1228 419E0538 		beq- 7,.L715
 3697              		.loc 1 246 0
 3698 122c 2F800002 		cmpwi 7,0,2
 3699 1230 419E05DC 		beq- 7,.L716
 3700              	.L461:
 3701              	.LBB4239:
 3702              		.loc 1 253 0
 3703 1234 A81D0522 		lha 0,1314(29)
 3704 1238 2F800000 		cmpwi 7,0,0
 3705 123c 419E0118 		beq- 7,.L507
 3706              	.LBB4240:
 3707              		.loc 1 255 0
 3708 1240 3C600000 		lis 3,.LC19@ha
 3709 1244 3863013C 		la 3,.LC19@l(3)
 3710 1248 48000001 		bl gettext
 3711 124c 38A1002A 		addi 5,1,42
 3712 1250 7C641B78 		mr 4,3
 3713 1254 38610060 		addi 3,1,96
 3714 1258 48000001 		bl _ZNSsC1EPKcRKSaIcE
 3715              	.LEHE61:
 3716              	.LVL244:
 3717              	.LBB4241:
 3718              	.LBB4242:
 3719              	.LBB4243:
 3720              		.loc 2 1000 0
 3721 125c 3C800000 		lis 4,.LC20@ha
 3722 1260 38610060 		addi 3,1,96
 3723              	.LVL245:
 3724 1264 38840150 		la 4,.LC20@l(4)
 3725 1268 38A0000C 		li 5,12
 3726              	.LEHB62:
 3727 126c 48000001 		bl _ZNSs6appendEPKcj
 3728              	.LVL246:
 3729              	.LBE4243:
 3730              	.LBE4242:
 3731              	.LBE4241:
 3732              		.loc 1 257 0
 3733 1270 3861005C 		addi 3,1,92
 3734 1274 38810060 		addi 4,1,96
 3735              	.LVL247:
 3736 1278 48000001 		bl _ZNSsC1ERKSs
 3737              	.LEHE62:
 3738              	.LVL248:
 3739              		.loc 1 257 0 is_stmt 0 discriminator 1
 3740 127c 3FA00000 		lis 29,.LC8@ha
 3741 1280 38610058 		addi 3,1,88
 3742 1284 3BBD009C 		la 29,.LC8@l(29)
 3743 1288 38A10029 		addi 5,1,41
 3744 128c 7FA4EB78 		mr 4,29
 3745              	.LEHB63:
 3746 1290 48000001 		bl _ZNSsC1EPKcRKSaIcE
 3747              	.LEHE63:
 3748              		.loc 1 257 0 discriminator 2
 3749 1294 7F83E378 		mr 3,28
 3750 1298 3881005C 		addi 4,1,92
 3751 129c 38A10058 		addi 5,1,88
 3752              	.LEHB64:
 3753 12a0 48000001 		bl _ZN12UpdateWindow12ShowThrobberESsSs
 3754              	.LEHE64:
 3755              	.LVL249:
 3756              	.LBB4244:
 3757              	.LBB4245:
 3758              	.LBB4246:
 3759              	.LBB4247:
 3760              	.LBB4248:
 3761              	.LBB4249:
 3762              		.loc 2 288 0 is_stmt 1
 3763 12a4 81210058 		lwz 9,88(1)
 3764              	.LBE4249:
 3765              	.LBE4248:
 3766              	.LBE4247:
 3767              	.LBB4250:
 3768              	.LBB4251:
 3769              		.loc 2 235 0
 3770 12a8 3FE00000 		lis 31,_ZNSs4_Rep20_S_empty_rep_storageE@ha
 3771 12ac 3BFF0000 		la 31,_ZNSs4_Rep20_S_empty_rep_storageE@l(31)
 3772              	.LBE4251:
 3773              	.LBE4250:
 3774              		.loc 2 534 0
 3775 12b0 3869FFF4 		addi 3,9,-12
 3776              	.LVL250:
 3777              	.LBB4260:
 3778              	.LBB4258:
 3779              		.loc 2 235 0
 3780 12b4 7F83F800 		cmpw 7,3,31
 3781 12b8 409E0620 		bne- 7,.L717
 3782              	.LVL251:
 3783              	.L472:
 3784              	.LBE4258:
 3785              	.LBE4260:
 3786              	.LBE4246:
 3787              	.LBE4245:
 3788              	.LBE4244:
 3789              	.LBB4264:
 3790              	.LBB4265:
 3791              	.LBB4266:
 3792              	.LBB4267:
 3793              	.LBB4268:
 3794              	.LBB4269:
 3795              		.loc 2 288 0
 3796 12bc 8121005C 		lwz 9,92(1)
 3797              	.LBE4269:
 3798              	.LBE4268:
 3799              	.LBE4267:
 3800              		.loc 2 534 0
 3801 12c0 3869FFF4 		addi 3,9,-12
 3802              	.LVL252:
 3803              	.LBB4270:
 3804              	.LBB4271:
 3805              		.loc 2 235 0
 3806 12c4 7F83F800 		cmpw 7,3,31
 3807 12c8 409E05F0 		bne- 7,.L718
 3808              	.LVL253:
 3809              	.L478:
 3810              	.LBE4271:
 3811              	.LBE4270:
 3812              	.LBE4266:
 3813              	.LBE4265:
 3814              	.LBE4264:
 3815              		.loc 1 258 0 discriminator 1
 3816 12cc 7F83E378 		mr 3,28
 3817              	.LEHB65:
 3818 12d0 48000001 		bl _Z13UpdateGameTDBP12UpdateWindow
 3819              	.LEHE65:
 3820 12d4 2F830000 		cmpwi 7,3,0
 3821 12d8 409E006C 		bne- 7,.L502
 3822              	.LBB4282:
 3823              	.LBB4283:
 3824              		.loc 5 39 0
 3825 12dc 835E0000 		lwz 26,_ZN8ErrorLog8instanceE@l(30)
 3826 12e0 2F9A0000 		cmpwi 7,26,0
 3827 12e4 419E06CC 		beq- 7,.L719
 3828              	.L480:
 3829              	.LBE4283:
 3830              	.LBE4282:
 3831              		.loc 1 259 0
 3832 12e8 38610054 		addi 3,1,84
 3833 12ec 7FA4EB78 		mr 4,29
 3834 12f0 38A10028 		addi 5,1,40
 3835              	.LEHB66:
 3836 12f4 48000001 		bl _ZNSsC1EPKcRKSaIcE
 3837              	.LEHE66:
 3838              		.loc 1 259 0 is_stmt 0 discriminator 2
 3839 12f8 3C600000 		lis 3,.LC16@ha
 3840 12fc 3863010C 		la 3,.LC16@l(3)
 3841              	.LEHB67:
 3842 1300 48000001 		bl gettext
 3843              	.LEHE67:
 3844 1304 7C641B78 		mr 4,3
 3845 1308 38A10027 		addi 5,1,39
 3846 130c 38610050 		addi 3,1,80
 3847              	.LEHB68:
 3848 1310 48000001 		bl _ZNSsC1EPKcRKSaIcE
 3849              	.LEHE68:
 3850              		.loc 1 259 0 discriminator 4
 3851 1314 7F43D378 		mr 3,26
 3852 1318 38810054 		addi 4,1,84
 3853 131c 38A10050 		addi 5,1,80
 3854              	.LEHB69:
 3855 1320 48000001 		bl _ZN8ErrorLog8AddEntryESsSs
 3856              	.LEHE69:
 3857              	.LVL254:
 3858              	.LBB4301:
 3859              	.LBB4302:
 3860              	.LBB4303:
 3861              	.LBB4304:
 3862              	.LBB4305:
 3863              	.LBB4306:
 3864              		.loc 2 288 0 is_stmt 1
 3865 1324 81210050 		lwz 9,80(1)
 3866              	.LBE4306:
 3867              	.LBE4305:
 3868              	.LBE4304:
 3869              		.loc 2 534 0
 3870 1328 3869FFF4 		addi 3,9,-12
 3871              	.LVL255:
 3872              	.LBB4307:
 3873              	.LBB4308:
 3874              		.loc 2 235 0
 3875 132c 7F83F800 		cmpw 7,3,31
 3876 1330 409E08C8 		bne- 7,.L720
 3877              	.LVL256:
 3878              	.L495:
 3879              	.LBE4308:
 3880              	.LBE4307:
 3881              	.LBE4303:
 3882              	.LBE4302:
 3883              	.LBE4301:
 3884              	.LBB4319:
 3885              	.LBB4320:
 3886              	.LBB4321:
 3887              	.LBB4322:
 3888              	.LBB4323:
 3889              	.LBB4324:
 3890              		.loc 2 288 0
 3891 1334 81210054 		lwz 9,84(1)
 3892              	.LBE4324:
 3893              	.LBE4323:
 3894              	.LBE4322:
 3895              		.loc 2 534 0
 3896 1338 3869FFF4 		addi 3,9,-12
 3897              	.LVL257:
 3898              	.LBB4325:
 3899              	.LBB4326:
 3900              		.loc 2 235 0
 3901 133c 7F83F800 		cmpw 7,3,31
 3902 1340 409E05F8 		bne- 7,.L721
 3903              	.LVL258:
 3904              	.L502:
 3905              	.LBE4326:
 3906              	.LBE4325:
 3907              	.LBE4321:
 3908              	.LBE4320:
 3909              	.LBE4319:
 3910              	.LBB4337:
 3911              	.LBB4338:
 3912              	.LBB4339:
 3913              	.LBB4340:
 3914              	.LBB4341:
 3915              	.LBB4342:
 3916              		.loc 2 288 0
 3917 1344 81210060 		lwz 9,96(1)
 3918              	.LBE4342:
 3919              	.LBE4341:
 3920              	.LBE4340:
 3921              		.loc 2 534 0
 3922 1348 3869FFF4 		addi 3,9,-12
 3923              	.LVL259:
 3924              	.LBB4343:
 3925              	.LBB4344:
 3926              		.loc 2 235 0
 3927 134c 7F83F800 		cmpw 7,3,31
 3928 1350 409E05A8 		bne- 7,.L722
 3929              	.LVL260:
 3930              	.L507:
 3931              	.LBE4344:
 3932              	.LBE4343:
 3933              	.LBE4339:
 3934              	.LBE4338:
 3935              	.LBE4337:
 3936              	.LBE4240:
 3937              	.LBE4239:
 3938              	.LBB4370:
 3939              	.LBB4371:
 3940              	.LBB4372:
 3941              		.loc 5 39 0
 3942 1354 83FE0000 		lwz 31,_ZN8ErrorLog8instanceE@l(30)
 3943 1358 2F9F0000 		cmpwi 7,31,0
 3944 135c 419E03DC 		beq- 7,.L723
 3945              	.L508:
 3946              	.LBE4372:
 3947              	.LBE4371:
 3948              		.loc 1 262 0
 3949 1360 801F0008 		lwz 0,8(31)
 3950 1364 2F800000 		cmpwi 7,0,0
 3951 1368 409D0130 		ble- 7,.L515
 3952              	.LBB4387:
 3953              		.loc 1 264 0
 3954 136c 3C600000 		lis 3,.LC21@ha
 3955 1370 38630160 		la 3,.LC21@l(3)
 3956              	.LEHB70:
 3957 1374 48000001 		bl gettext
 3958 1378 38A10026 		addi 5,1,38
 3959 137c 7C641B78 		mr 4,3
 3960 1380 3861004C 		addi 3,1,76
 3961 1384 48000001 		bl _ZNSsC1EPKcRKSaIcE
 3962              	.LEHE70:
 3963 1388 3C600000 		lis 3,.LC22@ha
 3964 138c 38630168 		la 3,.LC22@l(3)
 3965              	.LEHB71:
 3966 1390 48000001 		bl gettext
 3967              	.LEHE71:
 3968 1394 7C641B78 		mr 4,3
 3969 1398 38A10025 		addi 5,1,37
 3970 139c 38610048 		addi 3,1,72
 3971              	.LEHB72:
 3972 13a0 48000001 		bl _ZNSsC1EPKcRKSaIcE
 3973              	.LEHE72:
 3974              		.loc 1 264 0 is_stmt 0 discriminator 3
 3975 13a4 3C600000 		lis 3,.LC23@ha
 3976 13a8 38630178 		la 3,.LC23@l(3)
 3977              	.LEHB73:
 3978 13ac 48000001 		bl gettext
 3979              	.LEHE73:
 3980 13b0 7C641B78 		mr 4,3
 3981 13b4 38A10024 		addi 5,1,36
 3982 13b8 38610044 		addi 3,1,68
 3983              	.LEHB74:
 3984 13bc 48000001 		bl _ZNSsC1EPKcRKSaIcE
 3985              	.LEHE74:
 3986              		.loc 1 264 0 discriminator 5
 3987 13c0 3C600000 		lis 3,.LC24@ha
 3988 13c4 3863017C 		la 3,.LC24@l(3)
 3989              	.LEHB75:
 3990 13c8 48000001 		bl gettext
 3991              	.LEHE75:
 3992 13cc 7C641B78 		mr 4,3
 3993 13d0 38A10023 		addi 5,1,35
 3994 13d4 38610040 		addi 3,1,64
 3995              	.LEHB76:
 3996 13d8 48000001 		bl _ZNSsC1EPKcRKSaIcE
 3997              	.LEHE76:
 3998              		.loc 1 264 0 discriminator 7
 3999 13dc 3FE00000 		lis 31,.LC25@ha
 4000 13e0 3861003C 		addi 3,1,60
 4001 13e4 3BFF0184 		la 31,.LC25@l(31)
 4002 13e8 38A10022 		addi 5,1,34
 4003 13ec 7FE4FB78 		mr 4,31
 4004              	.LEHB77:
 4005 13f0 48000001 		bl _ZNSsC1EPKcRKSaIcE
 4006              	.LEHE77:
 4007              		.loc 1 264 0 discriminator 8
 4008 13f4 38610038 		addi 3,1,56
 4009 13f8 7FE4FB78 		mr 4,31
 4010 13fc 38A10021 		addi 5,1,33
 4011              	.LEHB78:
 4012 1400 48000001 		bl _ZNSsC1EPKcRKSaIcE
 4013              	.LEHE78:
 4014              		.loc 1 264 0 discriminator 9
 4015 1404 7F83E378 		mr 3,28
 4016 1408 3881004C 		addi 4,1,76
 4017 140c 38A10048 		addi 5,1,72
 4018 1410 38C10044 		addi 6,1,68
 4019 1414 38E10040 		addi 7,1,64
 4020 1418 3901003C 		addi 8,1,60
 4021 141c 39210038 		addi 9,1,56
 4022              	.LEHB79:
 4023 1420 48000001 		bl _ZN12UpdateWindow6ChooseESsSsSsSsSsSs
 4024              	.LEHE79:
 4025              	.LBB4388:
 4026              	.LBB4389:
 4027              	.LBB4390:
 4028              	.LBB4391:
 4029              	.LBB4392:
 4030              	.LBB4393:
 4031              		.loc 2 288 0 is_stmt 1 discriminator 9
 4032 1424 81210038 		lwz 9,56(1)
 4033              	.LBE4393:
 4034              	.LBE4392:
 4035              	.LBE4391:
 4036              	.LBB4394:
 4037              	.LBB4395:
 4038              		.loc 2 235 0 discriminator 9
 4039 1428 3FE00000 		lis 31,_ZNSs4_Rep20_S_empty_rep_storageE@ha
 4040              	.LBE4395:
 4041              	.LBE4394:
 4042              	.LBE4390:
 4043              	.LBE4389:
 4044              	.LBE4388:
 4045              		.loc 1 264 0 discriminator 9
 4046 142c 7C7D1B78 		mr 29,3
 4047              	.LVL261:
 4048              	.LBB4412:
 4049              	.LBB4410:
 4050              	.LBB4408:
 4051              	.LBB4405:
 4052              	.LBB4402:
 4053              		.loc 2 235 0 discriminator 9
 4054 1430 3BFF0000 		la 31,_ZNSs4_Rep20_S_empty_rep_storageE@l(31)
 4055              	.LBE4402:
 4056              	.LBE4405:
 4057              		.loc 2 534 0 discriminator 9
 4058 1434 3869FFF4 		addi 3,9,-12
 4059              	.LVL262:
 4060              	.LBB4406:
 4061              	.LBB4403:
 4062              		.loc 2 235 0 discriminator 9
 4063 1438 7F83F800 		cmpw 7,3,31
 4064 143c 409E075C 		bne- 7,.L724
 4065              	.LVL263:
 4066              	.L523:
 4067              	.LBE4403:
 4068              	.LBE4406:
 4069              	.LBE4408:
 4070              	.LBE4410:
 4071              	.LBE4412:
 4072              	.LBB4413:
 4073              	.LBB4414:
 4074              	.LBB4415:
 4075              	.LBB4416:
 4076              	.LBB4417:
 4077              	.LBB4418:
 4078              		.loc 2 288 0
 4079 1440 8121003C 		lwz 9,60(1)
 4080              	.LBE4418:
 4081              	.LBE4417:
 4082              	.LBE4416:
 4083              		.loc 2 534 0
 4084 1444 3869FFF4 		addi 3,9,-12
 4085              	.LVL264:
 4086              	.LBB4419:
 4087              	.LBB4420:
 4088              		.loc 2 235 0
 4089 1448 7F83F800 		cmpw 7,3,31
 4090 144c 409E072C 		bne- 7,.L725
 4091              	.LVL265:
 4092              	.L531:
 4093              	.LBE4420:
 4094              	.LBE4419:
 4095              	.LBE4415:
 4096              	.LBE4414:
 4097              	.LBE4413:
 4098              	.LBB4431:
 4099              	.LBB4432:
 4100              	.LBB4433:
 4101              	.LBB4434:
 4102              	.LBB4435:
 4103              	.LBB4436:
 4104              		.loc 2 288 0
 4105 1450 81210040 		lwz 9,64(1)
 4106              	.LBE4436:
 4107              	.LBE4435:
 4108              	.LBE4434:
 4109              		.loc 2 534 0
 4110 1454 3869FFF4 		addi 3,9,-12
 4111              	.LVL266:
 4112              	.LBB4437:
 4113              	.LBB4438:
 4114              		.loc 2 235 0
 4115 1458 7F83F800 		cmpw 7,3,31
 4116 145c 409E06FC 		bne- 7,.L726
 4117              	.LVL267:
 4118              	.L539:
 4119              	.LBE4438:
 4120              	.LBE4437:
 4121              	.LBE4433:
 4122              	.LBE4432:
 4123              	.LBE4431:
 4124              	.LBB4449:
 4125              	.LBB4450:
 4126              	.LBB4451:
 4127              	.LBB4452:
 4128              	.LBB4453:
 4129              	.LBB4454:
 4130              		.loc 2 288 0
 4131 1460 81210044 		lwz 9,68(1)
 4132              	.LBE4454:
 4133              	.LBE4453:
 4134              	.LBE4452:
 4135              		.loc 2 534 0
 4136 1464 3869FFF4 		addi 3,9,-12
 4137              	.LVL268:
 4138              	.LBB4455:
 4139              	.LBB4456:
 4140              		.loc 2 235 0
 4141 1468 7F83F800 		cmpw 7,3,31
 4142 146c 409E06CC 		bne- 7,.L727
 4143              	.LVL269:
 4144              	.L547:
 4145              	.LBE4456:
 4146              	.LBE4455:
 4147              	.LBE4451:
 4148              	.LBE4450:
 4149              	.LBE4449:
 4150              	.LBB4467:
 4151              	.LBB4468:
 4152              	.LBB4469:
 4153              	.LBB4470:
 4154              	.LBB4471:
 4155              	.LBB4472:
 4156              		.loc 2 288 0
 4157 1470 81210048 		lwz 9,72(1)
 4158              	.LBE4472:
 4159              	.LBE4471:
 4160              	.LBE4470:
 4161              		.loc 2 534 0
 4162 1474 3869FFF4 		addi 3,9,-12
 4163              	.LVL270:
 4164              	.LBB4473:
 4165              	.LBB4474:
 4166              		.loc 2 235 0
 4167 1478 7F83F800 		cmpw 7,3,31
 4168 147c 409E069C 		bne- 7,.L728
 4169              	.LVL271:
 4170              	.L555:
 4171              	.LBE4474:
 4172              	.LBE4473:
 4173              	.LBE4469:
 4174              	.LBE4468:
 4175              	.LBE4467:
 4176              	.LBB4485:
 4177              	.LBB4486:
 4178              	.LBB4487:
 4179              	.LBB4488:
 4180              	.LBB4489:
 4181              	.LBB4490:
 4182              		.loc 2 288 0
 4183 1480 8121004C 		lwz 9,76(1)
 4184              	.LBE4490:
 4185              	.LBE4489:
 4186              	.LBE4488:
 4187              		.loc 2 534 0
 4188 1484 3869FFF4 		addi 3,9,-12
 4189              	.LVL272:
 4190              	.LBB4491:
 4191              	.LBB4492:
 4192              		.loc 2 235 0
 4193 1488 7F83F800 		cmpw 7,3,31
 4194 148c 409E062C 		bne- 7,.L729
 4195              	.LVL273:
 4196              	.L563:
 4197              	.LBE4492:
 4198              	.LBE4491:
 4199              	.LBE4487:
 4200              	.LBE4486:
 4201              	.LBE4485:
 4202              		.loc 1 265 0 discriminator 10
 4203 1490 2F9D0001 		cmpwi 7,29,1
 4204 1494 419E0274 		beq- 7,.L730
 4205              	.LVL274:
 4206              	.L515:
 4207              	.LBE4387:
 4208              	.LBE4370:
 4209              		.loc 1 269 0
 4210 1498 2F9B0000 		cmpwi 7,27,0
 4211 149c 409E00D4 		bne- 7,.L731
 4212              	.LBB4535:
 4213              	.LBB4536:
 4214              		.loc 5 39 0
 4215 14a0 83FE0000 		lwz 31,_ZN8ErrorLog8instanceE@l(30)
 4216 14a4 2F9F0000 		cmpwi 7,31,0
 4217 14a8 419E0110 		beq- 7,.L732
 4218              	.L577:
 4219              	.LBE4536:
 4220              	.LBE4535:
 4221              		.loc 1 275 0
 4222 14ac 813F0008 		lwz 9,8(31)
 4223              	.LBE4847:
 4224              		.loc 1 276 0
 4225 14b0 8321009C 		lwz 25,156(1)
 4226              	.LBB4848:
 4227              		.loc 1 275 0
 4228 14b4 3809FFFF 		addi 0,9,-1
 4229              	.LBE4848:
 4230              		.loc 1 276 0
 4231 14b8 834100A0 		lwz 26,160(1)
 4232              	.LBB4849:
 4233              		.loc 1 275 0
 4234 14bc 7C094B78 		or 9,0,9
 4235              	.LBE4849:
 4236              		.loc 1 276 0
 4237 14c0 800100BC 		lwz 0,188(1)
 4238 14c4 836100A4 		lwz 27,164(1)
 4239              	.LVL275:
 4240 14c8 55230FFE 		srwi 3,9,31
 4241 14cc 7C0803A6 		mtlr 0
 4242 14d0 838100A8 		lwz 28,168(1)
 4243              	.LVL276:
 4244 14d4 83A100AC 		lwz 29,172(1)
 4245 14d8 83C100B0 		lwz 30,176(1)
 4246 14dc 83E100B4 		lwz 31,180(1)
 4247 14e0 382100B8 		addi 1,1,184
 4248              		.cfi_remember_state
 4249              	.LCFI35:
 4250              		.cfi_def_cfa_offset 0
 4251              		.cfi_restore 31
 4252              		.cfi_restore 30
 4253              		.cfi_restore 29
 4254              		.cfi_restore 28
 4255              		.cfi_restore 27
 4256              		.cfi_restore 26
 4257              		.cfi_restore 25
 4258 14e4 4E800020 		blr
 4259              	.LVL277:
 4260              	.L714:
 4261              	.LCFI36:
 4262              		.cfi_restore_state
 4263              	.LBB4850:
 4264              	.LBB4552:
 4265              	.LBB4553:
 4266              		.loc 5 39 0
 4267 14e8 833E0000 		lwz 25,_ZN8ErrorLog8instanceE@l(30)
 4268 14ec 2F990000 		cmpwi 7,25,0
 4269 14f0 419E0498 		beq- 7,.L733
 4270              	.L393:
 4271              	.LBE4553:
 4272              	.LBE4552:
 4273              		.loc 1 234 0
 4274 14f4 38610078 		addi 3,1,120
 4275 14f8 7F44D378 		mr 4,26
 4276 14fc 38A10030 		addi 5,1,48
 4277              	.LEHB80:
 4278 1500 48000001 		bl _ZNSsC1EPKcRKSaIcE
 4279              	.LEHE80:
 4280 1504 3C600000 		lis 3,.LC16@ha
 4281 1508 3863010C 		la 3,.LC16@l(3)
 4282              	.LEHB81:
 4283 150c 48000001 		bl gettext
 4284              	.LEHE81:
 4285 1510 7C641B78 		mr 4,3
 4286 1514 38A1002F 		addi 5,1,47
 4287 1518 38610074 		addi 3,1,116
 4288              	.LEHB82:
 4289 151c 48000001 		bl _ZNSsC1EPKcRKSaIcE
 4290              	.LEHE82:
 4291              		.loc 1 234 0 is_stmt 0 discriminator 3
 4292 1520 7F23CB78 		mr 3,25
 4293 1524 38810078 		addi 4,1,120
 4294 1528 38A10074 		addi 5,1,116
 4295              	.LEHB83:
 4296 152c 48000001 		bl _ZN8ErrorLog8AddEntryESsSs
 4297              	.LEHE83:
 4298              	.LVL278:
 4299              	.LBB4571:
 4300              	.LBB4572:
 4301              	.LBB4573:
 4302              	.LBB4574:
 4303              	.LBB4575:
 4304              	.LBB4576:
 4305              		.loc 2 288 0 is_stmt 1
 4306 1530 81210074 		lwz 9,116(1)
 4307              	.LBE4576:
 4308              	.LBE4575:
 4309              	.LBE4574:
 4310              		.loc 2 534 0
 4311 1534 3869FFF4 		addi 3,9,-12
 4312              	.LVL279:
 4313              	.LBB4577:
 4314              	.LBB4578:
 4315              		.loc 2 235 0
 4316 1538 7F83F800 		cmpw 7,3,31
 4317 153c 409E067C 		bne- 7,.L734
 4318              	.LVL280:
 4319              	.L407:
 4320              	.LBE4578:
 4321              	.LBE4577:
 4322              	.LBE4573:
 4323              	.LBE4572:
 4324              	.LBE4571:
 4325              	.LBB4589:
 4326              	.LBB4590:
 4327              	.LBB4591:
 4328              	.LBB4592:
 4329              	.LBB4593:
 4330              	.LBB4594:
 4331              		.loc 2 288 0
 4332 1540 81210078 		lwz 9,120(1)
 4333              	.LBE4594:
 4334              	.LBE4593:
 4335              	.LBE4592:
 4336              		.loc 2 534 0
 4337 1544 3869FFF4 		addi 3,9,-12
 4338              	.LVL281:
 4339              	.LBB4595:
 4340              	.LBB4596:
 4341              		.loc 2 235 0
 4342 1548 7F83F800 		cmpw 7,3,31
 4343 154c 419EFCC0 		beq+ 7,.L414
 4344              	.LVL282:
 4345              	.LBB4597:
 4346              	.LBB4598:
 4347              	.LBB4599:
 4348              		.loc 3 66 0
 4349 1550 8169FFFC 		lwz 11,-4(9)
 4350              	.LVL283:
 4351              	.LBE4599:
 4352              	.LBE4598:
 4353              	.LBE4597:
 4354              		.loc 2 240 0
 4355 1554 2F8B0000 		cmpwi 7,11,0
 4356              	.LBB4602:
 4357              	.LBB4601:
 4358              	.LBB4600:
 4359              		.loc 3 67 0
 4360 1558 396BFFFF 		addi 11,11,-1
 4361 155c 9169FFFC 		stw 11,-4(9)
 4362              	.LBE4600:
 4363              	.LBE4601:
 4364              	.LBE4602:
 4365              		.loc 2 240 0
 4366 1560 419DFCAC 		bgt+ 7,.L414
 4367              		.loc 2 244 0
 4368 1564 38810017 		addi 4,1,23
 4369 1568 48000001 		bl _ZNSs4_Rep10_M_destroyERKSaIcE
 4370              	.LVL284:
 4371 156c 4BFFFCA0 		b .L414
 4372              	.LVL285:
 4373              	.L731:
 4374              	.LBE4596:
 4375              	.LBE4595:
 4376              	.LBE4591:
 4377              	.LBE4590:
 4378              	.LBE4589:
 4379              	.LBB4603:
 4380              	.LBB4604:
 4381              		.file 6 "d:/Projects/SaveGameManager/savegame-manager-gx/trunk/source/Network/../Controls/Applicat
 4382              		.loc 6 27 0
 4383 1570 3FA00000 		lis 29,_ZN11Application8instanceE@ha
 4384 1574 83FD0000 		lwz 31,_ZN11Application8instanceE@l(29)
 4385 1578 2F9F0000 		cmpwi 7,31,0
 4386 157c 419E03F4 		beq- 7,.L735
 4387              	.L572:
 4388              	.LBE4604:
 4389              	.LBE4603:
 4390              		.loc 1 271 0
 4391 1580 7FE3FB78 		mr 3,31
 4392 1584 7F84E378 		mr 4,28
 4393              	.LEHB84:
 4394 1588 48000001 		bl _ZN11Application13PushForDeleteEP10GuiElement
 4395              	.LBB4606:
 4396              	.LBB4607:
 4397              		.loc 6 27 0
 4398 158c 83FD0000 		lwz 31,_ZN11Application8instanceE@l(29)
 4399 1590 2F9F0000 		cmpwi 7,31,0
 4400 1594 419E03C4 		beq- 7,.L736
 4401              	.L574:
 4402              	.LBE4607:
 4403              	.LBE4606:
 4404              		.loc 1 272 0
 4405 1598 813F0000 		lwz 9,0(31)
 4406 159c 7FE3FB78 		mr 3,31
 4407 15a0 800900D8 		lwz 0,216(9)
 4408 15a4 7C0903A6 		mtctr 0
 4409 15a8 4E800421 		bctrl
 4410              	.LBB4610:
 4411              	.LBB4550:
 4412              		.loc 5 39 0
 4413 15ac 83FE0000 		lwz 31,_ZN8ErrorLog8instanceE@l(30)
 4414 15b0 2F9F0000 		cmpwi 7,31,0
 4415 15b4 409EFEF8 		bne+ 7,.L577
 4416              	.L732:
 4417 15b8 3860000C 		li 3,12
 4418 15bc 48000001 		bl _Znwj
 4419              	.LEHE84:
 4420              	.LBB4537:
 4421              	.LBB4538:
 4422              	.LBB4539:
 4423              	.LBB4540:
 4424              	.LBB4541:
 4425              		.loc 2 270 0
 4426 15c0 3D200000 		lis 9,_ZNSs4_Rep20_S_empty_rep_storageE+12@ha
 4427 15c4 3809000C 		la 0,_ZNSs4_Rep20_S_empty_rep_storageE+12@l(9)
 4428              	.LBE4541:
 4429              	.LBE4540:
 4430              	.LBE4539:
 4431              	.LBE4538:
 4432              	.LBE4537:
 4433              		.loc 5 39 0
 4434 15c8 7C7F1B78 		mr 31,3
 4435              	.LVL286:
 4436              	.LBB4549:
 4437              	.LBB4548:
 4438              	.LBB4544:
 4439              	.LBB4543:
 4440              	.LBB4542:
 4441              		.loc 2 270 0
 4442 15cc 90030000 		stw 0,0(3)
 4443              	.LVL287:
 4444              	.LBE4542:
 4445              	.LBE4543:
 4446              	.LBE4544:
 4447              	.LBB4545:
 4448              	.LBB4546:
 4449              	.LBB4547:
 4450 15d0 90030004 		stw 0,4(3)
 4451              	.LEHB85:
 4452              	.LBE4547:
 4453              	.LBE4546:
 4454              	.LBE4545:
 4455              		.loc 5 47 0
 4456 15d4 48000001 		bl _ZN8ErrorLog5ResetEv
 4457              	.LEHE85:
 4458              	.LVL288:
 4459              	.LBE4548:
 4460              	.LBE4549:
 4461              	.LBE4550:
 4462              	.LBE4610:
 4463              		.loc 1 275 0
 4464 15d8 813F0008 		lwz 9,8(31)
 4465              	.LBB4611:
 4466              	.LBB4551:
 4467              		.loc 5 39 0
 4468 15dc 93FE0000 		stw 31,_ZN8ErrorLog8instanceE@l(30)
 4469              	.LBE4551:
 4470              	.LBE4611:
 4471              		.loc 1 275 0
 4472 15e0 3809FFFF 		addi 0,9,-1
 4473              	.LBE4850:
 4474              		.loc 1 276 0
 4475 15e4 8321009C 		lwz 25,156(1)
 4476              	.LBB4851:
 4477              		.loc 1 275 0
 4478 15e8 7C094B78 		or 9,0,9
 4479              	.LBE4851:
 4480              		.loc 1 276 0
 4481 15ec 800100BC 		lwz 0,188(1)
 4482 15f0 834100A0 		lwz 26,160(1)
 4483 15f4 55230FFE 		srwi 3,9,31
 4484 15f8 7C0803A6 		mtlr 0
 4485 15fc 836100A4 		lwz 27,164(1)
 4486              	.LVL289:
 4487 1600 838100A8 		lwz 28,168(1)
 4488              	.LVL290:
 4489 1604 83A100AC 		lwz 29,172(1)
 4490 1608 83C100B0 		lwz 30,176(1)
 4491 160c 83E100B4 		lwz 31,180(1)
 4492              	.LVL291:
 4493 1610 382100B8 		addi 1,1,184
 4494              		.cfi_remember_state
 4495              		.cfi_restore 25
 4496              		.cfi_restore 26
 4497              		.cfi_restore 27
 4498              		.cfi_restore 28
 4499              		.cfi_restore 29
 4500              		.cfi_restore 30
 4501              		.cfi_restore 31
 4502              	.LCFI37:
 4503              		.cfi_def_cfa_offset 0
 4504 1614 4E800020 		blr
 4505              	.LVL292:
 4506              	.L711:
 4507              	.LCFI38:
 4508              		.cfi_restore_state
 4509              	.LBB4852:
 4510              		.loc 1 224 0
 4511 1618 3C600000 		lis 3,.LC9@ha
 4512 161c 3FA00000 		lis 29,.LC15@ha
 4513 1620 386300A8 		la 3,.LC9@l(3)
 4514 1624 3BBD0100 		la 29,.LC15@l(29)
 4515              	.LEHB86:
 4516 1628 48000001 		bl gettext
 4517 162c 38A10036 		addi 5,1,54
 4518 1630 7C641B78 		mr 4,3
 4519 1634 38610090 		addi 3,1,144
 4520 1638 48000001 		bl _ZNSsC1EPKcRKSaIcE
 4521              	.LEHE86:
 4522 163c 3861008C 		addi 3,1,140
 4523 1640 7FA4EB78 		mr 4,29
 4524 1644 38A10035 		addi 5,1,53
 4525              	.LEHB87:
 4526 1648 48000001 		bl _ZNSsC1EPKcRKSaIcE
 4527              	.LEHE87:
 4528              		.loc 1 224 0 is_stmt 0 discriminator 2
 4529 164c 7F83E378 		mr 3,28
 4530 1650 38810090 		addi 4,1,144
 4531 1654 38A1008C 		addi 5,1,140
 4532              	.LEHB88:
 4533 1658 48000001 		bl _ZN12UpdateWindow12ShowThrobberESsSs
 4534              	.LEHE88:
 4535              	.LVL293:
 4536              	.LBB4612:
 4537              	.LBB4613:
 4538              	.LBB4614:
 4539              	.LBB4615:
 4540              	.LBB4616:
 4541              	.LBB4617:
 4542              		.loc 2 288 0 is_stmt 1
 4543 165c 8121008C 		lwz 9,140(1)
 4544              	.LBE4617:
 4545              	.LBE4616:
 4546              	.LBE4615:
 4547              	.LBB4618:
 4548              	.LBB4619:
 4549              		.loc 2 235 0
 4550 1660 3FE00000 		lis 31,_ZNSs4_Rep20_S_empty_rep_storageE@ha
 4551 1664 3BFF0000 		la 31,_ZNSs4_Rep20_S_empty_rep_storageE@l(31)
 4552              	.LBE4619:
 4553              	.LBE4618:
 4554              		.loc 2 534 0
 4555 1668 3869FFF4 		addi 3,9,-12
 4556              	.LVL294:
 4557              	.LBB4628:
 4558              	.LBB4626:
 4559              		.loc 2 235 0
 4560 166c 7F83F800 		cmpw 7,3,31
 4561 1670 409E05A8 		bne- 7,.L737
 4562              	.LVL295:
 4563              	.L343:
 4564              	.LBE4626:
 4565              	.LBE4628:
 4566              	.LBE4614:
 4567              	.LBE4613:
 4568              	.LBE4612:
 4569              	.LBB4632:
 4570              	.LBB4633:
 4571              	.LBB4634:
 4572              	.LBB4635:
 4573              	.LBB4636:
 4574              	.LBB4637:
 4575              		.loc 2 288 0
 4576 1674 81210090 		lwz 9,144(1)
 4577              	.LBE4637:
 4578              	.LBE4636:
 4579              	.LBE4635:
 4580              		.loc 2 534 0
 4581 1678 3869FFF4 		addi 3,9,-12
 4582              	.LVL296:
 4583              	.LBB4638:
 4584              	.LBB4639:
 4585              		.loc 2 235 0
 4586 167c 7F83F800 		cmpw 7,3,31
 4587 1680 409E05B8 		bne- 7,.L738
 4588              	.LVL297:
 4589              	.L351:
 4590              	.LEHB89:
 4591              	.LBE4639:
 4592              	.LBE4638:
 4593              	.LBE4634:
 4594              	.LBE4633:
 4595              	.LBE4632:
 4596              		.loc 1 225 0 discriminator 1
 4597 1684 48000001 		bl _Z13UpdateMetaXmlv
 4598 1688 2F830000 		cmpwi 7,3,0
 4599 168c 409E006C 		bne- 7,.L374
 4600              	.LBB4650:
 4601              	.LBB4651:
 4602              		.loc 5 39 0
 4603 1690 835E0000 		lwz 26,_ZN8ErrorLog8instanceE@l(30)
 4604 1694 2F9A0000 		cmpwi 7,26,0
 4605 1698 419E0340 		beq- 7,.L739
 4606              	.L353:
 4607              	.LBE4651:
 4608              	.LBE4650:
 4609              		.loc 1 226 0
 4610 169c 38610088 		addi 3,1,136
 4611 16a0 7FA4EB78 		mr 4,29
 4612 16a4 38A10034 		addi 5,1,52
 4613 16a8 48000001 		bl _ZNSsC1EPKcRKSaIcE
 4614              	.LEHE89:
 4615 16ac 3C600000 		lis 3,.LC16@ha
 4616 16b0 3863010C 		la 3,.LC16@l(3)
 4617              	.LEHB90:
 4618 16b4 48000001 		bl gettext
 4619              	.LEHE90:
 4620 16b8 7C641B78 		mr 4,3
 4621 16bc 38A10033 		addi 5,1,51
 4622 16c0 38610084 		addi 3,1,132
 4623              	.LEHB91:
 4624 16c4 48000001 		bl _ZNSsC1EPKcRKSaIcE
 4625              	.LEHE91:
 4626              		.loc 1 226 0 is_stmt 0 discriminator 3
 4627 16c8 7F43D378 		mr 3,26
 4628 16cc 38810088 		addi 4,1,136
 4629 16d0 38A10084 		addi 5,1,132
 4630              	.LEHB92:
 4631 16d4 48000001 		bl _ZN8ErrorLog8AddEntryESsSs
 4632              	.LEHE92:
 4633              	.LVL298:
 4634              	.LBB4669:
 4635              	.LBB4670:
 4636              	.LBB4671:
 4637              	.LBB4672:
 4638              	.LBB4673:
 4639              	.LBB4674:
 4640              		.loc 2 288 0 is_stmt 1
 4641 16d8 81210084 		lwz 9,132(1)
 4642              	.LBE4674:
 4643              	.LBE4673:
 4644              	.LBE4672:
 4645              		.loc 2 534 0
 4646 16dc 3869FFF4 		addi 3,9,-12
 4647              	.LVL299:
 4648              	.LBB4675:
 4649              	.LBB4676:
 4650              		.loc 2 235 0
 4651 16e0 7F83F800 		cmpw 7,3,31
 4652 16e4 409E04F4 		bne- 7,.L740
 4653              	.LVL300:
 4654              	.L367:
 4655              	.LBE4676:
 4656              	.LBE4675:
 4657              	.LBE4671:
 4658              	.LBE4670:
 4659              	.LBE4669:
 4660              	.LBB4687:
 4661              	.LBB4688:
 4662              	.LBB4689:
 4663              	.LBB4690:
 4664              	.LBB4691:
 4665              	.LBB4692:
 4666              		.loc 2 288 0
 4667 16e8 81210088 		lwz 9,136(1)
 4668              	.LBE4692:
 4669              	.LBE4691:
 4670              	.LBE4690:
 4671              		.loc 2 534 0
 4672 16ec 3869FFF4 		addi 3,9,-12
 4673              	.LVL301:
 4674              	.LBB4693:
 4675              	.LBB4694:
 4676              		.loc 2 235 0
 4677 16f0 7F83F800 		cmpw 7,3,31
 4678 16f4 409E0224 		bne- 7,.L741
 4679              	.LVL302:
 4680              	.L374:
 4681              	.LBE4694:
 4682              	.LBE4693:
 4683              	.LBE4689:
 4684              	.LBE4688:
 4685              	.LBE4687:
 4686              		.loc 1 227 0
 4687 16f8 3C600013 		lis 3,0x13
 4688 16fc 6063D620 		ori 3,3,54816
 4689              	.LEHB93:
 4690 1700 48000001 		bl usleep
 4691 1704 4BFFFA7C 		b .L335
 4692              	.LVL303:
 4693              	.L730:
 4694              	.LBB4705:
 4695              	.LBB4526:
 4696              	.LBB4503:
 4697              	.LBB4504:
 4698              		.loc 5 39 0
 4699 1708 83FE0000 		lwz 31,_ZN8ErrorLog8instanceE@l(30)
 4700 170c 2F9F0000 		cmpwi 7,31,0
 4701 1710 419E02F0 		beq- 7,.L742
 4702              	.L564:
 4703              	.LBE4504:
 4704              	.LBE4503:
 4705              		.loc 1 266 0
 4706 1714 7FE3FB78 		mr 3,31
 4707 1718 48000001 		bl _ZN8ErrorLog4ShowEv
 4708 171c 4BFFFD7C 		b .L515
 4709              	.LVL304:
 4710              	.L708:
 4711              	.LBE4526:
 4712              	.LBE4705:
 4713              		.loc 1 216 0
 4714 1720 3860014C 		li 3,332
 4715              	.LVL305:
 4716 1724 48000001 		bl _Znwj
 4717              	.LEHE93:
 4718              	.LVL306:
 4719 1728 7C7C1B78 		mr 28,3
 4720              	.LVL307:
 4721              	.LEHB94:
 4722 172c 48000001 		bl _ZN12UpdateWindowC1Ev
 4723              	.LEHE94:
 4724              		.loc 1 217 0
 4725 1730 3B600001 		li 27,1
 4726 1734 4BFFF9F4 		b .L319
 4727              	.LVL308:
 4728              	.L723:
 4729              	.LBB4706:
 4730              	.LBB4527:
 4731              	.LBB4386:
 4732              		.loc 5 39 0
 4733 1738 3860000C 		li 3,12
 4734              	.LEHB95:
 4735 173c 48000001 		bl _Znwj
 4736              	.LEHE95:
 4737              	.LBB4373:
 4738              	.LBB4374:
 4739              	.LBB4375:
 4740              	.LBB4376:
 4741              	.LBB4377:
 4742              		.loc 2 270 0
 4743 1740 3D200000 		lis 9,_ZNSs4_Rep20_S_empty_rep_storageE+12@ha
 4744 1744 3809000C 		la 0,_ZNSs4_Rep20_S_empty_rep_storageE+12@l(9)
 4745              	.LBE4377:
 4746              	.LBE4376:
 4747              	.LBE4375:
 4748              	.LBE4374:
 4749              	.LBE4373:
 4750              		.loc 5 39 0
 4751 1748 7C7F1B78 		mr 31,3
 4752              	.LVL309:
 4753              	.LBB4385:
 4754              	.LBB4384:
 4755              	.LBB4380:
 4756              	.LBB4379:
 4757              	.LBB4378:
 4758              		.loc 2 270 0
 4759 174c 90030000 		stw 0,0(3)
 4760              	.LVL310:
 4761              	.LBE4378:
 4762              	.LBE4379:
 4763              	.LBE4380:
 4764              	.LBB4381:
 4765              	.LBB4382:
 4766              	.LBB4383:
 4767 1750 90030004 		stw 0,4(3)
 4768              	.LEHB96:
 4769              	.LBE4383:
 4770              	.LBE4382:
 4771              	.LBE4381:
 4772              		.loc 5 47 0
 4773 1754 48000001 		bl _ZN8ErrorLog5ResetEv
 4774              	.LEHE96:
 4775              	.LVL311:
 4776              	.LBE4384:
 4777              	.LBE4385:
 4778              		.loc 5 39 0
 4779 1758 93FE0000 		stw 31,_ZN8ErrorLog8instanceE@l(30)
 4780 175c 4BFFFC04 		b .L508
 4781              	.LVL312:
 4782              	.L715:
 4783              	.LBE4386:
 4784              	.LBE4527:
 4785              	.LBE4706:
 4786              		.loc 1 242 0
 4787 1760 7F83E378 		mr 3,28
 4788              	.LEHB97:
 4789 1764 48000001 		bl _Z20DownloadAllLanguagesP12UpdateWindow
 4790 1768 2F830000 		cmpwi 7,3,0
 4791 176c 409EFAC8 		bne+ 7,.L461
 4792              	.LBB4707:
 4793              	.LBB4708:
 4794              		.loc 5 39 0
 4795 1770 83FE0000 		lwz 31,_ZN8ErrorLog8instanceE@l(30)
 4796 1774 2F9F0000 		cmpwi 7,31,0
 4797 1778 419E02B0 		beq- 7,.L743
 4798              	.L417:
 4799              	.LBE4708:
 4800              	.LBE4707:
 4801              		.loc 1 243 0
 4802 177c 3C600000 		lis 3,.LC18@ha
 4803 1780 38630128 		la 3,.LC18@l(3)
 4804 1784 48000001 		bl gettext
 4805 1788 38A1002E 		addi 5,1,46
 4806 178c 7C641B78 		mr 4,3
 4807 1790 38610070 		addi 3,1,112
 4808 1794 48000001 		bl _ZNSsC1EPKcRKSaIcE
 4809              	.LEHE97:
 4810 1798 3C600000 		lis 3,.LC16@ha
 4811 179c 3863010C 		la 3,.LC16@l(3)
 4812              	.LEHB98:
 4813 17a0 48000001 		bl gettext
 4814              	.LEHE98:
 4815 17a4 7C641B78 		mr 4,3
 4816 17a8 38A1002D 		addi 5,1,45
 4817 17ac 3861006C 		addi 3,1,108
 4818              	.LEHB99:
 4819 17b0 48000001 		bl _ZNSsC1EPKcRKSaIcE
 4820              	.LEHE99:
 4821              		.loc 1 243 0 is_stmt 0 discriminator 3
 4822 17b4 7FE3FB78 		mr 3,31
 4823 17b8 38810070 		addi 4,1,112
 4824 17bc 38A1006C 		addi 5,1,108
 4825              	.LEHB100:
 4826 17c0 48000001 		bl _ZN8ErrorLog8AddEntryESsSs
 4827              	.LEHE100:
 4828              	.LVL313:
 4829              	.LBB4723:
 4830              	.LBB4724:
 4831              	.LBB4725:
 4832              	.LBB4726:
 4833              	.LBB4727:
 4834              	.LBB4728:
 4835              		.loc 2 288 0 is_stmt 1
 4836 17c4 8121006C 		lwz 9,108(1)
 4837              	.LBE4728:
 4838              	.LBE4727:
 4839              	.LBE4726:
 4840              	.LBB4729:
 4841              	.LBB4730:
 4842              		.loc 2 235 0
 4843 17c8 3FE00000 		lis 31,_ZNSs4_Rep20_S_empty_rep_storageE@ha
 4844 17cc 3BFF0000 		la 31,_ZNSs4_Rep20_S_empty_rep_storageE@l(31)
 4845              	.LBE4730:
 4846              	.LBE4729:
 4847              		.loc 2 534 0
 4848 17d0 3869FFF4 		addi 3,9,-12
 4849              	.LVL314:
 4850              	.LBB4739:
 4851              	.LBB4737:
 4852              		.loc 2 235 0
 4853 17d4 7F83F800 		cmpw 7,3,31
 4854 17d8 409E06F4 		bne- 7,.L744
 4855              	.LVL315:
 4856              	.L431:
 4857              	.LBE4737:
 4858              	.LBE4739:
 4859              	.LBE4725:
 4860              	.LBE4724:
 4861              	.LBE4723:
 4862              	.LBB4743:
 4863              	.LBB4744:
 4864              	.LBB4745:
 4865              	.LBB4746:
 4866              	.LBB4747:
 4867              	.LBB4748:
 4868              		.loc 2 288 0
 4869 17dc 81210070 		lwz 9,112(1)
 4870              	.LBE4748:
 4871              	.LBE4747:
 4872              	.LBE4746:
 4873              		.loc 2 534 0
 4874 17e0 3869FFF4 		addi 3,9,-12
 4875              	.LVL316:
 4876              	.LBB4749:
 4877              	.LBB4750:
 4878              		.loc 2 235 0
 4879 17e4 7F83F800 		cmpw 7,3,31
 4880 17e8 419EFA4C 		beq+ 7,.L461
 4881              	.LVL317:
 4882              	.LBB4751:
 4883              	.LBB4752:
 4884              	.LBB4753:
 4885              		.loc 3 66 0
 4886 17ec 8169FFFC 		lwz 11,-4(9)
 4887              	.LVL318:
 4888              	.LBE4753:
 4889              	.LBE4752:
 4890              	.LBE4751:
 4891              		.loc 2 240 0
 4892 17f0 2F8B0000 		cmpwi 7,11,0
 4893              	.LBB4756:
 4894              	.LBB4755:
 4895              	.LBB4754:
 4896              		.loc 3 67 0
 4897 17f4 396BFFFF 		addi 11,11,-1
 4898 17f8 9169FFFC 		stw 11,-4(9)
 4899              	.LBE4754:
 4900              	.LBE4755:
 4901              	.LBE4756:
 4902              		.loc 2 240 0
 4903 17fc 419DFA38 		bgt+ 7,.L461
 4904              		.loc 2 244 0
 4905 1800 38810015 		addi 4,1,21
 4906 1804 48000001 		bl _ZNSs4_Rep10_M_destroyERKSaIcE
 4907              	.LVL319:
 4908 1808 4BFFFA2C 		b .L461
 4909              	.LVL320:
 4910              	.L716:
 4911              	.LBE4750:
 4912              	.LBE4749:
 4913              	.LBE4745:
 4914              	.LBE4744:
 4915              	.LBE4743:
 4916              		.loc 1 248 0
 4917 180c 7F83E378 		mr 3,28
 4918              	.LEHB101:
 4919 1810 48000001 		bl _Z15UpdateLanguagesP12UpdateWindow
 4920 1814 2F830000 		cmpwi 7,3,0
 4921 1818 409EFA1C 		bne+ 7,.L461
 4922              	.LBB4757:
 4923              	.LBB4758:
 4924              		.loc 5 39 0
 4925 181c 83FE0000 		lwz 31,_ZN8ErrorLog8instanceE@l(30)
 4926 1820 2F9F0000 		cmpwi 7,31,0
 4927 1824 419E022C 		beq- 7,.L745
 4928              	.L432:
 4929              	.LBE4758:
 4930              	.LBE4757:
 4931              		.loc 1 249 0
 4932 1828 3C600000 		lis 3,.LC14@ha
 4933 182c 386300E4 		la 3,.LC14@l(3)
 4934 1830 48000001 		bl gettext
 4935 1834 38A1002C 		addi 5,1,44
 4936 1838 7C641B78 		mr 4,3
 4937 183c 38610068 		addi 3,1,104
 4938 1840 48000001 		bl _ZNSsC1EPKcRKSaIcE
 4939              	.LEHE101:
 4940 1844 3C600000 		lis 3,.LC16@ha
 4941 1848 3863010C 		la 3,.LC16@l(3)
 4942              	.LEHB102:
 4943 184c 48000001 		bl gettext
 4944              	.LEHE102:
 4945 1850 7C641B78 		mr 4,3
 4946 1854 38A1002B 		addi 5,1,43
 4947 1858 38610064 		addi 3,1,100
 4948              	.LEHB103:
 4949 185c 48000001 		bl _ZNSsC1EPKcRKSaIcE
 4950              	.LEHE103:
 4951              		.loc 1 249 0 is_stmt 0 discriminator 3
 4952 1860 7FE3FB78 		mr 3,31
 4953 1864 38810068 		addi 4,1,104
 4954 1868 38A10064 		addi 5,1,100
 4955              	.LEHB104:
 4956 186c 48000001 		bl _ZN8ErrorLog8AddEntryESsSs
 4957              	.LEHE104:
 4958              	.LVL321:
 4959              	.LBB4776:
 4960              	.LBB4777:
 4961              	.LBB4778:
 4962              	.LBB4779:
 4963              	.LBB4780:
 4964              	.LBB4781:
 4965              		.loc 2 288 0 is_stmt 1
 4966 1870 81210064 		lwz 9,100(1)
 4967              	.LBE4781:
 4968              	.LBE4780:
 4969              	.LBE4779:
 4970              	.LBB4782:
 4971              	.LBB4783:
 4972              		.loc 2 235 0
 4973 1874 3FE00000 		lis 31,_ZNSs4_Rep20_S_empty_rep_storageE@ha
 4974 1878 3BFF0000 		la 31,_ZNSs4_Rep20_S_empty_rep_storageE@l(31)
 4975              	.LBE4783:
 4976              	.LBE4782:
 4977              		.loc 2 534 0
 4978 187c 3869FFF4 		addi 3,9,-12
 4979              	.LVL322:
 4980              	.LBB4792:
 4981              	.LBB4790:
 4982              		.loc 2 235 0
 4983 1880 7F83F800 		cmpw 7,3,31
 4984 1884 409E067C 		bne- 7,.L746
 4985              	.LVL323:
 4986              	.L446:
 4987              	.LBE4790:
 4988              	.LBE4792:
 4989              	.LBE4778:
 4990              	.LBE4777:
 4991              	.LBE4776:
 4992              	.LBB4796:
 4993              	.LBB4797:
 4994              	.LBB4798:
 4995              	.LBB4799:
 4996              	.LBB4800:
 4997              	.LBB4801:
 4998              		.loc 2 288 0
 4999 1888 81210068 		lwz 9,104(1)
 5000              	.LBE4801:
 5001              	.LBE4800:
 5002              	.LBE4799:
 5003              		.loc 2 534 0
 5004 188c 3869FFF4 		addi 3,9,-12
 5005              	.LVL324:
 5006              	.LBB4802:
 5007              	.LBB4803:
 5008              		.loc 2 235 0
 5009 1890 7F83F800 		cmpw 7,3,31
 5010 1894 419EF9A0 		beq+ 7,.L461
 5011              	.LVL325:
 5012              	.LBB4804:
 5013              	.LBB4805:
 5014              	.LBB4806:
 5015              		.loc 3 66 0
 5016 1898 8169FFFC 		lwz 11,-4(9)
 5017              	.LVL326:
 5018              	.LBE4806:
 5019              	.LBE4805:
 5020              	.LBE4804:
 5021              		.loc 2 240 0
 5022 189c 2F8B0000 		cmpwi 7,11,0
 5023              	.LBB4809:
 5024              	.LBB4808:
 5025              	.LBB4807:
 5026              		.loc 3 67 0
 5027 18a0 396BFFFF 		addi 11,11,-1
 5028 18a4 9169FFFC 		stw 11,-4(9)
 5029              	.LBE4807:
 5030              	.LBE4808:
 5031              	.LBE4809:
 5032              		.loc 2 240 0
 5033 18a8 419DF98C 		bgt+ 7,.L461
 5034              		.loc 2 244 0
 5035 18ac 38810013 		addi 4,1,19
 5036 18b0 48000001 		bl _ZNSs4_Rep10_M_destroyERKSaIcE
 5037              	.LVL327:
 5038 18b4 4BFFF980 		b .L461
 5039              	.LVL328:
 5040              	.L718:
 5041              	.LBE4803:
 5042              	.LBE4802:
 5043              	.LBE4798:
 5044              	.LBE4797:
 5045              	.LBE4796:
 5046              	.LBB4810:
 5047              	.LBB4362:
 5048              	.LBB4355:
 5049              	.LBB4281:
 5050              	.LBB4280:
 5051              	.LBB4279:
 5052              	.LBB4278:
 5053              	.LBB4272:
 5054              	.LBB4273:
 5055              	.LBB4274:
 5056              		.loc 3 66 0
 5057 18b8 8169FFFC 		lwz 11,-4(9)
 5058              	.LVL329:
 5059              	.LBE4274:
 5060              	.LBE4273:
 5061              	.LBE4272:
 5062              		.loc 2 240 0
 5063 18bc 2F8B0000 		cmpwi 7,11,0
 5064              	.LBB4277:
 5065              	.LBB4276:
 5066              	.LBB4275:
 5067              		.loc 3 67 0
 5068 18c0 396BFFFF 		addi 11,11,-1
 5069 18c4 9169FFFC 		stw 11,-4(9)
 5070              	.LBE4275:
 5071              	.LBE4276:
 5072              	.LBE4277:
 5073              		.loc 2 240 0
 5074 18c8 419DFA04 		bgt+ 7,.L478
 5075              		.loc 2 244 0
 5076 18cc 38810011 		addi 4,1,17
 5077 18d0 48000001 		bl _ZNSs4_Rep10_M_destroyERKSaIcE
 5078              	.LVL330:
 5079 18d4 4BFFF9F8 		b .L478
 5080              	.LVL331:
 5081              	.L717:
 5082              	.LBE4278:
 5083              	.LBE4279:
 5084              	.LBE4280:
 5085              	.LBE4281:
 5086              	.LBE4355:
 5087              	.LBB4356:
 5088              	.LBB4263:
 5089              	.LBB4262:
 5090              	.LBB4261:
 5091              	.LBB4259:
 5092              	.LBB4252:
 5093              	.LBB4253:
 5094              	.LBB4254:
 5095              		.loc 3 66 0
 5096 18d8 8169FFFC 		lwz 11,-4(9)
 5097              	.LVL332:
 5098              	.LBE4254:
 5099              	.LBE4253:
 5100              	.LBE4252:
 5101              		.loc 2 240 0
 5102 18dc 2F8B0000 		cmpwi 7,11,0
 5103              	.LBB4257:
 5104              	.LBB4256:
 5105              	.LBB4255:
 5106              		.loc 3 67 0
 5107 18e0 396BFFFF 		addi 11,11,-1
 5108 18e4 9169FFFC 		stw 11,-4(9)
 5109              	.LBE4255:
 5110              	.LBE4256:
 5111              	.LBE4257:
 5112              		.loc 2 240 0
 5113 18e8 419DF9D4 		bgt+ 7,.L472
 5114              		.loc 2 244 0
 5115 18ec 38810012 		addi 4,1,18
 5116 18f0 48000001 		bl _ZNSs4_Rep10_M_destroyERKSaIcE
 5117              	.LVL333:
 5118 18f4 4BFFF9C8 		b .L472
 5119              	.LVL334:
 5120              	.L722:
 5121              	.LBE4259:
 5122              	.LBE4261:
 5123              	.LBE4262:
 5124              	.LBE4263:
 5125              	.LBE4356:
 5126              	.LBB4357:
 5127              	.LBB4354:
 5128              	.LBB4353:
 5129              	.LBB4352:
 5130              	.LBB4351:
 5131              	.LBB4345:
 5132              	.LBB4346:
 5133              	.LBB4347:
 5134              		.loc 3 66 0
 5135 18f8 8169FFFC 		lwz 11,-4(9)
 5136              	.LVL335:
 5137              	.LBE4347:
 5138              	.LBE4346:
 5139              	.LBE4345:
 5140              		.loc 2 240 0
 5141 18fc 2F8B0000 		cmpwi 7,11,0
 5142              	.LBB4350:
 5143              	.LBB4349:
 5144              	.LBB4348:
 5145              		.loc 3 67 0
 5146 1900 396BFFFF 		addi 11,11,-1
 5147 1904 9169FFFC 		stw 11,-4(9)
 5148              	.LBE4348:
 5149              	.LBE4349:
 5150              	.LBE4350:
 5151              		.loc 2 240 0
 5152 1908 419DFA4C 		bgt+ 7,.L507
 5153              		.loc 2 244 0
 5154 190c 3881000E 		addi 4,1,14
 5155 1910 48000001 		bl _ZNSs4_Rep10_M_destroyERKSaIcE
 5156              	.LVL336:
 5157 1914 4BFFFA40 		b .L507
 5158              	.LVL337:
 5159              	.L741:
 5160              	.LBE4351:
 5161              	.LBE4352:
 5162              	.LBE4353:
 5163              	.LBE4354:
 5164              	.LBE4357:
 5165              	.LBE4362:
 5166              	.LBE4810:
 5167              	.LBB4811:
 5168              	.LBB4704:
 5169              	.LBB4703:
 5170              	.LBB4702:
 5171              	.LBB4701:
 5172              	.LBB4695:
 5173              	.LBB4696:
 5174              	.LBB4697:
 5175              		.loc 3 66 0
 5176 1918 8169FFFC 		lwz 11,-4(9)
 5177              	.LVL338:
 5178              	.LBE4697:
 5179              	.LBE4696:
 5180              	.LBE4695:
 5181              		.loc 2 240 0
 5182 191c 2F8B0000 		cmpwi 7,11,0
 5183              	.LBB4700:
 5184              	.LBB4699:
 5185              	.LBB4698:
 5186              		.loc 3 67 0
 5187 1920 396BFFFF 		addi 11,11,-1
 5188 1924 9169FFFC 		stw 11,-4(9)
 5189              	.LBE4698:
 5190              	.LBE4699:
 5191              	.LBE4700:
 5192              		.loc 2 240 0
 5193 1928 419DFDD0 		bgt+ 7,.L374
 5194              		.loc 2 244 0
 5195 192c 3881001B 		addi 4,1,27
 5196 1930 48000001 		bl _ZNSs4_Rep10_M_destroyERKSaIcE
 5197              	.LVL339:
 5198 1934 4BFFFDC4 		b .L374
 5199              	.LVL340:
 5200              	.L721:
 5201              	.LBE4701:
 5202              	.LBE4702:
 5203              	.LBE4703:
 5204              	.LBE4704:
 5205              	.LBE4811:
 5206              	.LBB4812:
 5207              	.LBB4363:
 5208              	.LBB4358:
 5209              	.LBB4336:
 5210              	.LBB4335:
 5211              	.LBB4334:
 5212              	.LBB4333:
 5213              	.LBB4327:
 5214              	.LBB4328:
 5215              	.LBB4329:
 5216              		.loc 3 66 0
 5217 1938 8169FFFC 		lwz 11,-4(9)
 5218              	.LVL341:
 5219              	.LBE4329:
 5220              	.LBE4328:
 5221              	.LBE4327:
 5222              		.loc 2 240 0
 5223 193c 2F8B0000 		cmpwi 7,11,0
 5224              	.LBB4332:
 5225              	.LBB4331:
 5226              	.LBB4330:
 5227              		.loc 3 67 0
 5228 1940 396BFFFF 		addi 11,11,-1
 5229 1944 9169FFFC 		stw 11,-4(9)
 5230              	.LBE4330:
 5231              	.LBE4331:
 5232              	.LBE4332:
 5233              		.loc 2 240 0
 5234 1948 419DF9FC 		bgt+ 7,.L502
 5235              		.loc 2 244 0
 5236 194c 3881000F 		addi 4,1,15
 5237 1950 48000001 		bl _ZNSs4_Rep10_M_destroyERKSaIcE
 5238              	.LVL342:
 5239 1954 4BFFF9F0 		b .L502
 5240              	.LVL343:
 5241              	.L736:
 5242              	.LBE4333:
 5243              	.LBE4334:
 5244              	.LBE4335:
 5245              	.LBE4336:
 5246              	.LBE4358:
 5247              	.LBE4363:
 5248              	.LBE4812:
 5249              	.LBB4813:
 5250              	.LBB4608:
 5251              		.loc 6 27 0
 5252 1958 38600278 		li 3,632
 5253              	.LEHB105:
 5254 195c 48000001 		bl _Znwj
 5255              	.LEHE105:
 5256 1960 7C7F1B78 		mr 31,3
 5257              	.LEHB106:
 5258 1964 48000001 		bl _ZN11ApplicationC1Ev
 5259              	.LEHE106:
 5260 1968 93FD0000 		stw 31,_ZN11Application8instanceE@l(29)
 5261 196c 4BFFFC2C 		b .L574
 5262              	.L735:
 5263              	.LBE4608:
 5264              	.LBE4813:
 5265              	.LBB4814:
 5266              	.LBB4605:
 5267 1970 38600278 		li 3,632
 5268              	.LEHB107:
 5269 1974 48000001 		bl _Znwj
 5270              	.LEHE107:
 5271 1978 7C7F1B78 		mr 31,3
 5272              	.LEHB108:
 5273 197c 48000001 		bl _ZN11ApplicationC1Ev
 5274              	.LEHE108:
 5275 1980 93FD0000 		stw 31,_ZN11Application8instanceE@l(29)
 5276 1984 4BFFFBFC 		b .L572
 5277              	.LVL344:
 5278              	.L733:
 5279              	.LBE4605:
 5280              	.LBE4814:
 5281              	.LBB4815:
 5282              	.LBB4569:
 5283              		.loc 5 39 0
 5284 1988 3860000C 		li 3,12
 5285              	.LEHB109:
 5286 198c 48000001 		bl _Znwj
 5287              	.LEHE109:
 5288              	.LBB4554:
 5289              	.LBB4555:
 5290              	.LBB4556:
 5291              	.LBB4557:
 5292              	.LBB4558:
 5293              		.loc 2 270 0
 5294 1990 3D200000 		lis 9,_ZNSs4_Rep20_S_empty_rep_storageE+12@ha
 5295 1994 3809000C 		la 0,_ZNSs4_Rep20_S_empty_rep_storageE+12@l(9)
 5296              	.LBE4558:
 5297              	.LBE4557:
 5298              	.LBE4556:
 5299              	.LBE4555:
 5300              	.LBE4554:
 5301              		.loc 5 39 0
 5302 1998 7C791B78 		mr 25,3
 5303              	.LVL345:
 5304              	.LBB4567:
 5305              	.LBB4565:
 5306              	.LBB4561:
 5307              	.LBB4560:
 5308              	.LBB4559:
 5309              		.loc 2 270 0
 5310 199c 90030000 		stw 0,0(3)
 5311              	.LVL346:
 5312              	.LBE4559:
 5313              	.LBE4560:
 5314              	.LBE4561:
 5315              	.LBB4562:
 5316              	.LBB4563:
 5317              	.LBB4564:
 5318 19a0 90030004 		stw 0,4(3)
 5319              	.LEHB110:
 5320              	.LBE4564:
 5321              	.LBE4563:
 5322              	.LBE4562:
 5323              		.loc 5 47 0
 5324 19a4 48000001 		bl _ZN8ErrorLog5ResetEv
 5325              	.LEHE110:
 5326              	.LVL347:
 5327              	.LBE4565:
 5328              	.LBE4567:
 5329              		.loc 5 39 0
 5330 19a8 933E0000 		stw 25,_ZN8ErrorLog8instanceE@l(30)
 5331 19ac 4BFFFB48 		b .L393
 5332              	.LVL348:
 5333              	.L719:
 5334              	.LBE4569:
 5335              	.LBE4815:
 5336              	.LBB4816:
 5337              	.LBB4364:
 5338              	.LBB4359:
 5339              	.LBB4299:
 5340 19b0 3860000C 		li 3,12
 5341              	.LEHB111:
 5342 19b4 48000001 		bl _Znwj
 5343              	.LEHE111:
 5344              	.LBB4284:
 5345              	.LBB4285:
 5346              	.LBB4286:
 5347              	.LBB4287:
 5348              	.LBB4288:
 5349              		.loc 2 270 0
 5350 19b8 3D200000 		lis 9,_ZNSs4_Rep20_S_empty_rep_storageE+12@ha
 5351              	.LBE4288:
 5352              	.LBE4287:
 5353              	.LBE4286:
 5354              	.LBE4285:
 5355              	.LBE4284:
 5356              		.loc 5 39 0
 5357 19bc 7C7A1B78 		mr 26,3
 5358              	.LVL349:
 5359              	.LBB4297:
 5360              	.LBB4295:
 5361              	.LBB4291:
 5362              	.LBB4290:
 5363              	.LBB4289:
 5364              		.loc 2 270 0
 5365 19c0 3809000C 		la 0,_ZNSs4_Rep20_S_empty_rep_storageE+12@l(9)
 5366 19c4 90030000 		stw 0,0(3)
 5367              	.LVL350:
 5368              	.LBE4289:
 5369              	.LBE4290:
 5370              	.LBE4291:
 5371              	.LBB4292:
 5372              	.LBB4293:
 5373              	.LBB4294:
 5374 19c8 90030004 		stw 0,4(3)
 5375              	.LEHB112:
 5376              	.LBE4294:
 5377              	.LBE4293:
 5378              	.LBE4292:
 5379              		.loc 5 47 0
 5380 19cc 48000001 		bl _ZN8ErrorLog5ResetEv
 5381              	.LEHE112:
 5382              	.LVL351:
 5383              	.LBE4295:
 5384              	.LBE4297:
 5385              		.loc 5 39 0
 5386 19d0 935E0000 		stw 26,_ZN8ErrorLog8instanceE@l(30)
 5387 19d4 4BFFF914 		b .L480
 5388              	.LVL352:
 5389              	.L739:
 5390              	.LBE4299:
 5391              	.LBE4359:
 5392              	.LBE4364:
 5393              	.LBE4816:
 5394              	.LBB4817:
 5395              	.LBB4667:
 5396 19d8 3860000C 		li 3,12
 5397              	.LEHB113:
 5398 19dc 48000001 		bl _Znwj
 5399              	.LEHE113:
 5400              	.LBB4652:
 5401              	.LBB4653:
 5402              	.LBB4654:
 5403              	.LBB4655:
 5404              	.LBB4656:
 5405              		.loc 2 270 0
 5406 19e0 3D200000 		lis 9,_ZNSs4_Rep20_S_empty_rep_storageE+12@ha
 5407 19e4 3809000C 		la 0,_ZNSs4_Rep20_S_empty_rep_storageE+12@l(9)
 5408              	.LBE4656:
 5409              	.LBE4655:
 5410              	.LBE4654:
 5411              	.LBE4653:
 5412              	.LBE4652:
 5413              		.loc 5 39 0
 5414 19e8 7C7A1B78 		mr 26,3
 5415              	.LVL353:
 5416              	.LBB4665:
 5417              	.LBB4663:
 5418              	.LBB4659:
 5419              	.LBB4658:
 5420              	.LBB4657:
 5421              		.loc 2 270 0
 5422 19ec 90030000 		stw 0,0(3)
 5423              	.LVL354:
 5424              	.LBE4657:
 5425              	.LBE4658:
 5426              	.LBE4659:
 5427              	.LBB4660:
 5428              	.LBB4661:
 5429              	.LBB4662:
 5430 19f0 90030004 		stw 0,4(3)
 5431              	.LEHB114:
 5432              	.LBE4662:
 5433              	.LBE4661:
 5434              	.LBE4660:
 5435              		.loc 5 47 0
 5436 19f4 48000001 		bl _ZN8ErrorLog5ResetEv
 5437              	.LEHE114:
 5438              	.LVL355:
 5439              	.LBE4663:
 5440              	.LBE4665:
 5441              		.loc 5 39 0
 5442 19f8 935E0000 		stw 26,_ZN8ErrorLog8instanceE@l(30)
 5443 19fc 4BFFFCA0 		b .L353
 5444              	.LVL356:
 5445              	.L742:
 5446              	.LBE4667:
 5447              	.LBE4817:
 5448              	.LBB4818:
 5449              	.LBB4528:
 5450              	.LBB4519:
 5451              	.LBB4518:
 5452 1a00 3860000C 		li 3,12
 5453              	.LEHB115:
 5454 1a04 48000001 		bl _Znwj
 5455              	.LEHE115:
 5456              	.LBB4505:
 5457              	.LBB4506:
 5458              	.LBB4507:
 5459              	.LBB4508:
 5460              	.LBB4509:
 5461              		.loc 2 270 0
 5462 1a08 3D200000 		lis 9,_ZNSs4_Rep20_S_empty_rep_storageE+12@ha
 5463 1a0c 3809000C 		la 0,_ZNSs4_Rep20_S_empty_rep_storageE+12@l(9)
 5464              	.LBE4509:
 5465              	.LBE4508:
 5466              	.LBE4507:
 5467              	.LBE4506:
 5468              	.LBE4505:
 5469              		.loc 5 39 0
 5470 1a10 7C7F1B78 		mr 31,3
 5471              	.LVL357:
 5472              	.LBB4517:
 5473              	.LBB4516:
 5474              	.LBB4512:
 5475              	.LBB4511:
 5476              	.LBB4510:
 5477              		.loc 2 270 0
 5478 1a14 90030000 		stw 0,0(3)
 5479              	.LVL358:
 5480              	.LBE4510:
 5481              	.LBE4511:
 5482              	.LBE4512:
 5483              	.LBB4513:
 5484              	.LBB4514:
 5485              	.LBB4515:
 5486 1a18 90030004 		stw 0,4(3)
 5487              	.LEHB116:
 5488              	.LBE4515:
 5489              	.LBE4514:
 5490              	.LBE4513:
 5491              		.loc 5 47 0
 5492 1a1c 48000001 		bl _ZN8ErrorLog5ResetEv
 5493              	.LEHE116:
 5494              	.LVL359:
 5495              	.LBE4516:
 5496              	.LBE4517:
 5497              		.loc 5 39 0
 5498 1a20 93FE0000 		stw 31,_ZN8ErrorLog8instanceE@l(30)
 5499 1a24 4BFFFCF0 		b .L564
 5500              	.LVL360:
 5501              	.L743:
 5502              	.LBE4518:
 5503              	.LBE4519:
 5504              	.LBE4528:
 5505              	.LBE4818:
 5506              	.LBB4819:
 5507              	.LBB4722:
 5508 1a28 3860000C 		li 3,12
 5509              	.LEHB117:
 5510 1a2c 48000001 		bl _Znwj
 5511              	.LEHE117:
 5512              	.LBB4709:
 5513              	.LBB4710:
 5514              	.LBB4711:
 5515              	.LBB4712:
 5516              	.LBB4713:
 5517              		.loc 2 270 0
 5518 1a30 3D200000 		lis 9,_ZNSs4_Rep20_S_empty_rep_storageE+12@ha
 5519 1a34 3809000C 		la 0,_ZNSs4_Rep20_S_empty_rep_storageE+12@l(9)
 5520              	.LBE4713:
 5521              	.LBE4712:
 5522              	.LBE4711:
 5523              	.LBE4710:
 5524              	.LBE4709:
 5525              		.loc 5 39 0
 5526 1a38 7C7F1B78 		mr 31,3
 5527              	.LVL361:
 5528              	.LBB4721:
 5529              	.LBB4720:
 5530              	.LBB4716:
 5531              	.LBB4715:
 5532              	.LBB4714:
 5533              		.loc 2 270 0
 5534 1a3c 90030000 		stw 0,0(3)
 5535              	.LVL362:
 5536              	.LBE4714:
 5537              	.LBE4715:
 5538              	.LBE4716:
 5539              	.LBB4717:
 5540              	.LBB4718:
 5541              	.LBB4719:
 5542 1a40 90030004 		stw 0,4(3)
 5543              	.LEHB118:
 5544              	.LBE4719:
 5545              	.LBE4718:
 5546              	.LBE4717:
 5547              		.loc 5 47 0
 5548 1a44 48000001 		bl _ZN8ErrorLog5ResetEv
 5549              	.LEHE118:
 5550              	.LVL363:
 5551              	.LBE4720:
 5552              	.LBE4721:
 5553              		.loc 5 39 0
 5554 1a48 93FE0000 		stw 31,_ZN8ErrorLog8instanceE@l(30)
 5555 1a4c 4BFFFD30 		b .L417
 5556              	.LVL364:
 5557              	.L745:
 5558              	.LBE4722:
 5559              	.LBE4819:
 5560              	.LBB4820:
 5561              	.LBB4774:
 5562 1a50 3860000C 		li 3,12
 5563              	.LEHB119:
 5564 1a54 48000001 		bl _Znwj
 5565              	.LEHE119:
 5566              	.LBB4759:
 5567              	.LBB4760:
 5568              	.LBB4761:
 5569              	.LBB4762:
 5570              	.LBB4763:
 5571              		.loc 2 270 0
 5572 1a58 3D200000 		lis 9,_ZNSs4_Rep20_S_empty_rep_storageE+12@ha
 5573 1a5c 3809000C 		la 0,_ZNSs4_Rep20_S_empty_rep_storageE+12@l(9)
 5574              	.LBE4763:
 5575              	.LBE4762:
 5576              	.LBE4761:
 5577              	.LBE4760:
 5578              	.LBE4759:
 5579              		.loc 5 39 0
 5580 1a60 7C7F1B78 		mr 31,3
 5581              	.LVL365:
 5582              	.LBB4772:
 5583              	.LBB4770:
 5584              	.LBB4766:
 5585              	.LBB4765:
 5586              	.LBB4764:
 5587              		.loc 2 270 0
 5588 1a64 90030000 		stw 0,0(3)
 5589              	.LVL366:
 5590              	.LBE4764:
 5591              	.LBE4765:
 5592              	.LBE4766:
 5593              	.LBB4767:
 5594              	.LBB4768:
 5595              	.LBB4769:
 5596 1a68 90030004 		stw 0,4(3)
 5597              	.LEHB120:
 5598              	.LBE4769:
 5599              	.LBE4768:
 5600              	.LBE4767:
 5601              		.loc 5 47 0
 5602 1a6c 48000001 		bl _ZN8ErrorLog5ResetEv
 5603              	.LEHE120:
 5604              	.LVL367:
 5605              	.LBE4770:
 5606              	.LBE4772:
 5607              		.loc 5 39 0
 5608 1a70 93FE0000 		stw 31,_ZN8ErrorLog8instanceE@l(30)
 5609 1a74 4BFFFDB4 		b .L432
 5610              	.LVL368:
 5611              	.L709:
 5612              	.LBE4774:
 5613              	.LBE4820:
 5614              	.LBB4821:
 5615              	.LBB4198:
 5616              	.LBB4195:
 5617              	.LBB4193:
 5618              	.LBB4191:
 5619              	.LBB4189:
 5620              	.LBB4170:
 5621              	.LBB4169:
 5622              	.LBB4168:
 5623              	.LBB4166:
 5624              	.LBB4159:
 5625              	.LBB4160:
 5626              	.LBB4161:
 5627              		.loc 3 66 0
 5628 1a78 8169FFFC 		lwz 11,-4(9)
 5629              	.LVL369:
 5630              	.LBE4161:
 5631              	.LBE4160:
 5632              	.LBE4159:
 5633              		.loc 2 240 0
 5634 1a7c 2F8B0000 		cmpwi 7,11,0
 5635              	.LBB4164:
 5636              	.LBB4163:
 5637              	.LBB4162:
 5638              		.loc 3 67 0
 5639 1a80 396BFFFF 		addi 11,11,-1
 5640 1a84 9169FFFC 		stw 11,-4(9)
 5641              	.LBE4162:
 5642              	.LBE4163:
 5643              	.LBE4164:
 5644              		.loc 2 240 0
 5645 1a88 419DF6D0 		bgt+ 7,.L326
 5646              		.loc 2 244 0
 5647 1a8c 38810020 		addi 4,1,32
 5648 1a90 48000001 		bl _ZNSs4_Rep10_M_destroyERKSaIcE
 5649              	.LVL370:
 5650 1a94 4BFFF6C4 		b .L326
 5651              	.LVL371:
 5652              	.L710:
 5653              	.LBE4166:
 5654              	.LBE4168:
 5655              	.LBE4169:
 5656              	.LBE4170:
 5657              	.LBE4189:
 5658              	.LBB4190:
 5659              	.LBB4188:
 5660              	.LBB4187:
 5661              	.LBB4186:
 5662              	.LBB4185:
 5663              	.LBB4179:
 5664              	.LBB4180:
 5665              	.LBB4181:
 5666              		.loc 3 66 0
 5667 1a98 8169FFFC 		lwz 11,-4(9)
 5668              	.LVL372:
 5669              	.LBE4181:
 5670              	.LBE4180:
 5671              	.LBE4179:
 5672              		.loc 2 240 0
 5673 1a9c 2F8B0000 		cmpwi 7,11,0
 5674              	.LBB4184:
 5675              	.LBB4183:
 5676              	.LBB4182:
 5677              		.loc 3 67 0
 5678 1aa0 396BFFFF 		addi 11,11,-1
 5679 1aa4 9169FFFC 		stw 11,-4(9)
 5680              	.LBE4182:
 5681              	.LBE4183:
 5682              	.LBE4184:
 5683              		.loc 2 240 0
 5684 1aa8 419DF6C0 		bgt+ 7,.L334
 5685              		.loc 2 244 0
 5686 1aac 3881001F 		addi 4,1,31
 5687 1ab0 48000001 		bl _ZNSs4_Rep10_M_destroyERKSaIcE
 5688              	.LVL373:
 5689 1ab4 4BFFF6B4 		b .L334
 5690              	.LVL374:
 5691              	.L729:
 5692              	.LBE4185:
 5693              	.LBE4186:
 5694              	.LBE4187:
 5695              	.LBE4188:
 5696              	.LBE4190:
 5697              	.LBE4191:
 5698              	.LBE4193:
 5699              	.LBE4195:
 5700              	.LBE4198:
 5701              	.LBE4821:
 5702              	.LBB4822:
 5703              	.LBB4529:
 5704              	.LBB4520:
 5705              	.LBB4502:
 5706              	.LBB4501:
 5707              	.LBB4500:
 5708              	.LBB4499:
 5709              	.LBB4493:
 5710              	.LBB4494:
 5711              	.LBB4495:
 5712              		.loc 3 66 0
 5713 1ab8 8169FFFC 		lwz 11,-4(9)
 5714              	.LVL375:
 5715              	.LBE4495:
 5716              	.LBE4494:
 5717              	.LBE4493:
 5718              		.loc 2 240 0
 5719 1abc 2F8B0000 		cmpwi 7,11,0
 5720              	.LBB4498:
 5721              	.LBB4497:
 5722              	.LBB4496:
 5723              		.loc 3 67 0
 5724 1ac0 396BFFFF 		addi 11,11,-1
 5725 1ac4 9169FFFC 		stw 11,-4(9)
 5726              	.LBE4496:
 5727              	.LBE4497:
 5728              	.LBE4498:
 5729              		.loc 2 240 0
 5730 1ac8 419DF9C8 		bgt+ 7,.L563
 5731              		.loc 2 244 0
 5732 1acc 38810008 		addi 4,1,8
 5733 1ad0 48000001 		bl _ZNSs4_Rep10_M_destroyERKSaIcE
 5734              	.LVL376:
 5735 1ad4 4BFFF9BC 		b .L563
 5736              	.LVL377:
 5737              	.L713:
 5738              	.LBE4499:
 5739              	.LBE4500:
 5740              	.LBE4501:
 5741              	.LBE4502:
 5742              	.LBE4520:
 5743              	.LBE4529:
 5744              	.LBE4822:
 5745              	.LBB4823:
 5746              	.LBB4238:
 5747              	.LBB4237:
 5748              	.LBB4236:
 5749              	.LBB4235:
 5750              	.LBB4229:
 5751              	.LBB4230:
 5752              	.LBB4231:
 5753              		.loc 3 66 0
 5754 1ad8 8169FFFC 		lwz 11,-4(9)
 5755              	.LVL378:
 5756              	.LBE4231:
 5757              	.LBE4230:
 5758              	.LBE4229:
 5759              		.loc 2 240 0
 5760 1adc 2F8B0000 		cmpwi 7,11,0
 5761              	.LBB4234:
 5762              	.LBB4233:
 5763              	.LBB4232:
 5764              		.loc 3 67 0
 5765 1ae0 396BFFFF 		addi 11,11,-1
 5766 1ae4 9169FFFC 		stw 11,-4(9)
 5767              	.LBE4232:
 5768              	.LBE4233:
 5769              	.LBE4234:
 5770              		.loc 2 240 0
 5771 1ae8 419DF718 		bgt+ 7,.L391
 5772              		.loc 2 244 0
 5773 1aec 38810019 		addi 4,1,25
 5774 1af0 48000001 		bl _ZNSs4_Rep10_M_destroyERKSaIcE
 5775              	.LVL379:
 5776 1af4 4BFFF70C 		b .L391
 5777              	.LVL380:
 5778              	.L712:
 5779              	.LBE4235:
 5780              	.LBE4236:
 5781              	.LBE4237:
 5782              	.LBE4238:
 5783              	.LBE4823:
 5784              	.LBB4824:
 5785              	.LBB4220:
 5786              	.LBB4219:
 5787              	.LBB4218:
 5788              	.LBB4216:
 5789              	.LBB4209:
 5790              	.LBB4210:
 5791              	.LBB4211:
 5792              		.loc 3 66 0
 5793 1af8 8169FFFC 		lwz 11,-4(9)
 5794              	.LVL381:
 5795              	.LBE4211:
 5796              	.LBE4210:
 5797              	.LBE4209:
 5798              		.loc 2 240 0
 5799 1afc 2F8B0000 		cmpwi 7,11,0
 5800              	.LBB4214:
 5801              	.LBB4213:
 5802              	.LBB4212:
 5803              		.loc 3 67 0
 5804 1b00 396BFFFF 		addi 11,11,-1
 5805 1b04 9169FFFC 		stw 11,-4(9)
 5806              	.LBE4212:
 5807              	.LBE4213:
 5808              	.LBE4214:
 5809              		.loc 2 240 0
 5810 1b08 419DF6E8 		bgt+ 7,.L383
 5811              		.loc 2 244 0
 5812 1b0c 3881001A 		addi 4,1,26
 5813 1b10 48000001 		bl _ZNSs4_Rep10_M_destroyERKSaIcE
 5814              	.LVL382:
 5815 1b14 4BFFF6DC 		b .L383
 5816              	.LVL383:
 5817              	.L728:
 5818              	.LBE4216:
 5819              	.LBE4218:
 5820              	.LBE4219:
 5821              	.LBE4220:
 5822              	.LBE4824:
 5823              	.LBB4825:
 5824              	.LBB4530:
 5825              	.LBB4521:
 5826              	.LBB4484:
 5827              	.LBB4483:
 5828              	.LBB4482:
 5829              	.LBB4481:
 5830              	.LBB4475:
 5831              	.LBB4476:
 5832              	.LBB4477:
 5833              		.loc 3 66 0
 5834 1b18 8169FFFC 		lwz 11,-4(9)
 5835              	.LVL384:
 5836              	.LBE4477:
 5837              	.LBE4476:
 5838              	.LBE4475:
 5839              		.loc 2 240 0
 5840 1b1c 2F8B0000 		cmpwi 7,11,0
 5841              	.LBB4480:
 5842              	.LBB4479:
 5843              	.LBB4478:
 5844              		.loc 3 67 0
 5845 1b20 396BFFFF 		addi 11,11,-1
 5846 1b24 9169FFFC 		stw 11,-4(9)
 5847              	.LBE4478:
 5848              	.LBE4479:
 5849              	.LBE4480:
 5850              		.loc 2 240 0
 5851 1b28 419DF958 		bgt+ 7,.L555
 5852              		.loc 2 244 0
 5853 1b2c 38810009 		addi 4,1,9
 5854 1b30 48000001 		bl _ZNSs4_Rep10_M_destroyERKSaIcE
 5855              	.LVL385:
 5856 1b34 4BFFF94C 		b .L555
 5857              	.LVL386:
 5858              	.L727:
 5859              	.LBE4481:
 5860              	.LBE4482:
 5861              	.LBE4483:
 5862              	.LBE4484:
 5863              	.LBE4521:
 5864              	.LBB4522:
 5865              	.LBB4466:
 5866              	.LBB4465:
 5867              	.LBB4464:
 5868              	.LBB4463:
 5869              	.LBB4457:
 5870              	.LBB4458:
 5871              	.LBB4459:
 5872              		.loc 3 66 0
 5873 1b38 8169FFFC 		lwz 11,-4(9)
 5874              	.LVL387:
 5875              	.LBE4459:
 5876              	.LBE4458:
 5877              	.LBE4457:
 5878              		.loc 2 240 0
 5879 1b3c 2F8B0000 		cmpwi 7,11,0
 5880              	.LBB4462:
 5881              	.LBB4461:
 5882              	.LBB4460:
 5883              		.loc 3 67 0
 5884 1b40 396BFFFF 		addi 11,11,-1
 5885 1b44 9169FFFC 		stw 11,-4(9)
 5886              	.LBE4460:
 5887              	.LBE4461:
 5888              	.LBE4462:
 5889              		.loc 2 240 0
 5890 1b48 419DF928 		bgt+ 7,.L547
 5891              		.loc 2 244 0
 5892 1b4c 3881000A 		addi 4,1,10
 5893 1b50 48000001 		bl _ZNSs4_Rep10_M_destroyERKSaIcE
 5894              	.LVL388:
 5895 1b54 4BFFF91C 		b .L547
 5896              	.LVL389:
 5897              	.L726:
 5898              	.LBE4463:
 5899              	.LBE4464:
 5900              	.LBE4465:
 5901              	.LBE4466:
 5902              	.LBE4522:
 5903              	.LBB4523:
 5904              	.LBB4448:
 5905              	.LBB4447:
 5906              	.LBB4446:
 5907              	.LBB4445:
 5908              	.LBB4439:
 5909              	.LBB4440:
 5910              	.LBB4441:
 5911              		.loc 3 66 0
 5912 1b58 8169FFFC 		lwz 11,-4(9)
 5913              	.LVL390:
 5914              	.LBE4441:
 5915              	.LBE4440:
 5916              	.LBE4439:
 5917              		.loc 2 240 0
 5918 1b5c 2F8B0000 		cmpwi 7,11,0
 5919              	.LBB4444:
 5920              	.LBB4443:
 5921              	.LBB4442:
 5922              		.loc 3 67 0
 5923 1b60 396BFFFF 		addi 11,11,-1
 5924 1b64 9169FFFC 		stw 11,-4(9)
 5925              	.LBE4442:
 5926              	.LBE4443:
 5927              	.LBE4444:
 5928              		.loc 2 240 0
 5929 1b68 419DF8F8 		bgt+ 7,.L539
 5930              		.loc 2 244 0
 5931 1b6c 3881000B 		addi 4,1,11
 5932 1b70 48000001 		bl _ZNSs4_Rep10_M_destroyERKSaIcE
 5933              	.LVL391:
 5934 1b74 4BFFF8EC 		b .L539
 5935              	.LVL392:
 5936              	.L725:
 5937              	.LBE4445:
 5938              	.LBE4446:
 5939              	.LBE4447:
 5940              	.LBE4448:
 5941              	.LBE4523:
 5942              	.LBB4524:
 5943              	.LBB4430:
 5944              	.LBB4429:
 5945              	.LBB4428:
 5946              	.LBB4427:
 5947              	.LBB4421:
 5948              	.LBB4422:
 5949              	.LBB4423:
 5950              		.loc 3 66 0
 5951 1b78 8169FFFC 		lwz 11,-4(9)
 5952              	.LVL393:
 5953              	.LBE4423:
 5954              	.LBE4422:
 5955              	.LBE4421:
 5956              		.loc 2 240 0
 5957 1b7c 2F8B0000 		cmpwi 7,11,0
 5958              	.LBB4426:
 5959              	.LBB4425:
 5960              	.LBB4424:
 5961              		.loc 3 67 0
 5962 1b80 396BFFFF 		addi 11,11,-1
 5963 1b84 9169FFFC 		stw 11,-4(9)
 5964              	.LBE4424:
 5965              	.LBE4425:
 5966              	.LBE4426:
 5967              		.loc 2 240 0
 5968 1b88 419DF8C8 		bgt+ 7,.L531
 5969              		.loc 2 244 0
 5970 1b8c 3881000C 		addi 4,1,12
 5971 1b90 48000001 		bl _ZNSs4_Rep10_M_destroyERKSaIcE
 5972              	.LVL394:
 5973 1b94 4BFFF8BC 		b .L531
 5974              	.LVL395:
 5975              	.L724:
 5976              	.LBE4427:
 5977              	.LBE4428:
 5978              	.LBE4429:
 5979              	.LBE4430:
 5980              	.LBE4524:
 5981              	.LBB4525:
 5982              	.LBB4411:
 5983              	.LBB4409:
 5984              	.LBB4407:
 5985              	.LBB4404:
 5986              	.LBB4396:
 5987              	.LBB4397:
 5988              	.LBB4398:
 5989              		.loc 3 66 0
 5990 1b98 8169FFFC 		lwz 11,-4(9)
 5991              	.LVL396:
 5992              	.LBE4398:
 5993              	.LBE4397:
 5994              	.LBE4396:
 5995              		.loc 2 240 0
 5996 1b9c 2F8B0000 		cmpwi 7,11,0
 5997              	.LBB4401:
 5998              	.LBB4400:
 5999              	.LBB4399:
 6000              		.loc 3 67 0
 6001 1ba0 396BFFFF 		addi 11,11,-1
 6002 1ba4 9169FFFC 		stw 11,-4(9)
 6003              	.LBE4399:
 6004              	.LBE4400:
 6005              	.LBE4401:
 6006              		.loc 2 240 0
 6007 1ba8 419DF898 		bgt+ 7,.L523
 6008              		.loc 2 244 0
 6009 1bac 3881000D 		addi 4,1,13
 6010 1bb0 48000001 		bl _ZNSs4_Rep10_M_destroyERKSaIcE
 6011              	.LVL397:
 6012 1bb4 4BFFF88C 		b .L523
 6013              	.LVL398:
 6014              	.L734:
 6015              	.LBE4404:
 6016              	.LBE4407:
 6017              	.LBE4409:
 6018              	.LBE4411:
 6019              	.LBE4525:
 6020              	.LBE4530:
 6021              	.LBE4825:
 6022              	.LBB4826:
 6023              	.LBB4588:
 6024              	.LBB4587:
 6025              	.LBB4586:
 6026              	.LBB4585:
 6027              	.LBB4579:
 6028              	.LBB4580:
 6029              	.LBB4581:
 6030              		.loc 3 66 0
 6031 1bb8 8169FFFC 		lwz 11,-4(9)
 6032              	.LVL399:
 6033              	.LBE4581:
 6034              	.LBE4580:
 6035              	.LBE4579:
 6036              		.loc 2 240 0
 6037 1bbc 2F8B0000 		cmpwi 7,11,0
 6038              	.LBB4584:
 6039              	.LBB4583:
 6040              	.LBB4582:
 6041              		.loc 3 67 0
 6042 1bc0 396BFFFF 		addi 11,11,-1
 6043 1bc4 9169FFFC 		stw 11,-4(9)
 6044              	.LBE4582:
 6045              	.LBE4583:
 6046              	.LBE4584:
 6047              		.loc 2 240 0
 6048 1bc8 419DF978 		bgt+ 7,.L407
 6049              		.loc 2 244 0
 6050 1bcc 38810018 		addi 4,1,24
 6051 1bd0 48000001 		bl _ZNSs4_Rep10_M_destroyERKSaIcE
 6052              	.LVL400:
 6053 1bd4 4BFFF96C 		b .L407
 6054              	.LVL401:
 6055              	.L740:
 6056              	.LBE4585:
 6057              	.LBE4586:
 6058              	.LBE4587:
 6059              	.LBE4588:
 6060              	.LBE4826:
 6061              	.LBB4827:
 6062              	.LBB4686:
 6063              	.LBB4685:
 6064              	.LBB4684:
 6065              	.LBB4683:
 6066              	.LBB4677:
 6067              	.LBB4678:
 6068              	.LBB4679:
 6069              		.loc 3 66 0
 6070 1bd8 8169FFFC 		lwz 11,-4(9)
 6071              	.LVL402:
 6072              	.LBE4679:
 6073              	.LBE4678:
 6074              	.LBE4677:
 6075              		.loc 2 240 0
 6076 1bdc 2F8B0000 		cmpwi 7,11,0
 6077              	.LBB4682:
 6078              	.LBB4681:
 6079              	.LBB4680:
 6080              		.loc 3 67 0
 6081 1be0 396BFFFF 		addi 11,11,-1
 6082 1be4 9169FFFC 		stw 11,-4(9)
 6083              	.LBE4680:
 6084              	.LBE4681:
 6085              	.LBE4682:
 6086              		.loc 2 240 0
 6087 1be8 419DFB00 		bgt+ 7,.L367
 6088              		.loc 2 244 0
 6089 1bec 3881001C 		addi 4,1,28
 6090 1bf0 48000001 		bl _ZNSs4_Rep10_M_destroyERKSaIcE
 6091              	.LVL403:
 6092 1bf4 4BFFFAF4 		b .L367
 6093              	.LVL404:
 6094              	.L720:
 6095              	.LBE4683:
 6096              	.LBE4684:
 6097              	.LBE4685:
 6098              	.LBE4686:
 6099              	.LBE4827:
 6100              	.LBB4828:
 6101              	.LBB4365:
 6102              	.LBB4360:
 6103              	.LBB4318:
 6104              	.LBB4317:
 6105              	.LBB4316:
 6106              	.LBB4315:
 6107              	.LBB4309:
 6108              	.LBB4310:
 6109              	.LBB4311:
 6110              		.loc 3 66 0
 6111 1bf8 8169FFFC 		lwz 11,-4(9)
 6112              	.LVL405:
 6113              	.LBE4311:
 6114              	.LBE4310:
 6115              	.LBE4309:
 6116              		.loc 2 240 0
 6117 1bfc 2F8B0000 		cmpwi 7,11,0
 6118              	.LBB4314:
 6119              	.LBB4313:
 6120              	.LBB4312:
 6121              		.loc 3 67 0
 6122 1c00 396BFFFF 		addi 11,11,-1
 6123 1c04 9169FFFC 		stw 11,-4(9)
 6124              	.LBE4312:
 6125              	.LBE4313:
 6126              	.LBE4314:
 6127              		.loc 2 240 0
 6128 1c08 419DF72C 		bgt+ 7,.L495
 6129              		.loc 2 244 0
 6130 1c0c 38810010 		addi 4,1,16
 6131 1c10 48000001 		bl _ZNSs4_Rep10_M_destroyERKSaIcE
 6132              	.LVL406:
 6133 1c14 4BFFF720 		b .L495
 6134              	.LVL407:
 6135              	.L737:
 6136              	.LBE4315:
 6137              	.LBE4316:
 6138              	.LBE4317:
 6139              	.LBE4318:
 6140              	.LBE4360:
 6141              	.LBE4365:
 6142              	.LBE4828:
 6143              	.LBB4829:
 6144              	.LBB4631:
 6145              	.LBB4630:
 6146              	.LBB4629:
 6147              	.LBB4627:
 6148              	.LBB4620:
 6149              	.LBB4621:
 6150              	.LBB4622:
 6151              		.loc 3 66 0
 6152 1c18 8169FFFC 		lwz 11,-4(9)
 6153              	.LVL408:
 6154              	.LBE4622:
 6155              	.LBE4621:
 6156              	.LBE4620:
 6157              		.loc 2 240 0
 6158 1c1c 2F8B0000 		cmpwi 7,11,0
 6159              	.LBB4625:
 6160              	.LBB4624:
 6161              	.LBB4623:
 6162              		.loc 3 67 0
 6163 1c20 396BFFFF 		addi 11,11,-1
 6164 1c24 9169FFFC 		stw 11,-4(9)
 6165              	.LBE4623:
 6166              	.LBE4624:
 6167              	.LBE4625:
 6168              		.loc 2 240 0
 6169 1c28 419DFA4C 		bgt+ 7,.L343
 6170              		.loc 2 244 0
 6171 1c2c 3881001E 		addi 4,1,30
 6172 1c30 48000001 		bl _ZNSs4_Rep10_M_destroyERKSaIcE
 6173              	.LVL409:
 6174 1c34 4BFFFA40 		b .L343
 6175              	.LVL410:
 6176              	.L738:
 6177              	.LBE4627:
 6178              	.LBE4629:
 6179              	.LBE4630:
 6180              	.LBE4631:
 6181              	.LBE4829:
 6182              	.LBB4830:
 6183              	.LBB4649:
 6184              	.LBB4648:
 6185              	.LBB4647:
 6186              	.LBB4646:
 6187              	.LBB4640:
 6188              	.LBB4641:
 6189              	.LBB4642:
 6190              		.loc 3 66 0
 6191 1c38 8169FFFC 		lwz 11,-4(9)
 6192              	.LVL411:
 6193              	.LBE4642:
 6194              	.LBE4641:
 6195              	.LBE4640:
 6196              		.loc 2 240 0
 6197 1c3c 2F8B0000 		cmpwi 7,11,0
 6198              	.LBB4645:
 6199              	.LBB4644:
 6200              	.LBB4643:
 6201              		.loc 3 67 0
 6202 1c40 396BFFFF 		addi 11,11,-1
 6203 1c44 9169FFFC 		stw 11,-4(9)
 6204              	.LBE4643:
 6205              	.LBE4644:
 6206              	.LBE4645:
 6207              		.loc 2 240 0
 6208 1c48 419DFA3C 		bgt+ 7,.L351
 6209              		.loc 2 244 0
 6210 1c4c 3881001D 		addi 4,1,29
 6211 1c50 48000001 		bl _ZNSs4_Rep10_M_destroyERKSaIcE
 6212              	.LVL412:
 6213 1c54 4BFFFA30 		b .L351
 6214              	.LVL413:
 6215              	.L650:
 6216 1c58 7C7F1B78 		mr 31,3
 6217              	.LBE4646:
 6218              	.LBE4647:
 6219              	.LBE4648:
 6220              	.LBE4649:
 6221              	.LBE4830:
 6222              		.loc 1 226 0
 6223 1c5c 38610084 		addi 3,1,132
 6224 1c60 48000001 		bl _ZNSsD1Ev
 6225 1c64 7FE3FB78 		mr 3,31
 6226              	.L697:
 6227 1c68 7C7F1B78 		mr 31,3
 6228 1c6c 38610088 		addi 3,1,136
 6229 1c70 48000001 		bl _ZNSsD1Ev
 6230 1c74 7FE3FB78 		mr 3,31
 6231              	.LEHB121:
 6232 1c78 48000001 		bl _Unwind_Resume
 6233              	.LVL414:
 6234              	.L673:
 6235              	.L703:
 6236 1c7c 7C7F1B78 		mr 31,3
 6237              	.LBB4831:
 6238              	.LBB4531:
 6239              		.loc 1 264 0
 6240 1c80 38610044 		addi 3,1,68
 6241 1c84 48000001 		bl _ZNSsD1Ev
 6242 1c88 7FE3FB78 		mr 3,31
 6243              	.L704:
 6244 1c8c 7C7F1B78 		mr 31,3
 6245 1c90 38610048 		addi 3,1,72
 6246 1c94 48000001 		bl _ZNSsD1Ev
 6247 1c98 7FE3FB78 		mr 3,31
 6248              	.L705:
 6249 1c9c 7C7F1B78 		mr 31,3
 6250 1ca0 3861004C 		addi 3,1,76
 6251 1ca4 48000001 		bl _ZNSsD1Ev
 6252 1ca8 7FE3FB78 		mr 3,31
 6253 1cac 48000001 		bl _Unwind_Resume
 6254              	.LVL415:
 6255              	.L653:
 6256              	.L698:
 6257 1cb0 7C7F1B78 		mr 31,3
 6258              	.LBE4531:
 6259              	.LBE4831:
 6260              		.loc 1 234 0
 6261 1cb4 38610078 		addi 3,1,120
 6262 1cb8 48000001 		bl _ZNSsD1Ev
 6263 1cbc 7FE3FB78 		mr 3,31
 6264 1cc0 48000001 		bl _Unwind_Resume
 6265              	.LVL416:
 6266              	.L670:
 6267 1cc4 4BFFFFD8 		b .L705
 6268              	.L669:
 6269 1cc8 4BFFFFD4 		b .L705
 6270              	.L674:
 6271 1ccc 4BFFFFB0 		b .L703
 6272              	.L671:
 6273 1cd0 4BFFFFBC 		b .L704
 6274              	.LVL417:
 6275              	.L654:
 6276 1cd4 4BFFFFDC 		b .L698
 6277              	.L655:
 6278 1cd8 7C7F1B78 		mr 31,3
 6279 1cdc 38610074 		addi 3,1,116
 6280 1ce0 48000001 		bl _ZNSsD1Ev
 6281 1ce4 7FE3FB78 		mr 3,31
 6282 1ce8 4BFFFFC8 		b .L698
 6283              	.LVL418:
 6284              	.L668:
 6285 1cec 7C7F1B78 		mr 31,3
 6286              	.LBB4832:
 6287              	.LBB4366:
 6288              		.loc 1 259 0
 6289 1cf0 38610050 		addi 3,1,80
 6290 1cf4 48000001 		bl _ZNSsD1Ev
 6291 1cf8 7FE3FB78 		mr 3,31
 6292              	.L701:
 6293 1cfc 7C7F1B78 		mr 31,3
 6294 1d00 38610054 		addi 3,1,84
 6295 1d04 48000001 		bl _ZNSsD1Ev
 6296 1d08 7FE3FB78 		mr 3,31
 6297              	.LVL419:
 6298              	.L702:
 6299 1d0c 7C7F1B78 		mr 31,3
 6300              	.L487:
 6301 1d10 38610060 		addi 3,1,96
 6302              	.LVL420:
 6303 1d14 48000001 		bl _ZNSsD1Ev
 6304              	.LVL421:
 6305 1d18 7FE3FB78 		mr 3,31
 6306 1d1c 48000001 		bl _Unwind_Resume
 6307              	.LVL422:
 6308              	.L647:
 6309 1d20 7C7F1B78 		mr 31,3
 6310              	.LBE4366:
 6311              	.LBE4832:
 6312              		.loc 1 224 0
 6313 1d24 3861008C 		addi 3,1,140
 6314 1d28 48000001 		bl _ZNSsD1Ev
 6315              	.L588:
 6316 1d2c 38610090 		addi 3,1,144
 6317 1d30 48000001 		bl _ZNSsD1Ev
 6318 1d34 7FE3FB78 		mr 3,31
 6319 1d38 48000001 		bl _Unwind_Resume
 6320              	.LVL423:
 6321              	.L666:
 6322 1d3c 4BFFFFC0 		b .L701
 6323              	.L667:
 6324 1d40 4BFFFFBC 		b .L701
 6325              	.L665:
 6326 1d44 4BFFFFC8 		b .L702
 6327              	.LVL424:
 6328              	.L680:
 6329 1d48 7C7F1B78 		mr 31,3
 6330              	.LBB4833:
 6331              	.LBB4570:
 6332              	.LBB4568:
 6333              	.LBB4566:
 6334              		.loc 5 47 0
 6335 1d4c 38790004 		addi 3,25,4
 6336 1d50 48000001 		bl _ZNSsD1Ev
 6337 1d54 7F23CB78 		mr 3,25
 6338 1d58 48000001 		bl _ZNSsD1Ev
 6339              	.LBE4566:
 6340              	.LBE4568:
 6341              		.loc 5 39 0
 6342 1d5c 7F23CB78 		mr 3,25
 6343 1d60 48000001 		bl _ZdlPv
 6344 1d64 7FE3FB78 		mr 3,31
 6345 1d68 48000001 		bl _Unwind_Resume
 6346              	.LVL425:
 6347              	.L682:
 6348              	.L706:
 6349 1d6c 7C7E1B78 		mr 30,3
 6350              	.LBE4570:
 6351              	.LBE4833:
 6352              	.LBB4834:
 6353              	.LBB4775:
 6354              	.LBB4773:
 6355              	.LBB4771:
 6356              		.loc 5 47 0
 6357 1d70 387F0004 		addi 3,31,4
 6358 1d74 48000001 		bl _ZNSsD1Ev
 6359 1d78 7FE3FB78 		mr 3,31
 6360 1d7c 48000001 		bl _ZNSsD1Ev
 6361              	.LBE4771:
 6362              	.LBE4773:
 6363              		.loc 5 39 0
 6364 1d80 7FE3FB78 		mr 3,31
 6365 1d84 48000001 		bl _ZdlPv
 6366 1d88 7FC3F378 		mr 3,30
 6367 1d8c 48000001 		bl _Unwind_Resume
 6368              	.LVL426:
 6369              	.L649:
 6370 1d90 4BFFFED8 		b .L697
 6371              	.L648:
 6372 1d94 4BFFFED4 		b .L697
 6373              	.LVL427:
 6374              	.L675:
 6375 1d98 7C7F1B78 		mr 31,3
 6376              	.L631:
 6377              	.LBE4775:
 6378              	.LBE4834:
 6379              	.LBB4835:
 6380              	.LBB4532:
 6381              		.loc 1 264 0
 6382 1d9c 38610040 		addi 3,1,64
 6383 1da0 48000001 		bl _ZNSsD1Ev
 6384 1da4 7FE3FB78 		mr 3,31
 6385 1da8 4BFFFED4 		b .L703
 6386              	.L651:
 6387 1dac 7C7F1B78 		mr 31,3
 6388              	.L597:
 6389              	.LBE4532:
 6390              	.LBE4835:
 6391              		.loc 1 232 0
 6392 1db0 38610080 		addi 3,1,128
 6393 1db4 48000001 		bl _ZNSsD1Ev
 6394 1db8 7FE3FB78 		mr 3,31
 6395 1dbc 48000001 		bl _Unwind_Resume
 6396              	.L676:
 6397 1dc0 7C7F1B78 		mr 31,3
 6398              	.L628:
 6399              	.LBB4836:
 6400              	.LBB4533:
 6401              		.loc 1 264 0
 6402 1dc4 3861003C 		addi 3,1,60
 6403 1dc8 48000001 		bl _ZNSsD1Ev
 6404 1dcc 4BFFFFD0 		b .L631
 6405              	.LVL428:
 6406              	.L683:
 6407 1dd0 7C7F1B78 		mr 31,3
 6408              	.LBE4533:
 6409              	.LBE4836:
 6410              	.LBB4837:
 6411              	.LBB4367:
 6412              	.LBB4361:
 6413              	.LBB4300:
 6414              	.LBB4298:
 6415              	.LBB4296:
 6416              		.loc 5 47 0
 6417 1dd4 387A0004 		addi 3,26,4
 6418 1dd8 48000001 		bl _ZNSsD1Ev
 6419 1ddc 7F43D378 		mr 3,26
 6420 1de0 48000001 		bl _ZNSsD1Ev
 6421              	.LBE4296:
 6422              	.LBE4298:
 6423              		.loc 5 39 0
 6424 1de4 7F43D378 		mr 3,26
 6425 1de8 48000001 		bl _ZdlPv
 6426 1dec 4BFFFF24 		b .L487
 6427              	.LVL429:
 6428              	.L652:
 6429 1df0 7C7F1B78 		mr 31,3
 6430              	.LBE4300:
 6431              	.LBE4361:
 6432              	.LBE4367:
 6433              	.LBE4837:
 6434              		.loc 1 232 0
 6435 1df4 3861007C 		addi 3,1,124
 6436 1df8 48000001 		bl _ZNSsD1Ev
 6437 1dfc 4BFFFFB4 		b .L597
 6438              	.LVL430:
 6439              	.L663:
 6440 1e00 7C7F1B78 		mr 31,3
 6441              	.L616:
 6442              	.LBB4838:
 6443              	.LBB4368:
 6444              		.loc 1 257 0
 6445 1e04 3861005C 		addi 3,1,92
 6446 1e08 48000001 		bl _ZNSsD1Ev
 6447 1e0c 4BFFFF04 		b .L487
 6448              	.L662:
 6449 1e10 4BFFFEFC 		b .L702
 6450              	.LVL431:
 6451              	.L678:
 6452 1e14 7C7F1B78 		mr 31,3
 6453              	.LBE4368:
 6454              	.LBE4838:
 6455              	.LBB4839:
 6456              	.LBB4199:
 6457              	.LBB4196:
 6458              	.LBB4194:
 6459              	.LBB4192:
 6460              		.loc 5 48 0
 6461 1e18 387D0004 		addi 3,29,4
 6462 1e1c 48000001 		bl _ZNSsD1Ev
 6463 1e20 7FA3EB78 		mr 3,29
 6464 1e24 48000001 		bl _ZNSsD1Ev
 6465 1e28 7FE3FB78 		mr 3,31
 6466 1e2c 48000001 		bl _Unwind_Resume
 6467              	.LVL432:
 6468              	.L664:
 6469 1e30 7C7F1B78 		mr 31,3
 6470              	.LBE4192:
 6471              	.LBE4194:
 6472              	.LBE4196:
 6473              	.LBE4199:
 6474              	.LBE4839:
 6475              	.LBB4840:
 6476              	.LBB4369:
 6477              		.loc 1 257 0
 6478 1e34 38610058 		addi 3,1,88
 6479 1e38 48000001 		bl _ZNSsD1Ev
 6480 1e3c 4BFFFFC8 		b .L616
 6481              	.LVL433:
 6482              	.L646:
 6483 1e40 7C7F1B78 		mr 31,3
 6484 1e44 4BFFFEE8 		b .L588
 6485              	.L677:
 6486 1e48 7C7F1B78 		mr 31,3
 6487              	.LBE4369:
 6488              	.LBE4840:
 6489              	.LBB4841:
 6490              	.LBB4534:
 6491              		.loc 1 264 0
 6492 1e4c 38610038 		addi 3,1,56
 6493 1e50 48000001 		bl _ZNSsD1Ev
 6494 1e54 4BFFFF70 		b .L628
 6495              	.L672:
 6496 1e58 4BFFFE34 		b .L704
 6497              	.LVL434:
 6498              	.L688:
 6499 1e5c 4BFFFF10 		b .L706
 6500              	.LVL435:
 6501              	.L684:
 6502 1e60 4BFFFF0C 		b .L706
 6503              	.LVL436:
 6504              	.L645:
 6505 1e64 7C7F1B78 		mr 31,3
 6506              	.LBE4534:
 6507              	.LBE4841:
 6508              		.loc 1 216 0
 6509 1e68 7F83E378 		mr 3,28
 6510 1e6c 48000001 		bl _ZdlPv
 6511 1e70 7FE3FB78 		mr 3,31
 6512 1e74 48000001 		bl _Unwind_Resume
 6513              	.LVL437:
 6514              	.L679:
 6515 1e78 7C7F1B78 		mr 31,3
 6516              	.LBB4842:
 6517              	.LBB4668:
 6518              	.LBB4666:
 6519              	.LBB4664:
 6520              		.loc 5 47 0
 6521 1e7c 387A0004 		addi 3,26,4
 6522 1e80 48000001 		bl _ZNSsD1Ev
 6523 1e84 7F43D378 		mr 3,26
 6524 1e88 48000001 		bl _ZNSsD1Ev
 6525              	.LBE4664:
 6526              	.LBE4666:
 6527              		.loc 5 39 0
 6528 1e8c 7F43D378 		mr 3,26
 6529 1e90 48000001 		bl _ZdlPv
 6530 1e94 7FE3FB78 		mr 3,31
 6531 1e98 48000001 		bl _Unwind_Resume
 6532              	.LVL438:
 6533              	.L661:
 6534 1e9c 7C7F1B78 		mr 31,3
 6535              	.LBE4668:
 6536              	.LBE4842:
 6537              		.loc 1 249 0
 6538 1ea0 38610064 		addi 3,1,100
 6539 1ea4 48000001 		bl _ZNSsD1Ev
 6540 1ea8 7FE3FB78 		mr 3,31
 6541              	.L700:
 6542 1eac 7C7F1B78 		mr 31,3
 6543 1eb0 38610068 		addi 3,1,104
 6544 1eb4 48000001 		bl _ZNSsD1Ev
 6545 1eb8 7FE3FB78 		mr 3,31
 6546 1ebc 48000001 		bl _Unwind_Resume
 6547              	.L660:
 6548 1ec0 4BFFFFEC 		b .L700
 6549              	.L659:
 6550 1ec4 4BFFFFE8 		b .L700
 6551              	.LVL439:
 6552              	.L681:
 6553 1ec8 4BFFFEA4 		b .L706
 6554              	.LVL440:
 6555              	.L744:
 6556              	.LBB4843:
 6557              	.LBB4742:
 6558              	.LBB4741:
 6559              	.LBB4740:
 6560              	.LBB4738:
 6561              	.LBB4731:
 6562              	.LBB4732:
 6563              	.LBB4733:
 6564              		.loc 3 66 0
 6565 1ecc 8169FFFC 		lwz 11,-4(9)
 6566              	.LVL441:
 6567              	.LBE4733:
 6568              	.LBE4732:
 6569              	.LBE4731:
 6570              		.loc 2 240 0
 6571 1ed0 2F8B0000 		cmpwi 7,11,0
 6572              	.LBB4736:
 6573              	.LBB4735:
 6574              	.LBB4734:
 6575              		.loc 3 67 0
 6576 1ed4 396BFFFF 		addi 11,11,-1
 6577 1ed8 9169FFFC 		stw 11,-4(9)
 6578              	.LBE4734:
 6579              	.LBE4735:
 6580              	.LBE4736:
 6581              		.loc 2 240 0
 6582 1edc 419DF900 		bgt+ 7,.L431
 6583              		.loc 2 244 0
 6584 1ee0 38810016 		addi 4,1,22
 6585 1ee4 48000001 		bl _ZNSs4_Rep10_M_destroyERKSaIcE
 6586              	.LVL442:
 6587 1ee8 4BFFF8F4 		b .L431
 6588              	.LVL443:
 6589              	.L687:
 6590              	.L707:
 6591 1eec 7C7E1B78 		mr 30,3
 6592              	.LBE4738:
 6593              	.LBE4740:
 6594              	.LBE4741:
 6595              	.LBE4742:
 6596              	.LBE4843:
 6597              	.LBB4844:
 6598              	.LBB4609:
 6599              		.loc 6 27 0
 6600 1ef0 7FE3FB78 		mr 3,31
 6601 1ef4 48000001 		bl _ZdlPv
 6602 1ef8 7FC3F378 		mr 3,30
 6603 1efc 48000001 		bl _Unwind_Resume
 6604              	.LVL444:
 6605              	.L746:
 6606              	.LBE4609:
 6607              	.LBE4844:
 6608              	.LBB4845:
 6609              	.LBB4795:
 6610              	.LBB4794:
 6611              	.LBB4793:
 6612              	.LBB4791:
 6613              	.LBB4784:
 6614              	.LBB4785:
 6615              	.LBB4786:
 6616              		.loc 3 66 0
 6617 1f00 8169FFFC 		lwz 11,-4(9)
 6618              	.LVL445:
 6619              	.LBE4786:
 6620              	.LBE4785:
 6621              	.LBE4784:
 6622              		.loc 2 240 0
 6623 1f04 2F8B0000 		cmpwi 7,11,0
 6624              	.LBB4789:
 6625              	.LBB4788:
 6626              	.LBB4787:
 6627              		.loc 3 67 0
 6628 1f08 396BFFFF 		addi 11,11,-1
 6629 1f0c 9169FFFC 		stw 11,-4(9)
 6630              	.LBE4787:
 6631              	.LBE4788:
 6632              	.LBE4789:
 6633              		.loc 2 240 0
 6634 1f10 419DF978 		bgt+ 7,.L446
 6635              		.loc 2 244 0
 6636 1f14 38810014 		addi 4,1,20
 6637 1f18 48000001 		bl _ZNSs4_Rep10_M_destroyERKSaIcE
 6638              	.LVL446:
 6639 1f1c 4BFFF96C 		b .L446
 6640              	.LVL447:
 6641              	.L686:
 6642 1f20 4BFFFFCC 		b .L707
 6643              	.L658:
 6644 1f24 7C7F1B78 		mr 31,3
 6645              	.LBE4791:
 6646              	.LBE4793:
 6647              	.LBE4794:
 6648              	.LBE4795:
 6649              	.LBE4845:
 6650              		.loc 1 243 0
 6651 1f28 3861006C 		addi 3,1,108
 6652 1f2c 48000001 		bl _ZNSsD1Ev
 6653 1f30 7FE3FB78 		mr 3,31
 6654              	.L699:
 6655 1f34 7C7F1B78 		mr 31,3
 6656 1f38 38610070 		addi 3,1,112
 6657 1f3c 48000001 		bl _ZNSsD1Ev
 6658 1f40 7FE3FB78 		mr 3,31
 6659 1f44 48000001 		bl _Unwind_Resume
 6660              	.LEHE121:
 6661              	.L657:
 6662 1f48 4BFFFFEC 		b .L699
 6663              	.L656:
 6664 1f4c 4BFFFFE8 		b .L699
 6665              	.LVL448:
 6666              	.L685:
 6667 1f50 4BFFFE1C 		b .L706
 6668              	.LBE4852:
 6669              		.cfi_endproc
 6670              	.LFE1504:
 6671              		.section	.gcc_except_table
 6672              	.LLSDA1504:
 6673 014f FF       		.byte	0xff
 6674 0150 FF       		.byte	0xff
 6675 0151 01       		.byte	0x1
 6676 0152 F302     		.uleb128 .LLSDACSE1504-.LLSDACSB1504
 6677              	.LLSDACSB1504:
 6678 0154 4C       		.uleb128 .LEHB57-.LFB1504
 6679 0155 04       		.uleb128 .LEHE57-.LEHB57
 6680 0156 A41A     		.uleb128 .L678-.LFB1504
 6681 0158 00       		.uleb128 0
 6682 0159 B401     		.uleb128 .LEHB58-.LFB1504
 6683 015b 14       		.uleb128 .LEHE58-.LEHB58
 6684 015c 00       		.uleb128 0
 6685 015d 00       		.uleb128 0
 6686 015e D401     		.uleb128 .LEHB59-.LFB1504
 6687 0160 04       		.uleb128 .LEHE59-.LEHB59
 6688 0161 BC19     		.uleb128 .L651-.LFB1504
 6689 0163 00       		.uleb128 0
 6690 0164 E401     		.uleb128 .LEHB60-.LFB1504
 6691 0166 04       		.uleb128 .LEHE60-.LEHB60
 6692 0167 801A     		.uleb128 .L652-.LFB1504
 6693 0169 00       		.uleb128 0
 6694 016a 9002     		.uleb128 .LEHB61-.LFB1504
 6695 016c 5C       		.uleb128 .LEHE61-.LEHB61
 6696 016d 00       		.uleb128 0
 6697 016e 00       		.uleb128 0
 6698 016f FC02     		.uleb128 .LEHB62-.LFB1504
 6699 0171 10       		.uleb128 .LEHE62-.LEHB62
 6700 0172 A01A     		.uleb128 .L662-.LFB1504
 6701 0174 00       		.uleb128 0
 6702 0175 A003     		.uleb128 .LEHB63-.LFB1504
 6703 0177 04       		.uleb128 .LEHE63-.LEHB63
 6704 0178 901A     		.uleb128 .L663-.LFB1504
 6705 017a 00       		.uleb128 0
 6706 017b B003     		.uleb128 .LEHB64-.LFB1504
 6707 017d 04       		.uleb128 .LEHE64-.LEHB64
 6708 017e C01A     		.uleb128 .L664-.LFB1504
 6709 0180 00       		.uleb128 0
 6710 0181 E003     		.uleb128 .LEHB65-.LFB1504
 6711 0183 04       		.uleb128 .LEHE65-.LEHB65
 6712 0184 A01A     		.uleb128 .L662-.LFB1504
 6713 0186 00       		.uleb128 0
 6714 0187 8404     		.uleb128 .LEHB66-.LFB1504
 6715 0189 04       		.uleb128 .LEHE66-.LEHB66
 6716 018a D418     		.uleb128 .L665-.LFB1504
 6717 018c 00       		.uleb128 0
 6718 018d 9004     		.uleb128 .LEHB67-.LFB1504
 6719 018f 04       		.uleb128 .LEHE67-.LEHB67
 6720 0190 CC18     		.uleb128 .L666-.LFB1504
 6721 0192 00       		.uleb128 0
 6722 0193 A004     		.uleb128 .LEHB68-.LFB1504
 6723 0195 04       		.uleb128 .LEHE68-.LEHB68
 6724 0196 D018     		.uleb128 .L667-.LFB1504
 6725 0198 00       		.uleb128 0
 6726 0199 B004     		.uleb128 .LEHB69-.LFB1504
 6727 019b 04       		.uleb128 .LEHE69-.LEHB69
 6728 019c FC17     		.uleb128 .L668-.LFB1504
 6729 019e 00       		.uleb128 0
 6730 019f 8405     		.uleb128 .LEHB70-.LFB1504
 6731 01a1 14       		.uleb128 .LEHE70-.LEHB70
 6732 01a2 00       		.uleb128 0
 6733 01a3 00       		.uleb128 0
 6734 01a4 A005     		.uleb128 .LEHB71-.LFB1504
 6735 01a6 04       		.uleb128 .LEHE71-.LEHB71
 6736 01a7 D817     		.uleb128 .L669-.LFB1504
 6737 01a9 00       		.uleb128 0
 6738 01aa B005     		.uleb128 .LEHB72-.LFB1504
 6739 01ac 04       		.uleb128 .LEHE72-.LEHB72
 6740 01ad D417     		.uleb128 .L670-.LFB1504
 6741 01af 00       		.uleb128 0
 6742 01b0 BC05     		.uleb128 .LEHB73-.LFB1504
 6743 01b2 04       		.uleb128 .LEHE73-.LEHB73
 6744 01b3 E017     		.uleb128 .L671-.LFB1504
 6745 01b5 00       		.uleb128 0
 6746 01b6 CC05     		.uleb128 .LEHB74-.LFB1504
 6747 01b8 04       		.uleb128 .LEHE74-.LEHB74
 6748 01b9 E81A     		.uleb128 .L672-.LFB1504
 6749 01bb 00       		.uleb128 0
 6750 01bc D805     		.uleb128 .LEHB75-.LFB1504
 6751 01be 04       		.uleb128 .LEHE75-.LEHB75
 6752 01bf 8C17     		.uleb128 .L673-.LFB1504
 6753 01c1 00       		.uleb128 0
 6754 01c2 E805     		.uleb128 .LEHB76-.LFB1504
 6755 01c4 04       		.uleb128 .LEHE76-.LEHB76
 6756 01c5 DC17     		.uleb128 .L674-.LFB1504
 6757 01c7 00       		.uleb128 0
 6758 01c8 8006     		.uleb128 .LEHB77-.LFB1504
 6759 01ca 04       		.uleb128 .LEHE77-.LEHB77
 6760 01cb A819     		.uleb128 .L675-.LFB1504
 6761 01cd 00       		.uleb128 0
 6762 01ce 9006     		.uleb128 .LEHB78-.LFB1504
 6763 01d0 04       		.uleb128 .LEHE78-.LEHB78
 6764 01d1 D019     		.uleb128 .L676-.LFB1504
 6765 01d3 00       		.uleb128 0
 6766 01d4 B006     		.uleb128 .LEHB79-.LFB1504
 6767 01d6 04       		.uleb128 .LEHE79-.LEHB79
 6768 01d7 D81A     		.uleb128 .L677-.LFB1504
 6769 01d9 00       		.uleb128 0
 6770 01da 9008     		.uleb128 .LEHB80-.LFB1504
 6771 01dc 04       		.uleb128 .LEHE80-.LEHB80
 6772 01dd 00       		.uleb128 0
 6773 01de 00       		.uleb128 0
 6774 01df 9C08     		.uleb128 .LEHB81-.LFB1504
 6775 01e1 04       		.uleb128 .LEHE81-.LEHB81
 6776 01e2 C017     		.uleb128 .L653-.LFB1504
 6777 01e4 00       		.uleb128 0
 6778 01e5 AC08     		.uleb128 .LEHB82-.LFB1504
 6779 01e7 04       		.uleb128 .LEHE82-.LEHB82
 6780 01e8 E417     		.uleb128 .L654-.LFB1504
 6781 01ea 00       		.uleb128 0
 6782 01eb BC08     		.uleb128 .LEHB83-.LFB1504
 6783 01ed 04       		.uleb128 .LEHE83-.LEHB83
 6784 01ee E817     		.uleb128 .L655-.LFB1504
 6785 01f0 00       		.uleb128 0
 6786 01f1 9809     		.uleb128 .LEHB84-.LFB1504
 6787 01f3 38       		.uleb128 .LEHE84-.LEHB84
 6788 01f4 00       		.uleb128 0
 6789 01f5 00       		.uleb128 0
 6790 01f6 E409     		.uleb128 .LEHB85-.LFB1504
 6791 01f8 04       		.uleb128 .LEHE85-.LEHB85
 6792 01f9 EC1A     		.uleb128 .L688-.LFB1504
 6793 01fb 00       		.uleb128 0
 6794 01fc B80A     		.uleb128 .LEHB86-.LFB1504
 6795 01fe 14       		.uleb128 .LEHE86-.LEHB86
 6796 01ff 00       		.uleb128 0
 6797 0200 00       		.uleb128 0
 6798 0201 D80A     		.uleb128 .LEHB87-.LFB1504
 6799 0203 04       		.uleb128 .LEHE87-.LEHB87
 6800 0204 D01A     		.uleb128 .L646-.LFB1504
 6801 0206 00       		.uleb128 0
 6802 0207 E80A     		.uleb128 .LEHB88-.LFB1504
 6803 0209 04       		.uleb128 .LEHE88-.LEHB88
 6804 020a B018     		.uleb128 .L647-.LFB1504
 6805 020c 00       		.uleb128 0
 6806 020d 940B     		.uleb128 .LEHB89-.LFB1504
 6807 020f 28       		.uleb128 .LEHE89-.LEHB89
 6808 0210 00       		.uleb128 0
 6809 0211 00       		.uleb128 0
 6810 0212 C40B     		.uleb128 .LEHB90-.LFB1504
 6811 0214 04       		.uleb128 .LEHE90-.LEHB90
 6812 0215 A419     		.uleb128 .L648-.LFB1504
 6813 0217 00       		.uleb128 0
 6814 0218 D40B     		.uleb128 .LEHB91-.LFB1504
 6815 021a 04       		.uleb128 .LEHE91-.LEHB91
 6816 021b A019     		.uleb128 .L649-.LFB1504
 6817 021d 00       		.uleb128 0
 6818 021e E40B     		.uleb128 .LEHB92-.LFB1504
 6819 0220 04       		.uleb128 .LEHE92-.LEHB92
 6820 0221 E816     		.uleb128 .L650-.LFB1504
 6821 0223 00       		.uleb128 0
 6822 0224 900C     		.uleb128 .LEHB93-.LFB1504
 6823 0226 28       		.uleb128 .LEHE93-.LEHB93
 6824 0227 00       		.uleb128 0
 6825 0228 00       		.uleb128 0
 6826 0229 BC0C     		.uleb128 .LEHB94-.LFB1504
 6827 022b 04       		.uleb128 .LEHE94-.LEHB94
 6828 022c F41A     		.uleb128 .L645-.LFB1504
 6829 022e 00       		.uleb128 0
 6830 022f CC0C     		.uleb128 .LEHB95-.LFB1504
 6831 0231 04       		.uleb128 .LEHE95-.LEHB95
 6832 0232 00       		.uleb128 0
 6833 0233 00       		.uleb128 0
 6834 0234 E40C     		.uleb128 .LEHB96-.LFB1504
 6835 0236 04       		.uleb128 .LEHE96-.LEHB96
 6836 0237 F01A     		.uleb128 .L684-.LFB1504
 6837 0239 00       		.uleb128 0
 6838 023a F40C     		.uleb128 .LEHB97-.LFB1504
 6839 023c 34       		.uleb128 .LEHE97-.LEHB97
 6840 023d 00       		.uleb128 0
 6841 023e 00       		.uleb128 0
 6842 023f B00D     		.uleb128 .LEHB98-.LFB1504
 6843 0241 04       		.uleb128 .LEHE98-.LEHB98
 6844 0242 DC1C     		.uleb128 .L656-.LFB1504
 6845 0244 00       		.uleb128 0
 6846 0245 C00D     		.uleb128 .LEHB99-.LFB1504
 6847 0247 04       		.uleb128 .LEHE99-.LEHB99
 6848 0248 D81C     		.uleb128 .L657-.LFB1504
 6849 024a 00       		.uleb128 0
 6850 024b D00D     		.uleb128 .LEHB100-.LFB1504
 6851 024d 04       		.uleb128 .LEHE100-.LEHB100
 6852 024e B41C     		.uleb128 .L658-.LFB1504
 6853 0250 00       		.uleb128 0
 6854 0251 A00E     		.uleb128 .LEHB101-.LFB1504
 6855 0253 34       		.uleb128 .LEHE101-.LEHB101
 6856 0254 00       		.uleb128 0
 6857 0255 00       		.uleb128 0
 6858 0256 DC0E     		.uleb128 .LEHB102-.LFB1504
 6859 0258 04       		.uleb128 .LEHE102-.LEHB102
 6860 0259 D41B     		.uleb128 .L659-.LFB1504
 6861 025b 00       		.uleb128 0
 6862 025c EC0E     		.uleb128 .LEHB103-.LFB1504
 6863 025e 04       		.uleb128 .LEHE103-.LEHB103
 6864 025f D01B     		.uleb128 .L660-.LFB1504
 6865 0261 00       		.uleb128 0
 6866 0262 FC0E     		.uleb128 .LEHB104-.LFB1504
 6867 0264 04       		.uleb128 .LEHE104-.LEHB104
 6868 0265 AC1B     		.uleb128 .L661-.LFB1504
 6869 0267 00       		.uleb128 0
 6870 0268 EC10     		.uleb128 .LEHB105-.LFB1504
 6871 026a 04       		.uleb128 .LEHE105-.LEHB105
 6872 026b 00       		.uleb128 0
 6873 026c 00       		.uleb128 0
 6874 026d F410     		.uleb128 .LEHB106-.LFB1504
 6875 026f 04       		.uleb128 .LEHE106-.LEHB106
 6876 0270 FC1B     		.uleb128 .L687-.LFB1504
 6877 0272 00       		.uleb128 0
 6878 0273 8411     		.uleb128 .LEHB107-.LFB1504
 6879 0275 04       		.uleb128 .LEHE107-.LEHB107
 6880 0276 00       		.uleb128 0
 6881 0277 00       		.uleb128 0
 6882 0278 8C11     		.uleb128 .LEHB108-.LFB1504
 6883 027a 04       		.uleb128 .LEHE108-.LEHB108
 6884 027b B01C     		.uleb128 .L686-.LFB1504
 6885 027d 00       		.uleb128 0
 6886 027e 9C11     		.uleb128 .LEHB109-.LFB1504
 6887 0280 04       		.uleb128 .LEHE109-.LEHB109
 6888 0281 00       		.uleb128 0
 6889 0282 00       		.uleb128 0
 6890 0283 B411     		.uleb128 .LEHB110-.LFB1504
 6891 0285 04       		.uleb128 .LEHE110-.LEHB110
 6892 0286 D818     		.uleb128 .L680-.LFB1504
 6893 0288 00       		.uleb128 0
 6894 0289 C411     		.uleb128 .LEHB111-.LFB1504
 6895 028b 04       		.uleb128 .LEHE111-.LEHB111
 6896 028c A01A     		.uleb128 .L662-.LFB1504
 6897 028e 00       		.uleb128 0
 6898 028f DC11     		.uleb128 .LEHB112-.LFB1504
 6899 0291 04       		.uleb128 .LEHE112-.LEHB112
 6900 0292 E019     		.uleb128 .L683-.LFB1504
 6901 0294 00       		.uleb128 0
 6902 0295 EC11     		.uleb128 .LEHB113-.LFB1504
 6903 0297 04       		.uleb128 .LEHE113-.LEHB113
 6904 0298 00       		.uleb128 0
 6905 0299 00       		.uleb128 0
 6906 029a 8412     		.uleb128 .LEHB114-.LFB1504
 6907 029c 04       		.uleb128 .LEHE114-.LEHB114
 6908 029d 881B     		.uleb128 .L679-.LFB1504
 6909 029f 00       		.uleb128 0
 6910 02a0 9412     		.uleb128 .LEHB115-.LFB1504
 6911 02a2 04       		.uleb128 .LEHE115-.LEHB115
 6912 02a3 00       		.uleb128 0
 6913 02a4 00       		.uleb128 0
 6914 02a5 AC12     		.uleb128 .LEHB116-.LFB1504
 6915 02a7 04       		.uleb128 .LEHE116-.LEHB116
 6916 02a8 E01C     		.uleb128 .L685-.LFB1504
 6917 02aa 00       		.uleb128 0
 6918 02ab BC12     		.uleb128 .LEHB117-.LFB1504
 6919 02ad 04       		.uleb128 .LEHE117-.LEHB117
 6920 02ae 00       		.uleb128 0
 6921 02af 00       		.uleb128 0
 6922 02b0 D412     		.uleb128 .LEHB118-.LFB1504
 6923 02b2 04       		.uleb128 .LEHE118-.LEHB118
 6924 02b3 D81B     		.uleb128 .L681-.LFB1504
 6925 02b5 00       		.uleb128 0
 6926 02b6 E412     		.uleb128 .LEHB119-.LFB1504
 6927 02b8 04       		.uleb128 .LEHE119-.LEHB119
 6928 02b9 00       		.uleb128 0
 6929 02ba 00       		.uleb128 0
 6930 02bb FC12     		.uleb128 .LEHB120-.LFB1504
 6931 02bd 04       		.uleb128 .LEHE120-.LEHB120
 6932 02be FC18     		.uleb128 .L682-.LFB1504
 6933 02c0 00       		.uleb128 0
 6934 02c1 8817     		.uleb128 .LEHB121-.LFB1504
 6935 02c3 D005     		.uleb128 .LEHE121-.LEHB121
 6936 02c5 00       		.uleb128 0
 6937 02c6 00       		.uleb128 0
 6938              	.LLSDACSE1504:
 6939              		.section	".text"
 6940              		.size	_Z11UpdateFilesbP12UpdateWindow, .-_Z11UpdateFilesbP12UpdateWindow
 6941              		.align 2
 6942              		.globl _Z9UpdateAppPKcP12UpdateWindow
 6943              		.type	_Z9UpdateAppPKcP12UpdateWindow, @function
 6944              	_Z9UpdateAppPKcP12UpdateWindow:
 6945              	.LFB1502:
 6946              		.loc 1 132 0
 6947              		.cfi_startproc
 6948              		.cfi_personality 0,__gxx_personality_v0
 6949              		.cfi_lsda 0,.LLSDA1502
 6950              	.LVL449:
 6951 1f54 9421FF20 		stwu 1,-224(1)
 6952              	.LCFI39:
 6953              		.cfi_def_cfa_offset 224
 6954 1f58 7C0802A6 		mflr 0
 6955 1f5c 936100CC 		stw 27,204(1)
 6956              	.LBB5826:
 6957              		.loc 1 137 0
 6958 1f60 7C9B2379 		mr. 27,4
 6959              		.cfi_offset 27, -20
 6960              		.cfi_register 65, 0
 6961              	.LBE5826:
 6962              		.loc 1 132 0
 6963 1f64 932100C4 		stw 25,196(1)
 6964              	.LBB6638:
 6965              		.loc 1 134 0
 6966 1f68 3B200000 		li 25,0
 6967              		.cfi_offset 25, -28
 6968              	.LBE6638:
 6969              		.loc 1 132 0
 6970 1f6c 93C100D8 		stw 30,216(1)
 6971 1f70 7C7E1B78 		mr 30,3
 6972              		.cfi_offset 30, -8
 6973 1f74 900100E4 		stw 0,228(1)
 6974 1f78 92E100BC 		stw 23,188(1)
 6975 1f7c 930100C0 		stw 24,192(1)
 6976 1f80 934100C8 		stw 26,200(1)
 6977 1f84 938100D0 		stw 28,208(1)
 6978 1f88 93A100D4 		stw 29,212(1)
 6979 1f8c 93E100DC 		stw 31,220(1)
 6980              	.LBB6639:
 6981              		.loc 1 137 0
 6982 1f90 41820654 		beq- 0,.L1215
 6983              		.cfi_offset 31, -4
 6984              		.cfi_offset 29, -12
 6985              		.cfi_offset 28, -16
 6986              		.cfi_offset 26, -24
 6987              		.cfi_offset 24, -32
 6988              		.cfi_offset 23, -36
 6989              		.cfi_offset 65, 4
 6990              	.LVL450:
 6991              	.L748:
 6992              		.loc 1 142 0
 6993 1f94 3F400000 		lis 26,.LC9@ha
 6994 1f98 3B5A00A8 		la 26,.LC9@l(26)
 6995 1f9c 7F43D378 		mr 3,26
 6996              	.LEHB122:
 6997 1fa0 48000001 		bl gettext
 6998 1fa4 38A10040 		addi 5,1,64
 6999 1fa8 7C641B78 		mr 4,3
 7000 1fac 386100B0 		addi 3,1,176
 7001 1fb0 48000001 		bl _ZNSsC1EPKcRKSaIcE
 7002              	.LEHE122:
 7003 1fb4 3C800000 		lis 4,.LC26@ha
 7004 1fb8 386100AC 		addi 3,1,172
 7005 1fbc 38840188 		la 4,.LC26@l(4)
 7006 1fc0 38A1003F 		addi 5,1,63
 7007              	.LEHB123:
 7008 1fc4 48000001 		bl _ZNSsC1EPKcRKSaIcE
 7009              	.LEHE123:
 7010              		.loc 1 142 0 is_stmt 0 discriminator 2
 7011 1fc8 7F63DB78 		mr 3,27
 7012 1fcc 388100B0 		addi 4,1,176
 7013 1fd0 38A100AC 		addi 5,1,172
 7014              	.LEHB124:
 7015 1fd4 48000001 		bl _ZN12UpdateWindow12ShowThrobberESsSs
 7016              	.LEHE124:
 7017              	.LVL451:
 7018              	.LBB5827:
 7019              	.LBB5828:
 7020              	.LBB5829:
 7021              	.LBB5830:
 7022              	.LBB5831:
 7023              	.LBB5832:
 7024              		.loc 2 288 0 is_stmt 1
 7025 1fd8 812100AC 		lwz 9,172(1)
 7026              	.LBE5832:
 7027              	.LBE5831:
 7028              	.LBE5830:
 7029              	.LBB5833:
 7030              	.LBB5834:
 7031              		.loc 2 235 0
 7032 1fdc 3FE00000 		lis 31,_ZNSs4_Rep20_S_empty_rep_storageE@ha
 7033 1fe0 3BFF0000 		la 31,_ZNSs4_Rep20_S_empty_rep_storageE@l(31)
 7034              	.LBE5834:
 7035              	.LBE5833:
 7036              		.loc 2 534 0
 7037 1fe4 3869FFF4 		addi 3,9,-12
 7038              	.LVL452:
 7039              	.LBB5843:
 7040              	.LBB5841:
 7041              		.loc 2 235 0
 7042 1fe8 7F83F800 		cmpw 7,3,31
 7043 1fec 409E0B60 		bne- 7,.L1216
 7044              	.LVL453:
 7045              	.L756:
 7046              	.LBE5841:
 7047              	.LBE5843:
 7048              	.LBE5829:
 7049              	.LBE5828:
 7050              	.LBE5827:
 7051              	.LBB5847:
 7052              	.LBB5848:
 7053              	.LBB5849:
 7054              	.LBB5850:
 7055              	.LBB5851:
 7056              	.LBB5852:
 7057              		.loc 2 288 0
 7058 1ff0 812100B0 		lwz 9,176(1)
 7059              	.LBE5852:
 7060              	.LBE5851:
 7061              	.LBE5850:
 7062              		.loc 2 534 0
 7063 1ff4 3869FFF4 		addi 3,9,-12
 7064              	.LVL454:
 7065              	.LBB5853:
 7066              	.LBB5854:
 7067              		.loc 2 235 0
 7068 1ff8 7F83F800 		cmpw 7,3,31
 7069 1ffc 409E0B70 		bne- 7,.L1217
 7070              	.LVL455:
 7071              	.L764:
 7072              	.LBE5854:
 7073              	.LBE5853:
 7074              	.LBE5849:
 7075              	.LBE5848:
 7076              	.LBE5847:
 7077              		.loc 1 144 0 discriminator 1
 7078 2000 2F9E0000 		cmpwi 7,30,0
 7079 2004 419E0A74 		beq- 7,.L1218
 7080              		.loc 1 150 0
 7081 2008 7FC3F378 		mr 3,30
 7082              	.LEHB125:
 7083 200c 48000001 		bl _Z11DownloadDolPKc
 7084              	.LEHE125:
 7085 2010 2F830000 		cmpwi 7,3,0
 7086 2014 419E0920 		beq- 7,.L1219
 7087              	.LVL456:
 7088              	.LBB5865:
 7089              	.LBB5866:
 7090              	.LBB5867:
 7091              		.loc 1 214 0
 7092 2018 2F9B0000 		cmpwi 7,27,0
 7093 201c 7F7CDB78 		mr 28,27
 7094              		.loc 1 212 0
 7095 2020 3B000000 		li 24,0
 7096              		.loc 1 214 0
 7097 2024 419E05D8 		beq- 7,.L1220
 7098              	.L776:
 7099              	.LVL457:
 7100              	.LBB5868:
 7101              	.LBB5869:
 7102              		.loc 5 40 0
 7103 2028 3FC00000 		lis 30,_ZN8ErrorLog8instanceE@ha
 7104              	.LVL458:
 7105 202c 83BE0000 		lwz 29,_ZN8ErrorLog8instanceE@l(30)
 7106 2030 2F9D0000 		cmpwi 7,29,0
 7107 2034 419E0034 		beq- 7,.L777
 7108              	.LVL459:
 7109              	.LBB5870:
 7110              	.LBB5871:
 7111              	.LBB5872:
 7112              		.loc 5 48 0
 7113 2038 7FA3EB78 		mr 3,29
 7114              	.LEHB126:
 7115 203c 48000001 		bl _ZN8ErrorLog5ResetEv
 7116              	.LEHE126:
 7117              	.LVL460:
 7118              	.LBB5873:
 7119              	.LBB5874:
 7120              	.LBB5875:
 7121              	.LBB5876:
 7122              	.LBB5877:
 7123              	.LBB5878:
 7124              		.loc 2 288 0
 7125 2040 813D0004 		lwz 9,4(29)
 7126              	.LBE5878:
 7127              	.LBE5877:
 7128              	.LBE5876:
 7129              		.loc 2 534 0
 7130 2044 3869FFF4 		addi 3,9,-12
 7131              	.LVL461:
 7132              	.LBB5879:
 7133              	.LBB5880:
 7134              		.loc 2 235 0
 7135 2048 7F83F800 		cmpw 7,3,31
 7136 204c 409E0BA0 		bne- 7,.L1221
 7137              	.LVL462:
 7138              	.L783:
 7139              	.LBE5880:
 7140              	.LBE5879:
 7141              	.LBE5875:
 7142              	.LBE5874:
 7143              	.LBE5873:
 7144              	.LBB5891:
 7145              	.LBB5892:
 7146              	.LBB5893:
 7147              	.LBB5894:
 7148              	.LBB5895:
 7149              	.LBB5896:
 7150              		.loc 2 288 0
 7151 2050 813D0000 		lwz 9,0(29)
 7152              	.LBE5896:
 7153              	.LBE5895:
 7154              	.LBE5894:
 7155              		.loc 2 534 0
 7156 2054 3869FFF4 		addi 3,9,-12
 7157              	.LVL463:
 7158              	.LBB5897:
 7159              	.LBB5898:
 7160              		.loc 2 235 0
 7161 2058 7F83F800 		cmpw 7,3,31
 7162 205c 409E0B70 		bne- 7,.L1222
 7163              	.LVL464:
 7164              	.L791:
 7165              	.LBE5898:
 7166              	.LBE5897:
 7167              	.LBE5893:
 7168              	.LBE5892:
 7169              	.LBE5891:
 7170              	.LBE5872:
 7171              	.LBE5871:
 7172              	.LBE5870:
 7173              		.loc 5 40 0
 7174 2060 7FA3EB78 		mr 3,29
 7175 2064 48000001 		bl _ZdlPv
 7176              	.LVL465:
 7177              	.L777:
 7178 2068 38000000 		li 0,0
 7179              	.LBE5869:
 7180              	.LBE5868:
 7181              		.loc 1 224 0
 7182 206c 7F43D378 		mr 3,26
 7183              	.LBB5920:
 7184              	.LBB5917:
 7185              		.loc 5 40 0
 7186 2070 901E0000 		stw 0,_ZN8ErrorLog8instanceE@l(30)
 7187              	.LBE5917:
 7188              	.LBE5920:
 7189              		.loc 1 224 0
 7190 2074 3FA00000 		lis 29,.LC15@ha
 7191              	.LEHB127:
 7192 2078 48000001 		bl gettext
 7193 207c 3BBD0100 		la 29,.LC15@l(29)
 7194 2080 7C641B78 		mr 4,3
 7195 2084 38A10036 		addi 5,1,54
 7196 2088 38610098 		addi 3,1,152
 7197 208c 48000001 		bl _ZNSsC1EPKcRKSaIcE
 7198              	.LEHE127:
 7199 2090 38610094 		addi 3,1,148
 7200 2094 7FA4EB78 		mr 4,29
 7201 2098 38A10035 		addi 5,1,53
 7202              	.LEHB128:
 7203 209c 48000001 		bl _ZNSsC1EPKcRKSaIcE
 7204              	.LEHE128:
 7205 20a0 7F83E378 		mr 3,28
 7206 20a4 38810098 		addi 4,1,152
 7207 20a8 38A10094 		addi 5,1,148
 7208              	.LEHB129:
 7209 20ac 48000001 		bl _ZN12UpdateWindow12ShowThrobberESsSs
 7210              	.LEHE129:
 7211              	.LVL466:
 7212              	.LBB5921:
 7213              	.LBB5922:
 7214              	.LBB5923:
 7215              	.LBB5924:
 7216              	.LBB5925:
 7217              	.LBB5926:
 7218              		.loc 2 288 0
 7219 20b0 81210094 		lwz 9,148(1)
 7220              	.LBE5926:
 7221              	.LBE5925:
 7222              	.LBE5924:
 7223              		.loc 2 534 0
 7224 20b4 3869FFF4 		addi 3,9,-12
 7225              	.LVL467:
 7226              	.LBB5927:
 7227              	.LBB5928:
 7228              		.loc 2 235 0
 7229 20b8 7F83F800 		cmpw 7,3,31
 7230 20bc 409E0AF0 		bne- 7,.L1223
 7231              	.LVL468:
 7232              	.L799:
 7233              	.LBE5928:
 7234              	.LBE5927:
 7235              	.LBE5923:
 7236              	.LBE5922:
 7237              	.LBE5921:
 7238              	.LBB5939:
 7239              	.LBB5940:
 7240              	.LBB5941:
 7241              	.LBB5942:
 7242              	.LBB5943:
 7243              	.LBB5944:
 7244              		.loc 2 288 0
 7245 20c0 81210098 		lwz 9,152(1)
 7246              	.LBE5944:
 7247              	.LBE5943:
 7248              	.LBE5942:
 7249              		.loc 2 534 0
 7250 20c4 3869FFF4 		addi 3,9,-12
 7251              	.LVL469:
 7252              	.LBB5945:
 7253              	.LBB5946:
 7254              		.loc 2 235 0
 7255 20c8 7F83F800 		cmpw 7,3,31
 7256 20cc 409E0AC0 		bne- 7,.L1224
 7257              	.LVL470:
 7258              	.L807:
 7259              	.LEHB130:
 7260              	.LBE5946:
 7261              	.LBE5945:
 7262              	.LBE5941:
 7263              	.LBE5940:
 7264              	.LBE5939:
 7265              		.loc 1 225 0
 7266 20d0 48000001 		bl _Z13UpdateMetaXmlv
 7267 20d4 2F830000 		cmpwi 7,3,0
 7268 20d8 409E006C 		bne- 7,.L830
 7269              	.LBB5957:
 7270              	.LBB5958:
 7271              		.loc 5 39 0
 7272 20dc 82FE0000 		lwz 23,_ZN8ErrorLog8instanceE@l(30)
 7273 20e0 2F970000 		cmpwi 7,23,0
 7274 20e4 419E0828 		beq- 7,.L1225
 7275              	.L809:
 7276              	.LBE5958:
 7277              	.LBE5957:
 7278              		.loc 1 226 0
 7279 20e8 38610090 		addi 3,1,144
 7280 20ec 7FA4EB78 		mr 4,29
 7281 20f0 38A10034 		addi 5,1,52
 7282 20f4 48000001 		bl _ZNSsC1EPKcRKSaIcE
 7283              	.LEHE130:
 7284 20f8 3C600000 		lis 3,.LC16@ha
 7285 20fc 3863010C 		la 3,.LC16@l(3)
 7286              	.LEHB131:
 7287 2100 48000001 		bl gettext
 7288              	.LEHE131:
 7289 2104 7C641B78 		mr 4,3
 7290 2108 38A10033 		addi 5,1,51
 7291 210c 3861008C 		addi 3,1,140
 7292              	.LEHB132:
 7293 2110 48000001 		bl _ZNSsC1EPKcRKSaIcE
 7294              	.LEHE132:
 7295 2114 7EE3BB78 		mr 3,23
 7296 2118 38810090 		addi 4,1,144
 7297 211c 38A1008C 		addi 5,1,140
 7298              	.LEHB133:
 7299 2120 48000001 		bl _ZN8ErrorLog8AddEntryESsSs
 7300              	.LEHE133:
 7301              	.LVL471:
 7302              	.LBB5973:
 7303              	.LBB5974:
 7304              	.LBB5975:
 7305              	.LBB5976:
 7306              	.LBB5977:
 7307              	.LBB5978:
 7308              		.loc 2 288 0
 7309 2124 8121008C 		lwz 9,140(1)
 7310              	.LBE5978:
 7311              	.LBE5977:
 7312              	.LBE5976:
 7313              		.loc 2 534 0
 7314 2128 3869FFF4 		addi 3,9,-12
 7315              	.LVL472:
 7316              	.LBB5979:
 7317              	.LBB5980:
 7318              		.loc 2 235 0
 7319 212c 7F83F800 		cmpw 7,3,31
 7320 2130 409E0ADC 		bne- 7,.L1226
 7321              	.LVL473:
 7322              	.L823:
 7323              	.LBE5980:
 7324              	.LBE5979:
 7325              	.LBE5975:
 7326              	.LBE5974:
 7327              	.LBE5973:
 7328              	.LBB5991:
 7329              	.LBB5992:
 7330              	.LBB5993:
 7331              	.LBB5994:
 7332              	.LBB5995:
 7333              	.LBB5996:
 7334              		.loc 2 288 0
 7335 2134 81210090 		lwz 9,144(1)
 7336              	.LBE5996:
 7337              	.LBE5995:
 7338              	.LBE5994:
 7339              		.loc 2 534 0
 7340 2138 3869FFF4 		addi 3,9,-12
 7341              	.LVL474:
 7342              	.LBB5997:
 7343              	.LBB5998:
 7344              		.loc 2 235 0
 7345 213c 7F83F800 		cmpw 7,3,31
 7346 2140 409E074C 		bne- 7,.L1227
 7347              	.LVL475:
 7348              	.L830:
 7349              	.LBE5998:
 7350              	.LBE5997:
 7351              	.LBE5993:
 7352              	.LBE5992:
 7353              	.LBE5991:
 7354              		.loc 1 227 0
 7355 2144 3C600013 		lis 3,0x13
 7356              		.loc 1 230 0
 7357 2148 3FA00000 		lis 29,Settings@ha
 7358              		.loc 1 227 0
 7359 214c 6063D620 		ori 3,3,54816
 7360              		.loc 1 230 0
 7361 2150 3BBD0000 		la 29,Settings@l(29)
 7362              	.LEHB134:
 7363              		.loc 1 227 0
 7364 2154 48000001 		bl usleep
 7365              		.loc 1 230 0
 7366 2158 A81D051E 		lha 0,1310(29)
 7367 215c 2F800000 		cmpwi 7,0,0
 7368 2160 409D00E4 		ble- 7,.L831
 7369              		.loc 1 232 0
 7370 2164 7F43D378 		mr 3,26
 7371 2168 3F400000 		lis 26,.LC17@ha
 7372 216c 48000001 		bl gettext
 7373 2170 3B5A011C 		la 26,.LC17@l(26)
 7374 2174 7C641B78 		mr 4,3
 7375 2178 38A10032 		addi 5,1,50
 7376 217c 38610088 		addi 3,1,136
 7377 2180 48000001 		bl _ZNSsC1EPKcRKSaIcE
 7378              	.LEHE134:
 7379 2184 38610084 		addi 3,1,132
 7380 2188 7F44D378 		mr 4,26
 7381 218c 38A10031 		addi 5,1,49
 7382              	.LEHB135:
 7383 2190 48000001 		bl _ZNSsC1EPKcRKSaIcE
 7384              	.LEHE135:
 7385 2194 7F83E378 		mr 3,28
 7386 2198 38810088 		addi 4,1,136
 7387 219c 38A10084 		addi 5,1,132
 7388              	.LEHB136:
 7389 21a0 48000001 		bl _ZN12UpdateWindow12ShowThrobberESsSs
 7390              	.LEHE136:
 7391              	.LVL476:
 7392              	.LBB6009:
 7393              	.LBB6010:
 7394              	.LBB6011:
 7395              	.LBB6012:
 7396              	.LBB6013:
 7397              	.LBB6014:
 7398              		.loc 2 288 0
 7399 21a4 81210084 		lwz 9,132(1)
 7400              	.LBE6014:
 7401              	.LBE6013:
 7402              	.LBE6012:
 7403              		.loc 2 534 0
 7404 21a8 3869FFF4 		addi 3,9,-12
 7405              	.LVL477:
 7406              	.LBB6015:
 7407              	.LBB6016:
 7408              		.loc 2 235 0
 7409 21ac 7F83F800 		cmpw 7,3,31
 7410 21b0 409E06FC 		bne- 7,.L1228
 7411              	.LVL478:
 7412              	.L839:
 7413              	.LBE6016:
 7414              	.LBE6015:
 7415              	.LBE6011:
 7416              	.LBE6010:
 7417              	.LBE6009:
 7418              	.LBB6027:
 7419              	.LBB6028:
 7420              	.LBB6029:
 7421              	.LBB6030:
 7422              	.LBB6031:
 7423              	.LBB6032:
 7424              		.loc 2 288 0
 7425 21b4 81210088 		lwz 9,136(1)
 7426              	.LBE6032:
 7427              	.LBE6031:
 7428              	.LBE6030:
 7429              		.loc 2 534 0
 7430 21b8 3869FFF4 		addi 3,9,-12
 7431              	.LVL479:
 7432              	.LBB6033:
 7433              	.LBB6034:
 7434              		.loc 2 235 0
 7435 21bc 7F83F800 		cmpw 7,3,31
 7436 21c0 409E05EC 		bne- 7,.L1229
 7437              	.LVL480:
 7438              	.L847:
 7439              	.LEHB137:
 7440              	.LBE6034:
 7441              	.LBE6033:
 7442              	.LBE6029:
 7443              	.LBE6028:
 7444              	.LBE6027:
 7445              		.loc 1 233 0
 7446 21c4 48000001 		bl _Z13UpdateIconPNGv
 7447 21c8 2F830000 		cmpwi 7,3,0
 7448 21cc 409E006C 		bne- 7,.L870
 7449              	.LBB6045:
 7450              	.LBB6046:
 7451              		.loc 5 39 0
 7452 21d0 82FE0000 		lwz 23,_ZN8ErrorLog8instanceE@l(30)
 7453 21d4 2F970000 		cmpwi 7,23,0
 7454 21d8 419E0850 		beq- 7,.L1230
 7455              	.L849:
 7456              	.LBE6046:
 7457              	.LBE6045:
 7458              		.loc 1 234 0
 7459 21dc 38610080 		addi 3,1,128
 7460 21e0 7F44D378 		mr 4,26
 7461 21e4 38A10030 		addi 5,1,48
 7462 21e8 48000001 		bl _ZNSsC1EPKcRKSaIcE
 7463              	.LEHE137:
 7464 21ec 3C600000 		lis 3,.LC16@ha
 7465 21f0 3863010C 		la 3,.LC16@l(3)
 7466              	.LEHB138:
 7467 21f4 48000001 		bl gettext
 7468              	.LEHE138:
 7469 21f8 7C641B78 		mr 4,3
