	.file	"URL_List.cpp"
	.section	".text"
.Ltext0:
	.align 2
	.type	_ZL11ListComparePKvS0_, @function
_ZL11ListComparePKvS0_:
.LFB69:
	.file 1 "d:/Projects/SaveGameManager/savegame-manager-gx/trunk/source/Network/URL_List.cpp"
	.loc 1 138 0
	.cfi_startproc
.LVL0:
	mflr 0
	stwu 1,-8(1)
.LCFI0:
	.cfi_def_cfa_offset 8
	.cfi_register 65, 0
	stw 0,12(1)
.LBB2:
	.loc 1 142 0
	lwz 3,0(3)
.LVL1:
	lwz 4,0(4)
.LVL2:
	.cfi_offset 65, 4
	bl strcasecmp
.LBE2:
	.loc 1 143 0
	lwz 0,12(1)
	addi 1,1,8
.LCFI1:
	.cfi_def_cfa_offset 0
	mtlr 0
	blr
	.cfi_endproc
.LFE69:
	.size	_ZL11ListComparePKvS0_, .-_ZL11ListComparePKvS0_
	.align 2
	.globl _ZN8URL_ListC2EPKc
	.type	_ZN8URL_ListC2EPKc, @function
_ZN8URL_ListC2EPKc:
.LFB62:
	.loc 1 13 0
	.cfi_startproc
.LVL3:
	stwu 1,-1072(1)
.LCFI2:
	.cfi_def_cfa_offset 1072
	mflr 0
	stw 26,1048(1)
.LBB3:
	.loc 1 15 0
	li 26,0
	.cfi_offset 26, -24
	.cfi_register 65, 0
.LBE3:
	.loc 1 13 0
	stw 28,1056(1)
	mr 28,3
	.cfi_offset 28, -16
	stw 31,1068(1)
	mr 31,4
	.cfi_offset 31, -4
	stw 0,1076(1)
	stw 25,1044(1)
	stw 27,1052(1)
	stw 29,1060(1)
	stw 30,1064(1)
.LBB21:
	.loc 1 15 0
	stw 26,4(3)
	.loc 1 16 0
	stw 26,0(3)
	.loc 1 18 0
	.cfi_offset 30, -8
	.cfi_offset 29, -12
	.cfi_offset 27, -20
	.cfi_offset 25, -28
	.cfi_offset 65, 4
	bl _Z13IsNetworkInitv
.LVL4:
	cmpwi 7,3,0
	bne- 7,.L3
	.loc 1 20 0
	li 0,-1
	stw 0,0(28)
.LVL5:
.L2:
.LBE21:
	.loc 1 108 0
	lwz 0,1076(1)
	lwz 25,1044(1)
	mtlr 0
	lwz 26,1048(1)
	lwz 27,1052(1)
	lwz 28,1056(1)
.LVL6:
	lwz 29,1060(1)
.LVL7:
	lwz 30,1064(1)
	lwz 31,1068(1)
.LVL8:
	addi 1,1,1072
	.cfi_remember_state
.LCFI3:
	.cfi_def_cfa_offset 0
	.cfi_restore 31
	.cfi_restore 30
	.cfi_restore 29
	.cfi_restore 28
	.cfi_restore 27
	.cfi_restore 26
	.cfi_restore 25
	blr
.LVL9:
.L3:
.LCFI4:
	.cfi_restore_state
.LBB22:
	.loc 1 24 0
	mr 3,31
	bl downloadfile
	.loc 1 26 0
	mr. 30,4
	.loc 1 24 0
	mr 29,3
.LVL10:
	.loc 1 26 0
	beq- 0,.L5
	.loc 1 26 0 is_stmt 0 discriminator 1
	cmpwi 7,29,0
	bne- 7,.L6
.L5:
	.loc 1 28 0 is_stmt 1
	li 0,-2
.LBE22:
	.loc 1 108 0
	lwz 25,1044(1)
.LBB23:
	.loc 1 28 0
	stw 0,0(28)
.LBE23:
	.loc 1 108 0
	lwz 0,1076(1)
	lwz 26,1048(1)
	mtlr 0
	lwz 27,1052(1)
	lwz 28,1056(1)
.LVL11:
	lwz 29,1060(1)
.LVL12:
	lwz 30,1064(1)
	lwz 31,1068(1)
.LVL13:
	addi 1,1,1072
	.cfi_remember_state
	.cfi_restore 25
	.cfi_restore 26
	.cfi_restore 27
	.cfi_restore 28
	.cfi_restore 29
	.cfi_restore 30
	.cfi_restore 31
.LCFI5:
	.cfi_def_cfa_offset 0
	blr
.LVL14:
.L6:
.LCFI6:
	.cfi_restore_state
.LBB24:
	.loc 1 35 0
	li 3,8
.LVL15:
	bl malloc
.LVL16:
	.loc 1 36 0
	cmpwi 7,3,0
	.loc 1 35 0
	stw 3,4(28)
	.loc 1 36 0
	beq- 7,.L28
	.loc 1 43 0
	lwz 27,0(28)
	.loc 1 32 0
	li 31,0
.LVL17:
	.loc 1 43 0
	slwi 0,27,3
	add 9,3,0
	stwx 26,3,0
	stw 26,4(9)
	b .L19
.LVL18:
.L8:
.LBB4:
	.loc 1 104 0
	addi 31,31,1
.LVL19:
.LBE4:
	.loc 1 45 0
	cmplw 7,29,31
	ble- 7,.L15
.LVL20:
.L19:
.LBB19:
.LBB5:
	.loc 1 48 0
	lbzx 0,30,31
	cmpwi 7,0,34
	bne+ 7,.L8
	.loc 1 48 0 is_stmt 0 discriminator 1
	add 9,30,31
	lbz 0,-1(9)
	cmpwi 7,0,61
	bne+ 7,.L8
	.loc 1 48 0 discriminator 2
	lbz 0,-2(9)
	cmpwi 7,0,102
	bne+ 7,.L8
	.loc 1 48 0 discriminator 3
	lbz 0,-3(9)
	cmpwi 7,0,101
	bne+ 7,.L8
	.loc 1 48 0 discriminator 4
	lbz 0,-4(9)
	cmpwi 7,0,114
	bne+ 7,.L8
	.loc 1 48 0 discriminator 5
	lbz 0,-5(9)
	cmpwi 7,0,104
	bne+ 7,.L8
.LVL21:
.LBB6:
	.loc 1 53 0 is_stmt 1
	addi 31,31,1
.LVL22:
	li 11,1024
	.loc 1 54 0
	lbzx 0,30,31
	li 26,0
	addi 9,1,8
	mtctr 11
	cmpwi 7,0,34
	beq- 7,.L10
.LVL23:
.L26:
	.loc 1 56 0 discriminator 5
	stbx 0,9,26
	.loc 1 58 0 discriminator 5
	addi 31,31,1
.LVL24:
	.loc 1 57 0 discriminator 5
	addi 26,26,1
.LVL25:
	.loc 1 54 0 discriminator 5
	lbzx 0,30,31
	cmpwi 7,0,34
	beq- 7,.L10
	.loc 1 54 0 is_stmt 0 discriminator 2
	bdnz .L26
.LVL26:
.L10:
	.loc 1 60 0 is_stmt 1
	add 9,1,26
	li 0,0
	.loc 1 62 0
	addi 4,27,1
	lwz 3,4(28)
	.loc 1 60 0
	stb 0,8(9)
	.loc 1 62 0
	slwi 4,4,3
	bl realloc
.LBB7:
	.loc 1 64 0
	cmpwi 7,3,0
.LBE7:
	.loc 1 62 0
	stw 3,4(28)
.LBB10:
	.loc 1 64 0
	beq- 7,.L29
.LBE10:
	.loc 1 78 0
	lwz 9,0(28)
	li 0,0
	.loc 1 80 0
	addi 26,26,1
	.loc 1 78 0
	slwi 9,9,3
	add 11,3,9
	stwx 0,3,9
	stw 0,4(11)
	.loc 1 80 0
	mr 3,26
	lwz 27,0(28)
	lwz 25,4(28)
	bl _Znaj
	slwi 27,27,3
.LBB11:
	.loc 1 82 0
	lwz 9,0(28)
.LBE11:
	.loc 1 80 0
	stwx 3,25,27
.LBB14:
	.loc 1 82 0
	lwz 3,4(28)
	slwi 0,9,3
	lwzx 0,3,0
	cmpwi 7,0,0
	beq- 7,.L30
.LBE14:
	.loc 1 96 0
	lis 5,.LC0@ha
	mr 4,26
	la 5,.LC0@l(5)
	addi 6,1,8
	mr 3,0
	crxor 6,6,6
	bl snprintf
	.loc 1 98 0
	lwz 27,0(28)
	lwz 9,4(28)
	lis 4,.LC1@ha
	slwi 0,27,3
	la 4,.LC1@l(4)
	lwzx 3,9,0
	li 5,7
	add 9,9,0
	.loc 1 102 0
	addi 27,27,1
	.loc 1 98 0
	stw 9,1032(1)
	bl strncmp
	.loc 1 13 0
	cntlzw 3,3
	lwz 9,1032(1)
	srwi 3,3,5
	stb 3,4(9)
	.loc 1 102 0
	stw 27,0(28)
	b .L8
.L29:
.LVL27:
.LBB15:
.LBB8:
.LBB9:
	.loc 1 66 0 discriminator 1
	lwz 0,0(28)
	cmpwi 7,0,0
	bne- 7,.L13
	.loc 1 66 0 is_stmt 0
	li 31,0
.LVL28:
.L14:
	.loc 1 68 0 is_stmt 1 discriminator 2
	slwi 29,31,3
.LVL29:
	lwzx 3,3,29
	bl _ZdlPv
	.loc 1 66 0 discriminator 2
	addi 0,31,1
.LVL30:
	lwz 31,0(28)
	.loc 1 69 0 discriminator 2
	lwz 3,4(28)
	.loc 1 66 0 discriminator 2
	cmpw 7,31,0
	.loc 1 69 0 discriminator 2
	li 0,0
.LVL31:
	stwx 0,3,29
	.loc 1 66 0 discriminator 2
	beq+ 7,.L14
.LVL32:
.L13:
.LBE9:
	.loc 1 71 0
	bl free
	.loc 1 72 0
	li 0,0
	stw 0,4(28)
	.loc 1 73 0
	mr 3,30
	bl free
	.loc 1 74 0
	li 0,-4
	stw 0,0(28)
.L15:
.LBE8:
.LBE15:
.LBE6:
.LBE5:
.LBE19:
	.loc 1 107 0
	mr 3,30
	bl free
.LBE24:
	.loc 1 108 0
	lwz 0,1076(1)
	lwz 25,1044(1)
	mtlr 0
	lwz 26,1048(1)
	lwz 27,1052(1)
	lwz 28,1056(1)
.LVL33:
	lwz 29,1060(1)
.LVL34:
	lwz 30,1064(1)
.LVL35:
	lwz 31,1068(1)
	addi 1,1,1072
	.cfi_remember_state
	.cfi_restore 25
	.cfi_restore 26
	.cfi_restore 27
	.cfi_restore 28
	.cfi_restore 29
	.cfi_restore 30
	.cfi_restore 31
.LCFI7:
	.cfi_def_cfa_offset 0
	blr
.LVL36:
.L28:
.LCFI8:
	.cfi_restore_state
.LBB25:
	.loc 1 38 0
	mr 3,30
	bl free
	.loc 1 39 0
	li 0,-3
	stw 0,0(28)
	.loc 1 40 0
	b .L2
.LVL37:
.L30:
.LBB20:
.LBB18:
.LBB17:
.LBB16:
.LBB12:
.LBB13:
	.loc 1 84 0 discriminator 1
	cmpwi 7,9,0
	bne- 7,.L17
	.loc 1 84 0 is_stmt 0
	li 31,0
.LVL38:
.L18:
	.loc 1 86 0 is_stmt 1 discriminator 2
	slwi 29,31,3
.LVL39:
	lwzx 3,3,29
	bl _ZdlPv
	.loc 1 84 0 discriminator 2
	addi 0,31,1
.LVL40:
	lwz 31,0(28)
	.loc 1 87 0 discriminator 2
	lwz 3,4(28)
	.loc 1 84 0 discriminator 2
	cmpw 7,31,0
	.loc 1 87 0 discriminator 2
	li 0,0
.LVL41:
	stwx 0,3,29
	.loc 1 84 0 discriminator 2
	beq+ 7,.L18
.LVL42:
.L17:
.LBE13:
	.loc 1 89 0
	bl free
	.loc 1 90 0
	li 0,0
	stw 0,4(28)
	.loc 1 91 0
	mr 3,30
	bl free
	.loc 1 92 0
	li 0,-5
	stw 0,0(28)
	.loc 1 93 0
	b .L15
.LBE12:
.LBE16:
.LBE17:
.LBE18:
.LBE20:
.LBE25:
	.cfi_endproc
.LFE62:
	.size	_ZN8URL_ListC2EPKc, .-_ZN8URL_ListC2EPKc
	.align 2
	.globl _ZN8URL_ListD2Ev
	.type	_ZN8URL_ListD2Ev, @function
_ZN8URL_ListD2Ev:
.LFB65:
	.loc 1 110 0
	.cfi_startproc
.LVL43:
	mflr 0
	stwu 1,-24(1)
.LCFI9:
	.cfi_def_cfa_offset 24
	.cfi_register 65, 0
	stw 29,12(1)
	mr 29,3
	.cfi_offset 29, -12
	stw 0,28(1)
	stw 31,20(1)
.LBB26:
.LBB27:
	.loc 1 112 0
	li 31,0
	.cfi_offset 31, -4
	.cfi_offset 65, 4
	lwz 0,0(3)
.LBE27:
.LBE26:
	.loc 1 110 0
	stw 30,16(1)
.LBB29:
.LBB28:
	.loc 1 112 0
	cmpwi 7,0,0
	lwz 3,4(3)
.LVL44:
	bne- 7,.L33
	.cfi_offset 30, -8
.LVL45:
.L34:
	.loc 1 114 0 discriminator 2
	slwi 30,31,3
	lwzx 3,3,30
	bl _ZdlPv
	.loc 1 112 0 discriminator 2
	addi 0,31,1
.LVL46:
	lwz 31,0(29)
	.loc 1 115 0 discriminator 2
	lwz 3,4(29)
	.loc 1 112 0 discriminator 2
	cmpw 7,31,0
	.loc 1 115 0 discriminator 2
	li 0,0
.LVL47:
	stwx 0,3,30
	.loc 1 112 0 discriminator 2
	beq+ 7,.L34
.L33:
.LBE28:
	.loc 1 118 0
	cmpwi 7,3,0
	beq- 7,.L31
	.loc 1 120 0
	bl free
	.loc 1 121 0
	li 0,0
	stw 0,4(29)
.L31:
.LBE29:
	.loc 1 123 0
	lwz 0,28(1)
	lwz 29,12(1)
.LVL48:
	mtlr 0
	lwz 30,16(1)
	lwz 31,20(1)
	addi 1,1,24
.LCFI10:
	.cfi_def_cfa_offset 0
	.cfi_restore 31
	.cfi_restore 30
	.cfi_restore 29
	blr
	.cfi_endproc
.LFE65:
	.size	_ZN8URL_ListD2Ev, .-_ZN8URL_ListD2Ev
	.align 2
	.globl _ZN8URL_List6GetURLEi
	.type	_ZN8URL_List6GetURLEi, @function
_ZN8URL_List6GetURLEi:
.LFB67:
	.loc 1 126 0
	.cfi_startproc
.LVL49:
	.loc 1 127 0
	lwz 0,0(3)
	.loc 1 126 0
	mr 9,3
	.loc 1 128 0
	li 3,0
.LVL50:
	.loc 1 127 0
	cmpw 7,0,4
	bltlr- 7
	.loc 1 127 0 is_stmt 0 discriminator 1
	cmpwi 7,4,0
	bltlr- 7
	.loc 1 127 0 discriminator 2
	lwz 9,4(9)
.LVL51:
	cmpwi 7,9,0
	beqlr- 7
	.loc 1 127 0 discriminator 3
	cmpwi 7,0,0
	blelr- 7
	.loc 1 129 0 is_stmt 1
	slwi 4,4,3
.LVL52:
	lwzx 3,9,4
	.loc 1 130 0
	blr
	.cfi_endproc
.LFE67:
	.size	_ZN8URL_List6GetURLEi, .-_ZN8URL_List6GetURLEi
	.align 2
	.globl _ZN8URL_List11GetURLCountEv
	.type	_ZN8URL_List11GetURLCountEv, @function
_ZN8URL_List11GetURLCountEv:
.LFB68:
	.loc 1 133 0
	.cfi_startproc
.LVL53:
	.loc 1 135 0
	lwz 3,0(3)
.LVL54:
	blr
	.cfi_endproc
.LFE68:
	.size	_ZN8URL_List11GetURLCountEv, .-_ZN8URL_List11GetURLCountEv
	.align 2
	.globl _ZN8URL_List8SortListEv
	.type	_ZN8URL_List8SortListEv, @function
_ZN8URL_List8SortListEv:
.LFB70:
	.loc 1 145 0
	.cfi_startproc
.LVL55:
	mflr 0
	stwu 1,-8(1)
.LCFI11:
	.cfi_def_cfa_offset 8
	.cfi_register 65, 0
	mr 9,3
	.loc 1 146 0
	lis 6,_ZL11ListComparePKvS0_@ha
	li 5,8
	la 6,_ZL11ListComparePKvS0_@l(6)
	.loc 1 145 0
	stw 0,12(1)
	.loc 1 146 0
	lwz 3,4(3)
.LVL56:
	lwz 4,0(9)
	.cfi_offset 65, 4
	bl qsort
.LVL57:
	.loc 1 147 0
	lwz 0,12(1)
	addi 1,1,8
.LCFI12:
	.cfi_def_cfa_offset 0
	mtlr 0
	blr
	.cfi_endproc
.LFE70:
	.size	_ZN8URL_List8SortListEv, .-_ZN8URL_List8SortListEv
	.globl _ZN8URL_ListC1EPKc
	.set	_ZN8URL_ListC1EPKc,_ZN8URL_ListC2EPKc
	.globl _ZN8URL_ListD1Ev
	.set	_ZN8URL_ListD1Ev,_ZN8URL_ListD2Ev
	.section	.rodata.str1.4,"aMS",@progbits,1
	.align 2
.LC0:
	.string	"%s"
	.zero	1
.LC1:
	.string	"http://"
	.section	".text"
.Letext0:
	.file 2 "d:\\devkitpro\\devkitppc\\bin\\../lib/gcc/powerpc-eabi/4.6.3/../../../../powerpc-eabi/include/stdint.h"
	.file 3 "d:/devkitPro/libogc/include/gctypes.h"
	.file 4 "d:/devkitPro/libogc/include/ogc/gx.h"
	.file 5 "d:/Projects/SaveGameManager/savegame-manager-gx/trunk/source/Network/http.h"
	.file 6 "d:/Projects/SaveGameManager/savegame-manager-gx/trunk/source/Network/URL_List.h"