	.file	"video.cpp"
	.section	".text"
.Ltext0:
	.align 2
	.globl _Z15ResetVideo_Menuv
	.type	_Z15ResetVideo_Menuv, @function
_Z15ResetVideo_Menuv:
.LFB1370:
	.file 1 "d:/Projects/SaveGameManager/savegame-manager-gx/trunk/source/System/video.cpp"
	.loc 1 47 0
	.cfi_startproc
	stwu 1,-120(1)
.LCFI0:
	.cfi_def_cfa_offset 120
	mflr 0
	stw 31,116(1)
.LBB69:
	.loc 1 52 0
	lis 31,.LANCHOR0@ha
	.cfi_offset 31, -4
	.cfi_register 65, 0
	lwz 3,.LANCHOR0@l(31)
.LBE69:
	.loc 1 47 0
	stw 0,124(1)
	stw 30,112(1)
.LBB70:
	.loc 1 52 0
	.cfi_offset 30, -8
	.cfi_offset 65, 4
	bl VIDEO_Configure
	.loc 1 53 0
	bl VIDEO_Flush
	.loc 1 54 0
	bl VIDEO_WaitVSync
	.loc 1 55 0
	lwz 9,.LANCHOR0@l(31)
	lwz 0,0(9)
	andi. 9,0,1
	beq+ 0,.L7
	b .L11
.L4:
	.loc 1 59 0
	bl VIDEO_WaitVSync
.L7:
	.loc 1 58 0 discriminator 1
	bl VIDEO_GetNextField
	cmpwi 7,3,0
	bne+ 7,.L4
.L3:
	.loc 1 62 0
	li 9,0
	li 0,0
.LVL0:
	rlwimi 0,9,24,0,7
.LVL1:
	.loc 1 63 0
	mr 3,1
	.loc 1 62 0
	rlwimi 0,9,16,8,15
	.loc 1 63 0
	lis 4,0xff
	.loc 1 62 0
	rlwimi 0,9,8,16,23
	li 9,-1
	rlwimi 0,9,0,24,31
	.loc 1 63 0
	ori 4,4,65535
	stwu 0,72(3)
	bl GX_SetCopyClear
.LVL2:
	.loc 1 65 0
	lwz 9,.LANCHOR0@l(31)
	lhz 4,8(9)
	lhz 3,6(9)
	bl GX_GetYScaleFactor
	.loc 1 66 0
	bl GX_SetDispCopyYScale
	.loc 1 67 0
	lwz 9,.LANCHOR0@l(31)
	.loc 1 66 0
	mr 30,3
.LVL3:
	.loc 1 67 0
	li 4,0
	lhz 5,4(9)
	li 3,0
.LVL4:
	lhz 6,6(9)
	bl GX_SetScissor
	.loc 1 68 0
	lwz 9,.LANCHOR0@l(31)
	li 3,0
	li 4,0
	lhz 5,4(9)
	lhz 6,6(9)
	bl GX_SetDispCopySrc
	.loc 1 69 0
	lwz 9,.LANCHOR0@l(31)
	rlwinm 4,30,0,0xffff
	lhz 3,4(9)
	bl GX_SetDispCopyDst
	.loc 1 70 0
	lwz 6,.LANCHOR0@l(31)
	li 5,1
	lbz 3,25(6)
	addi 4,6,26
	addi 6,6,50
	bl GX_SetCopyFilter
	.loc 1 71 0
	lwz 9,.LANCHOR0@l(31)
	lhz 0,8(9)
	lhz 4,16(9)
	slwi 0,0,1
	lbz 3,24(9)
	xor 4,4,0
	cntlzw 4,4
	srwi 4,4,5
	bl GX_SetFieldMode
	.loc 1 73 0
	lwz 9,.LANCHOR0@l(31)
	lbz 0,25(9)
	cmpwi 7,0,0
	bne- 7,.L10
	.loc 1 76 0
	li 3,0
	li 4,0
	bl GX_SetPixelFmt
.L6:
	.loc 1 80 0
	bl GX_ClearVtxDesc
	.loc 1 99 0
	la 30,.LANCHOR0@l(31)
.LVL5:
	.loc 1 81 0
	bl GX_InvVtxCache
	.loc 1 99 0
	addi 30,30,4
	.loc 1 82 0
	bl GX_InvalidateTexAll
	.loc 1 84 0
	li 3,13
	li 4,0
	bl GX_SetVtxDesc
	.loc 1 85 0
	li 3,9
	li 4,1
	bl GX_SetVtxDesc
	.loc 1 86 0
	li 3,11
	li 4,1
	bl GX_SetVtxDesc
	.loc 1 88 0
	li 3,0
	li 4,9
	li 5,1
	li 6,4
	li 7,0
	bl GX_SetVtxAttrFmt
	.loc 1 89 0
	li 3,0
	li 4,11
	li 5,1
	li 6,5
	li 7,0
	bl GX_SetVtxAttrFmt
	.loc 1 90 0
	li 7,0
	li 6,4
	li 3,0
	li 4,13
	li 5,1
	bl GX_SetVtxAttrFmt
	.loc 1 91 0
	li 5,1
	li 4,3
	li 3,0
	bl GX_SetZMode
	.loc 1 93 0
	li 3,1
	bl GX_SetNumChans
	.loc 1 94 0
	li 3,1
	bl GX_SetNumTexGens
	.loc 1 95 0
	li 3,0
	li 4,0
	bl GX_SetTevOp
	.loc 1 96 0
	li 3,0
	li 4,0
	li 5,0
	li 6,4
	bl GX_SetTevOrder
	.loc 1 97 0
	li 5,4
	li 6,60
	li 4,1
	li 3,0
	bl GX_SetTexCoordGen
	.loc 1 99 0
	mr 3,30
	bl ps_guMtxIdentity
	.loc 1 100 0
	lis 9,.LC7@ha
	lfs 1,.LC7@l(9)
	lis 9,.LC0@ha
	lfs 3,.LC0@l(9)
	mr 4,30
	fmr 2,1
	mr 3,30
	bl ps_guMtxTransApply
	.loc 1 101 0
	mr 3,30
	li 4,0
	.loc 1 103 0
	lis 30,0x4330
	.loc 1 101 0
	bl GX_LoadPosMtxImm
	.loc 1 103 0
	lis 9,screenheight@ha
	lis 11,screenwidth@ha
	lwz 9,screenheight@l(9)
	lwz 11,screenwidth@l(11)
	addi 3,1,8
	addi 9,9,-1
	stw 30,80(1)
	addi 0,11,-1
	xoris 9,9,0x8000
	xoris 0,0,0x8000
	stw 9,84(1)
	stw 0,92(1)
	lis 9,.LC2@ha
	stw 30,88(1)
	lfs 0,.LC2@l(9)
	lis 9,.LC7@ha
	lfd 2,80(1)
	lfd 4,88(1)
	fsub 2,2,0
	lfs 1,.LC7@l(9)
	fsub 4,4,0
	lis 9,.LC3@ha
	fmr 3,1
	lfs 6,.LC3@l(9)
	fmr 5,1
	frsp 2,2
	frsp 4,4
	bl guOrtho
	.loc 1 104 0
	addi 3,1,8
	li 4,1
	bl GX_LoadProjectionMtx
	.loc 1 106 0
	lwz 9,.LANCHOR0@l(31)
	lis 11,.LC5@ha
	lhz 0,4(9)
	stw 30,96(1)
	stw 0,100(1)
	lfs 0,.LC5@l(11)
	lhz 0,6(9)
	lis 9,.LC7@ha
	stw 30,104(1)
	stw 0,108(1)
	lfd 3,96(1)
	lfd 4,104(1)
	fsub 3,3,0
	lfs 1,.LC7@l(9)
	fsub 4,4,0
	lis 9,.LC6@ha
	fmr 2,1
	lfs 6,.LC6@l(9)
	frsp 3,3
	frsp 4,4
	fmr 5,1
	bl GX_SetViewport
	.loc 1 107 0
	li 3,1
	li 4,4
	li 5,5
	li 6,0
	bl GX_SetBlendMode
	.loc 1 108 0
	li 3,1
	bl GX_SetAlphaUpdate
.LBE70:
	.loc 1 109 0
	lwz 0,124(1)
	lwz 30,112(1)
	mtlr 0
	lwz 31,116(1)
	addi 1,1,120
	.cfi_remember_state
.LCFI1:
	.cfi_def_cfa_offset 0
	.cfi_restore 31
	.cfi_restore 30
	blr
.LVL6:
.L10:
.LCFI2:
	.cfi_restore_state
.LBB71:
	.loc 1 74 0
	li 3,2
	li 4,0
	bl GX_SetPixelFmt
	b .L6
.LVL7:
.L11:
	.loc 1 56 0
	bl VIDEO_WaitVSync
	b .L3
.LBE71:
	.cfi_endproc
.LFE1370:
	.size	_Z15ResetVideo_Menuv, .-_Z15ResetVideo_Menuv
	.align 2
	.globl _Z9InitVideov
	.type	_Z9InitVideov, @function
_Z9InitVideov:
.LFB1371:
	.loc 1 120 0
	.cfi_startproc
	mflr 0
	stwu 1,-24(1)
.LCFI3:
	.cfi_def_cfa_offset 24
	.cfi_register 65, 0
	stw 30,16(1)
	stw 0,28(1)
	stw 31,20(1)
.LBB72:
	.loc 1 121 0
	.cfi_offset 31, -4
	.cfi_offset 65, 4
	.cfi_offset 30, -8
	bl VIDEO_Init
	.loc 1 122 0
	li 3,0
	lis 31,.LANCHOR0@ha
	bl VIDEO_GetPreferredMode
	mr 30,3
	stw 3,.LANCHOR0@l(31)
	.loc 1 124 0
	bl CONF_GetAspectRatio
	li 0,640
	cmpwi 7,3,1
	beq- 7,.L19
	.loc 1 124 0 is_stmt 0 discriminator 3
	sth 0,14(30)
	.loc 1 126 0 is_stmt 1 discriminator 3
	bl CONF_GetVideo
	cmpwi 7,3,1
	beq- 7,.L20
.L18:
	.loc 1 127 0 discriminator 4
	lwz 3,.LANCHOR0@l(31)
	.loc 1 134 0 discriminator 4
	la 30,.LANCHOR0@l(31)
	.loc 1 127 0 discriminator 4
	lhz 0,14(3)
	subfic 0,0,720
	srawi 0,0,1
	addze 0,0
	sth 0,10(3)
	.loc 1 131 0 discriminator 4
	bl VIDEO_Configure
	.loc 1 134 0 discriminator 4
	lwz 3,.LANCHOR0@l(31)
	.loc 1 133 0 discriminator 4
	li 11,480
	lis 9,screenheight@ha
	.loc 1 134 0 discriminator 4
	lhz 0,4(3)
	.loc 1 133 0 discriminator 4
	stw 11,screenheight@l(9)
	.loc 1 134 0 discriminator 4
	lis 9,screenwidth@ha
	stw 0,screenwidth@l(9)
	.loc 1 137 0 discriminator 4
	bl SYS_AllocateFramebuffer
	addis 0,3,0x4000
	.loc 1 138 0 discriminator 4
	lwz 3,.LANCHOR0@l(31)
	.loc 1 137 0 discriminator 4
	stw 0,52(30)
	.loc 1 138 0 discriminator 4
	bl SYS_AllocateFramebuffer
	addis 0,3,0x4000
	.loc 1 140 0 discriminator 4
	lwz 3,.LANCHOR0@l(31)
	.loc 1 138 0 discriminator 4
	stw 0,56(30)
	.loc 1 140 0 discriminator 4
	bl VIDEO_Configure
	.loc 1 143 0 discriminator 4
	lwz 3,.LANCHOR0@l(31)
	lwz 4,52(30)
	lis 5,0x80
	ori 5,5,128
	bl VIDEO_ClearFrameBuffer
	.loc 1 144 0 discriminator 4
	lwz 4,56(30)
	lwz 3,.LANCHOR0@l(31)
	lis 5,0x80
	ori 5,5,128
	bl VIDEO_ClearFrameBuffer
	.loc 1 145 0 discriminator 4
	lwz 3,52(30)
	bl VIDEO_SetNextFramebuffer
	.loc 1 147 0 discriminator 4
	li 3,0
	bl VIDEO_SetBlack
	.loc 1 148 0 discriminator 4
	bl VIDEO_Flush
	.loc 1 149 0 discriminator 4
	bl VIDEO_WaitVSync
	.loc 1 150 0 discriminator 4
	lwz 9,.LANCHOR0@l(31)
	lwz 0,0(9)
	andi. 9,0,1
	beq+ 0,.L15
	.loc 1 151 0
	bl VIDEO_WaitVSync
.L15:
	.loc 1 154 0
	li 0,0
	li 31,0
.LVL8:
	rlwimi 31,0,24,0,7
.LVL9:
	.loc 1 155 0
	addi 30,30,64
	.loc 1 154 0
	rlwimi 31,0,16,8,15
	.loc 1 155 0
	lis 5,0x4
	.loc 1 154 0
	rlwimi 31,0,8,16,23
	.loc 1 155 0
	mr 3,30
	.loc 1 154 0
	li 0,-1
	.loc 1 155 0
	li 4,0
	.loc 1 154 0
	rlwimi 31,0,0,24,31
	.loc 1 155 0
	bl memset
	.loc 1 156 0
	mr 3,30
	lis 4,0x4
	bl GX_Init
	.loc 1 157 0
	mr 3,1
	stwu 31,8(3)
	lis 4,0xff
	ori 4,4,65535
	bl GX_SetCopyClear
	.loc 1 158 0
	li 3,0
	bl GX_SetDispCopyGamma
	.loc 1 159 0
	li 3,0
	bl GX_SetCullMode
.LBE72:
	.loc 1 163 0
	lwz 0,28(1)
	lwz 30,16(1)
	lwz 31,20(1)
.LVL10:
	mtlr 0
	addi 1,1,24
	.cfi_remember_state
.LCFI4:
	.cfi_def_cfa_offset 0
	.cfi_restore 31
	.cfi_restore 30
.LBB73:
	.loc 1 161 0
	b _Z15ResetVideo_Menuv
.L19:
.LCFI5:
	.cfi_restore_state
	.loc 1 124 0
	li 0,708
	sth 0,14(30)
	.loc 1 126 0
	bl CONF_GetVideo
	cmpwi 7,3,1
	bne+ 7,.L18
.L20:
	.loc 1 126 0 is_stmt 0 discriminator 1
	bl CONF_GetEuRGB60
	b .L18
.LBE73:
	.cfi_endproc
.LFE1371:
	.size	_Z9InitVideov, .-_Z9InitVideov
	.align 2
	.globl _Z6StopGXv
	.type	_Z6StopGXv, @function
_Z6StopGXv:
.LFB1372:
	.loc 1 171 0 is_stmt 1
	.cfi_startproc
	mflr 0
	stwu 1,-8(1)
.LCFI6:
	.cfi_def_cfa_offset 8
	.cfi_register 65, 0
	stw 0,12(1)
	.loc 1 172 0
	.cfi_offset 65, 4
	bl GX_DrawDone
	.loc 1 173 0
	bl GX_AbortFrame
	.loc 1 174 0
	bl GX_Flush
	.loc 1 176 0
	li 3,1
	bl VIDEO_SetBlack
	.loc 1 177 0
	bl VIDEO_Flush
	.loc 1 178 0
	bl VIDEO_WaitVSync
	.loc 1 179 0
	lis 9,.LANCHOR0@ha
	lwz 9,.LANCHOR0@l(9)
	lwz 0,0(9)
	andi. 9,0,1
	beq+ 0,.L21
	.loc 1 180 0
	bl VIDEO_WaitVSync
.L21:
	.loc 1 181 0
	lwz 0,12(1)
	addi 1,1,8
.LCFI7:
	.cfi_def_cfa_offset 0
	mtlr 0
	blr
	.cfi_endproc
.LFE1372:
	.size	_Z6StopGXv, .-_Z6StopGXv
	.align 2
	.globl _Z11Menu_Renderv
	.type	_Z11Menu_Renderv, @function
_Z11Menu_Renderv:
.LFB1373:
	.loc 1 189 0
	.cfi_startproc
	stwu 1,-16(1)
.LCFI8:
	.cfi_def_cfa_offset 16
	mflr 0
	.loc 1 191 0
	li 5,1
	li 4,3
	.loc 1 189 0
	stw 30,8(1)
	.loc 1 190 0
	lis 30,.LANCHOR0@ha
	.cfi_offset 30, -8
	.cfi_register 65, 0
	.loc 1 189 0
	stw 0,20(1)
	.loc 1 190 0
	la 30,.LANCHOR0@l(30)
	.loc 1 189 0
	stw 31,12(1)
	.loc 1 190 0
	addis 31,30,0x4
	.cfi_offset 31, -4
	.cfi_offset 65, 4
	lwz 0,64(31)
	.loc 1 191 0
	li 3,1
	.loc 1 190 0
	xori 0,0,1
	stw 0,64(31)
	.loc 1 191 0
	bl GX_SetZMode
	.loc 1 192 0
	li 3,1
	bl GX_SetColorUpdate
	.loc 1 193 0
	lwz 9,64(31)
	li 4,1
	slwi 9,9,2
	add 9,30,9
	lwz 3,52(9)
	bl GX_CopyDisp
	.loc 1 194 0
	bl GX_DrawDone
	.loc 1 195 0
	lwz 0,64(31)
	slwi 0,0,2
	add 30,30,0
	lwz 3,52(30)
	bl VIDEO_SetNextFramebuffer
	.loc 1 196 0
	bl VIDEO_Flush
	.loc 1 197 0
	bl VIDEO_WaitVSync
	.loc 1 198 0
	lis 9,frameCount@ha
	lwz 11,frameCount@l(9)
	.loc 1 199 0
	lwz 30,8(1)
	.loc 1 198 0
	addi 0,11,1
	.loc 1 199 0
	lwz 31,12(1)
	.loc 1 198 0
	stw 0,frameCount@l(9)
	.loc 1 199 0
	lwz 0,20(1)
	addi 1,1,16
.LCFI9:
	.cfi_def_cfa_offset 0
	.cfi_restore 31
	.cfi_restore 30
	mtlr 0
	blr
	.cfi_endproc
.LFE1373:
	.size	_Z11Menu_Renderv, .-_Z11Menu_Renderv
	.align 2
	.globl _Z14Video_GetFramePiS_
	.type	_Z14Video_GetFramePiS_, @function
_Z14Video_GetFramePiS_:
.LFB1374:
	.loc 1 205 0
	.cfi_startproc
.LVL11:
.LBB74:
	.loc 1 206 0
	cmpwi 0,3,0
.LBE74:
	.loc 1 205 0
	mflr 0
	stwu 1,-24(1)
.LCFI10:
	.cfi_def_cfa_offset 24
	.cfi_register 65, 0
	stw 31,20(1)
	lis 31,.LANCHOR0@ha
	.cfi_offset 31, -4
	stw 0,28(1)
	stw 29,12(1)
	stw 30,16(1)
.LBB75:
	.loc 1 206 0
	beq- 0,.L25
	.cfi_offset 30, -8
	.cfi_offset 29, -12
	.cfi_offset 65, 4
	.loc 1 207 0
	lwz 9,.LANCHOR0@l(31)
	lhz 0,4(9)
	stw 0,0(3)
.L25:
	.loc 1 208 0
	cmpwi 7,4,0
	beq- 7,.L26
	.loc 1 209 0
	lwz 9,.LANCHOR0@l(31)
	lhz 0,8(9)
	stw 0,0(4)
.L26:
	.loc 1 211 0
	lwz 9,.LANCHOR0@l(31)
	.loc 1 213 0
	li 3,32
.LVL12:
	.loc 1 211 0
	la 31,.LANCHOR0@l(31)
	lhz 29,4(9)
	lhz 0,8(9)
.LVL13:
	slwi 29,29,1
.LVL14:
	mullw 29,29,0
	addi 29,29,31
	rlwinm 29,29,0,0,26
	.loc 1 213 0
	mr 4,29
.LVL15:
	bl memalign
.LVL16:
	.loc 1 214 0
	mr. 30,3
	beq- 0,.L27
	.loc 1 217 0
	addis 9,31,0x4
	mr 5,29
	lwz 0,64(9)
	slwi 0,0,2
	add 31,31,0
	lwz 4,52(31)
	bl memcpy
.LVL17:
.L27:
.LBE75:
	.loc 1 220 0
	lwz 0,28(1)
	mr 3,30
	lwz 29,12(1)
	mtlr 0
	lwz 30,16(1)
.LVL18:
	lwz 31,20(1)
	addi 1,1,24
.LCFI11:
	.cfi_def_cfa_offset 0
	.cfi_restore 31
	.cfi_restore 30
	.cfi_restore 29
	blr
	.cfi_endproc
.LFE1374:
	.size	_Z14Video_GetFramePiS_, .-_Z14Video_GetFramePiS_
	.align 2
	.globl _Z12Menu_DrawImgPhtthffffffh
	.type	_Z12Menu_DrawImgPhtthffffffh, @function
_Z12Menu_DrawImgPhtthffffffh:
.LFB1376:
	.loc 1 474 0
	.cfi_startproc
.LVL19:
.LBB76:
	.loc 1 475 0
	cmpwi 0,3,0
.LBE76:
	.loc 1 474 0
	mflr 0
	stwu 1,-336(1)
.LCFI12:
	.cfi_def_cfa_offset 336
	.cfi_register 65, 0
	stw 0,340(1)
	mr 0,6
	.cfi_offset 65, 4
	stfd 23,264(1)
	fmr 23,6
	.cfi_offset 55, -72
	stfd 24,272(1)
	fmr 24,5
	.cfi_offset 56, -64
	stfd 28,304(1)
	fmr 28,4
	.cfi_offset 60, -32
	stfd 29,312(1)
	fmr 29,1
	.cfi_offset 61, -24
	stfd 30,320(1)
	fmr 30,2
	.cfi_offset 62, -16
	stfd 31,328(1)
	fmr 31,3
	.cfi_offset 63, -8
	stw 29,252(1)
	mr 29,4
	.cfi_offset 29, -84
	stw 30,256(1)
	mr 30,5
	.cfi_offset 30, -80
	stw 31,260(1)
	mr 31,7
	.cfi_offset 31, -76
	stfd 25,280(1)
	stfd 26,288(1)
	stfd 27,296(1)
.LBB109:
	.loc 1 475 0
	beq- 0,.L29
	.cfi_offset 59, -40
	.cfi_offset 58, -48
	.cfi_offset 57, -56
	.loc 1 480 0
	mr 6,5
.LVL20:
	mr 7,0
.LVL21:
	li 8,0
	li 10,0
	mr 5,4
.LVL22:
	li 9,0
	mr 4,3
.LVL23:
	addi 3,1,8
.LVL24:
	bl GX_InitTexObj
.LVL25:
	.loc 1 481 0
	addi 3,1,8
	li 4,0
	.loc 1 488 0
	xoris 30,30,0x8000
	.loc 1 481 0
	bl GX_LoadTexObj
	.loc 1 487 0
	xoris 29,29,0x8000
	.loc 1 482 0
	bl GX_InvalidateTexAll
	.loc 1 484 0
	li 4,1
	li 3,13
	bl GX_SetVtxDesc
	.loc 1 487 0
	lis 0,0x4330
	stw 0,232(1)
	lis 9,.LC2@ha
	.loc 1 488 0
	stw 0,240(1)
	.loc 1 489 0
	addi 3,1,136
	.loc 1 488 0
	stw 30,244(1)
	.loc 1 495 0
	lis 30,.LANCHOR0@ha
	.loc 1 487 0
	stw 29,236(1)
	.loc 1 495 0
	la 30,.LANCHOR0@l(30)
	.loc 1 487 0
	lfs 0,.LC2@l(9)
	lis 9,.LC8@ha
	lfd 25,232(1)
	.loc 1 495 0
	addi 30,30,4
	.loc 1 488 0
	lfd 26,240(1)
	.loc 1 487 0
	fsub 25,25,0
	.loc 1 488 0
	fsub 26,26,0
	.loc 1 487 0
	lfs 0,.LC8@l(9)
	frsp 25,25
	.loc 1 488 0
	frsp 26,26
	.loc 1 487 0
	fmuls 25,25,0
.LVL26:
	.loc 1 488 0
	fmuls 26,26,0
.LVL27:
	.loc 1 489 0
	bl ps_guMtxIdentity
	.loc 1 490 0
	lis 9,.LC6@ha
	fmr 2,23
	lfs 27,.LC6@l(9)
	fmr 1,24
	addi 3,1,136
	fmr 3,27
	mr 4,3
	bl ps_guMtxScaleApply
	.loc 1 491 0
	lis 9,.LC9@ha
	lfs 1,.LC9@l(9)
	addi 3,1,88
	li 4,122
	fmuls 1,28,1
	bl ps_guMtxRotRad
	.loc 1 492 0
	addi 5,1,184
	addi 3,1,88
	addi 4,1,136
	bl ps_guMtxConcat
	.loc 1 494 0
	fadds 1,29,25
	fadds 2,30,26
	addi 3,1,184
	fmr 3,31
	mr 4,3
	bl ps_guMtxTransApply
	.loc 1 495 0
	addi 5,1,40
	addi 4,1,184
	mr 3,30
	bl ps_guMtxConcat
	.loc 1 496 0
	addi 3,1,40
	li 4,0
	bl GX_LoadPosMtxImm
	.loc 1 498 0
	li 3,128
	li 4,0
	li 5,4
	bl GX_Begin
	.loc 1 499 0
	fneg 0,25
	fneg 13,26
.LVL28:
.LBB77:
.LBB78:
	.file 2 "d:/devkitPro/libogc/include/ogc/gx.h"
	.loc 2 2123 0
	lis 9,wgPipe@ha
	lwz 9,wgPipe@l(9)
.LBE78:
.LBE77:
.LBB82:
.LBB83:
	.loc 2 2229 0
	li 0,-1
.LBE83:
.LBE82:
.LBB85:
.LBB79:
	.loc 2 2125 0
	li 11,0
.LBE79:
.LBE85:
	.loc 1 516 0
	mr 3,30
.LBB86:
.LBB80:
	.loc 2 2123 0
	stfs 0,0(9)
.LBE80:
.LBE86:
	.loc 1 516 0
	li 4,0
.LBB87:
.LBB81:
	.loc 2 2124 0
	stfs 13,0(9)
	.loc 2 2125 0
	stw 11,0(9)
.LVL29:
.LBE81:
.LBE87:
.LBB88:
.LBB84:
	.loc 2 2229 0
	stb 0,0(9)
	.loc 2 2230 0
	stb 0,0(9)
	.loc 2 2231 0
	stb 0,0(9)
	.loc 2 2232 0
	stb 31,0(9)
.LVL30:
.LBE84:
.LBE88:
.LBB89:
.LBB90:
	.loc 2 2271 0
	stw 11,0(9)
	.loc 2 2272 0
	stw 11,0(9)
.LVL31:
.LBE90:
.LBE89:
.LBB91:
.LBB92:
	.loc 2 2123 0
	stfs 25,0(9)
	.loc 2 2124 0
	stfs 13,0(9)
	.loc 2 2125 0
	stw 11,0(9)
.LVL32:
.LBE92:
.LBE91:
.LBB93:
.LBB94:
	.loc 2 2229 0
	stb 0,0(9)
	.loc 2 2230 0
	stb 0,0(9)
	.loc 2 2231 0
	stb 0,0(9)
	.loc 2 2232 0
	stb 31,0(9)
.LVL33:
.LBE94:
.LBE93:
.LBB95:
.LBB96:
	.loc 2 2271 0
	stfs 27,0(9)
	.loc 2 2272 0
	stw 11,0(9)
.LVL34:
.LBE96:
.LBE95:
.LBB97:
.LBB98:
	.loc 2 2123 0
	stfs 25,0(9)
	.loc 2 2124 0
	stfs 26,0(9)
	.loc 2 2125 0
	stw 11,0(9)
.LVL35:
.LBE98:
.LBE97:
.LBB99:
.LBB100:
	.loc 2 2229 0
	stb 0,0(9)
	.loc 2 2230 0
	stb 0,0(9)
	.loc 2 2231 0
	stb 0,0(9)
	.loc 2 2232 0
	stb 31,0(9)
.LVL36:
.LBE100:
.LBE99:
.LBB101:
.LBB102:
	.loc 2 2271 0
	stfs 27,0(9)
	.loc 2 2272 0
	stfs 27,0(9)
.LVL37:
.LBE102:
.LBE101:
.LBB103:
.LBB104:
	.loc 2 2123 0
	stfs 0,0(9)
	.loc 2 2124 0
	stfs 26,0(9)
	.loc 2 2125 0
	stw 11,0(9)
.LVL38:
.LBE104:
.LBE103:
.LBB105:
.LBB106:
	.loc 2 2229 0
	stb 0,0(9)
	.loc 2 2230 0
	stb 0,0(9)
	.loc 2 2231 0
	stb 0,0(9)
	.loc 2 2232 0
	stb 31,0(9)
.LVL39:
.LBE106:
.LBE105:
.LBB107:
.LBB108:
	.loc 2 2271 0
	stw 11,0(9)
	.loc 2 2272 0
	stfs 27,0(9)
.LBE108:
.LBE107:
	.loc 1 516 0
	bl GX_LoadPosMtxImm
.LVL40:
.L29:
.LBE109:
	.loc 1 517 0
	lwz 0,340(1)
	lwz 29,252(1)
	mtlr 0
	lwz 30,256(1)
	lwz 31,260(1)
	lfd 23,264(1)
.LVL41:
	lfd 24,272(1)
.LVL42:
	lfd 25,280(1)
	lfd 26,288(1)
	lfd 27,296(1)
	lfd 28,304(1)
.LVL43:
	lfd 29,312(1)
.LVL44:
	lfd 30,320(1)
.LVL45:
	lfd 31,328(1)
.LVL46:
	addi 1,1,336
.LCFI13:
	.cfi_def_cfa_offset 0
	.cfi_restore 63
	.cfi_restore 62
	.cfi_restore 61
	.cfi_restore 60
	.cfi_restore 59
	.cfi_restore 58
	.cfi_restore 57
	.cfi_restore 56
	.cfi_restore 55
	.cfi_restore 31
	.cfi_restore 30
	.cfi_restore 29
	blr
	.cfi_endproc
.LFE1376:
	.size	_Z12Menu_DrawImgPhtthffffffh, .-_Z12Menu_DrawImgPhtthffffffh
	.align 2
	.globl _Z15Menu_DrawImgCutPhtthffffffhffff
	.type	_Z15Menu_DrawImgCutPhtthffffffhffff, @function
_Z15Menu_DrawImgCutPhtthffffffhffff:
.LFB1377:
	.loc 1 525 0
	.cfi_startproc
.LVL47:
.LBB158:
	.loc 1 526 0
	cmpwi 0,3,0
.LBE158:
	.loc 1 525 0
	mflr 0
	stwu 1,-432(1)
.LCFI14:
	.cfi_def_cfa_offset 432
	.cfi_register 65, 0
	stw 0,436(1)
	mr 0,6
	.cfi_offset 65, 4
	stfd 20,336(1)
	fmr 20,8
	.cfi_offset 52, -96
	stfd 21,344(1)
	stfd 22,352(1)
	stfd 25,376(1)
	fmr 25,7
	.cfi_offset 57, -56
	.cfi_offset 54, -80
	.cfi_offset 53, -88
	stfd 26,384(1)
	fmr 26,6
	.cfi_offset 58, -48
	stfd 27,392(1)
	fmr 27,5
	.cfi_offset 59, -40
	stfd 28,400(1)
	fmr 28,4
	.cfi_offset 60, -32
	stfd 29,408(1)
	fmr 29,3
	.cfi_offset 61, -24
	stfd 30,416(1)
	fmr 30,1
	.cfi_offset 62, -16
	stfd 31,424(1)
	fmr 31,2
	.cfi_offset 63, -8
	stw 29,292(1)
	mr 29,4
	.cfi_offset 29, -140
	stw 30,296(1)
	mr 30,5
	.cfi_offset 30, -136
	stw 31,300(1)
	mr 31,7
	.cfi_offset 31, -132
	stfd 16,304(1)
	stfd 17,312(1)
	stfd 18,320(1)
	stfd 19,328(1)
	stfd 23,360(1)
	stfd 24,368(1)
	stw 25,276(1)
	stw 26,280(1)
	stw 27,284(1)
	stw 28,288(1)
	.loc 1 525 0
	lfs 21,440(1)
	lfs 22,444(1)
.LBB271:
	.loc 1 526 0
	beq- 0,.L31
	.cfi_offset 28, -144
	.cfi_offset 27, -148
	.cfi_offset 26, -152
	.cfi_offset 25, -156
	.cfi_offset 56, -64
	.cfi_offset 55, -72
	.cfi_offset 51, -104
	.cfi_offset 50, -112
	.cfi_offset 49, -120
	.cfi_offset 48, -128
	.loc 1 531 0
	mr 6,5
.LVL48:
	mr 7,0
.LVL49:
	li 8,0
	li 10,0
	mr 5,4
.LVL50:
	li 9,0
	mr 4,3
.LVL51:
	addi 3,1,8
.LVL52:
	bl GX_InitTexObj
.LVL53:
	.loc 1 532 0
	addi 3,1,8
	li 4,0
	.loc 1 538 0
	lis 27,0x4330
	.loc 1 532 0
	bl GX_LoadTexObj
	.loc 1 538 0
	lis 25,.LC8@ha
	.loc 1 533 0
	bl GX_InvalidateTexAll
	.loc 1 535 0
	li 4,1
	li 3,13
	.loc 1 541 0
	lis 28,.LC6@ha
	.loc 1 535 0
	bl GX_SetVtxDesc
	.loc 1 539 0
	xoris 0,30,0x8000
	.loc 1 538 0
	xoris 9,29,0x8000
	.loc 1 539 0
	stw 0,244(1)
	.loc 1 538 0
	stw 9,236(1)
	lis 9,.LC2@ha
	stw 27,232(1)
	.loc 1 540 0
	addi 3,1,136
	.loc 1 539 0
	stw 27,240(1)
	.loc 1 546 0
	lis 26,.LANCHOR0@ha
	.loc 1 538 0
	lfs 0,.LC2@l(9)
	.loc 1 546 0
	la 26,.LANCHOR0@l(26)
	.loc 1 538 0
	lfd 24,232(1)
	.loc 1 546 0
	addi 26,26,4
	.loc 1 539 0
	lfd 23,240(1)
	.loc 1 538 0
	fsub 24,24,0
	.loc 1 539 0
	fsub 23,23,0
	.loc 1 538 0
	lfs 0,.LC8@l(25)
	frsp 24,24
	.loc 1 539 0
	frsp 23,23
	.loc 1 538 0
	fmuls 24,24,0
.LVL54:
	.loc 1 539 0
	fmuls 23,23,0
.LVL55:
	.loc 1 540 0
	bl ps_guMtxIdentity
	.loc 1 541 0
	fmr 2,26
	lfs 3,.LC6@l(28)
	fmr 1,27
	addi 3,1,136
	mr 4,3
	.loc 1 549 0
	fneg 18,23
	.loc 1 541 0
	bl ps_guMtxScaleApply
	.loc 1 542 0
	lis 9,.LC9@ha
	lfs 1,.LC9@l(9)
	addi 3,1,88
	li 4,122
	fmuls 1,28,1
	bl ps_guMtxRotRad
	.loc 1 543 0
	addi 5,1,184
	addi 3,1,88
	addi 4,1,136
	bl ps_guMtxConcat
	.loc 1 545 0
	fmr 3,29
	fadds 1,30,24
	addi 3,1,184
	fadds 2,31,23
	mr 4,3
	.loc 1 549 0
	fneg 29,24
.LVL56:
	.loc 1 545 0
	bl ps_guMtxTransApply
.LVL57:
	.loc 1 546 0
	addi 5,1,40
	addi 4,1,184
	mr 3,26
	bl ps_guMtxConcat
	.loc 1 547 0
	addi 3,1,40
	li 4,0
	bl GX_LoadPosMtxImm
.LVL58:
	.loc 1 560 0
	stw 29,252(1)
	stw 27,248(1)
	lis 9,.LC5@ha
	stw 30,260(1)
	.loc 1 559 0
	fmr 1,28
	.loc 1 560 0
	stw 27,256(1)
	lfs 0,.LC5@l(9)
	.loc 1 559 0
	lis 9,.LC11@ha
	.loc 1 560 0
	lfd 19,248(1)
	lfd 13,256(1)
	fsub 19,19,0
	.loc 1 559 0
	lfs 2,.LC11@l(9)
	.loc 1 560 0
	fsub 0,13,0
	frsp 19,19
	frsp 28,0
.LVL59:
	.loc 1 559 0
	bl fmod
.LVL60:
	.loc 1 560 0
	fctiwz 1,1
	addi 9,1,264
	stfiwx 1,0,9
	lwz 9,264(1)
.LVL61:
.LBB159:
.LBB160:
	.loc 1 232 0
	cmpwi 7,9,0
	blt- 7,.L125
.LVL62:
.L33:
.LBB161:
	.loc 1 235 0
	addi 0,9,-46
	cmplwi 7,0,269
	ble- 7,.L126
.L34:
.LBB162:
	.loc 1 237 0
	fmuls 13,27,19
	lfs 12,.LC8@l(25)
	.loc 1 238 0
	fmuls 0,26,28
	.loc 1 237 0
	fsubs 10,13,19
	.loc 1 238 0
	fsubs 11,0,28
	.loc 1 522 0
	fneg 10,10
	fneg 11,11
	.loc 1 237 0
	fmadds 30,10,12,30
.LVL63:
	.loc 1 238 0
	fmadds 31,11,12,31
.LVL64:
.LBB163:
	.loc 1 240 0
	fcmpu 7,25,30
	bgt- 7,.L127
	.loc 1 553 0
	lis 11,.LC7@ha
	.loc 1 554 0
	lfs 25,.LC6@l(28)
.LVL65:
	.loc 1 553 0
	lfs 16,.LC7@l(11)
.LVL66:
.L36:
.LBE163:
.LBB167:
	.loc 1 268 0
	fadds 30,13,30
.LVL67:
	fcmpu 7,20,30
	bnl- 7,.L41
.LBB168:
	.loc 1 270 0
	fsubs 30,30,20
	fabs 30,30
	fdivs 27,30,27
.LVL68:
	.loc 1 272 0
	fcmpu 7,19,27
	.loc 1 271 0
	fdivs 12,27,19
.LVL69:
	.loc 1 272 0
	blt- 7,.L43
	.loc 1 274 0
	lis 11,.LC7@ha
	lfs 19,.LC7@l(11)
.LVL70:
	fcmpu 7,27,19
	blt- 7,.L43
	.loc 1 270 0
	fmr 19,27
.L43:
.LVL71:
	.loc 1 276 0
	lfs 13,.LC6@l(28)
	fcmpu 7,12,13
	bng- 7,.L128
.L84:
	.loc 1 279 0
	fmr 12,13
.LVL72:
.L44:
	.loc 1 280 0
	cmplwi 7,0,269
	bgt- 7,.L129
	.loc 1 287 0
	addi 11,9,-136
	cmplwi 7,11,89
	bgt- 7,.L41
	.loc 1 289 0
	fadds 29,29,19
.LVL73:
	.loc 1 291 0
	fadds 16,16,12
.LVL74:
.L41:
.LBE168:
.LBE167:
.LBB171:
	.loc 1 295 0
	fcmpu 7,21,31
	bng- 7,.L122
.LBB172:
	.loc 1 297 0
	fsubs 21,31,21
	fabs 21,21
	fdivs 21,21,26
.LVL75:
	.loc 1 300 0
	fcmpu 7,28,21
	.loc 1 298 0
	fdivs 13,21,28
.LVL76:
	.loc 1 300 0
	blt- 7,.L86
	.loc 1 302 0
	lis 11,.LC7@ha
	lfs 12,.LC7@l(11)
	fcmpu 7,21,12
	bnl- 7,.L48
	.loc 1 303 0
	fmr 21,12
.LVL77:
.L48:
	.loc 1 304 0
	lfs 12,.LC6@l(28)
	fcmpu 7,13,12
	bgt- 7,.L89
.L133:
	.loc 1 306 0
	lis 11,.LC7@ha
	lfs 12,.LC7@l(11)
	fcmpu 7,13,12
	blt- 7,.L89
	.loc 1 308 0
	cmplwi 7,0,269
	ble- 7,.L50
.L134:
.LBE172:
.LBE171:
.LBB177:
	.loc 1 323 0
	fadds 31,0,31
.LVL78:
.LBE177:
.LBB181:
.LBB173:
	.loc 1 312 0
	lis 11,.LC7@ha
	lfs 17,.LC7@l(11)
	.loc 1 310 0
	fsubs 18,21,23
.LVL79:
	.loc 1 555 0
	lfs 30,.LC6@l(28)
.LBE173:
.LBE181:
.LBB182:
	.loc 1 323 0
	fcmpu 7,22,31
.LBE182:
.LBB183:
.LBB174:
	.loc 1 312 0
	fadds 17,13,17
.LVL80:
.LBE174:
.LBE183:
.LBB184:
	.loc 1 323 0
	blt+ 7,.L130
.LVL81:
.L51:
.LBE184:
.LBE162:
.LBE161:
.LBE160:
.LBE159:
	.loc 1 562 0
	li 3,128
	li 4,0
	li 5,4
	bl GX_Begin
.LVL82:
.LBB238:
.LBB239:
	.loc 2 2123 0
	lis 9,wgPipe@ha
	lwz 9,wgPipe@l(9)
.LBE239:
.LBE238:
.LBB243:
.LBB244:
	.loc 2 2229 0
	li 0,-1
.LBE244:
.LBE243:
.LBB246:
.LBB240:
	.loc 2 2125 0
	li 11,0
.LBE240:
.LBE246:
	.loc 1 580 0
	mr 3,26
.LBB247:
.LBB241:
	.loc 2 2123 0
	stfs 29,0(9)
.LBE241:
.LBE247:
	.loc 1 580 0
	li 4,0
.LBB248:
.LBB242:
	.loc 2 2124 0
	stfs 18,0(9)
	.loc 2 2125 0
	stw 11,0(9)
.LVL83:
.LBE242:
.LBE248:
.LBB249:
.LBB245:
	.loc 2 2229 0
	stb 0,0(9)
	.loc 2 2230 0
	stb 0,0(9)
	.loc 2 2231 0
	stb 0,0(9)
	.loc 2 2232 0
	stb 31,0(9)
.LVL84:
.LBE245:
.LBE249:
.LBB250:
.LBB251:
	.loc 2 2271 0
	stfs 16,0(9)
	.loc 2 2272 0
	stfs 17,0(9)
.LVL85:
.LBE251:
.LBE250:
.LBB252:
.LBB253:
	.loc 2 2123 0
	stfs 24,0(9)
	.loc 2 2124 0
	stfs 18,0(9)
	.loc 2 2125 0
	stw 11,0(9)
.LVL86:
.LBE253:
.LBE252:
.LBB254:
.LBB255:
	.loc 2 2229 0
	stb 0,0(9)
	.loc 2 2230 0
	stb 0,0(9)
	.loc 2 2231 0
	stb 0,0(9)
	.loc 2 2232 0
	stb 31,0(9)
.LVL87:
.LBE255:
.LBE254:
.LBB256:
.LBB257:
	.loc 2 2271 0
	stfs 25,0(9)
	.loc 2 2272 0
	stfs 17,0(9)
.LVL88:
.LBE257:
.LBE256:
.LBB258:
.LBB259:
	.loc 2 2123 0
	stfs 24,0(9)
	.loc 2 2124 0
	stfs 23,0(9)
	.loc 2 2125 0
	stw 11,0(9)
.LVL89:
.LBE259:
.LBE258:
.LBB260:
.LBB261:
	.loc 2 2229 0
	stb 0,0(9)
	.loc 2 2230 0
	stb 0,0(9)
	.loc 2 2231 0
	stb 0,0(9)
	.loc 2 2232 0
	stb 31,0(9)
.LVL90:
.LBE261:
.LBE260:
.LBB262:
.LBB263:
	.loc 2 2271 0
	stfs 25,0(9)
	.loc 2 2272 0
	stfs 30,0(9)
.LVL91:
.LBE263:
.LBE262:
.LBB264:
.LBB265:
	.loc 2 2123 0
	stfs 29,0(9)
	.loc 2 2124 0
	stfs 23,0(9)
	.loc 2 2125 0
	stw 11,0(9)
.LVL92:
.LBE265:
.LBE264:
.LBB266:
.LBB267:
	.loc 2 2229 0
	stb 0,0(9)
	.loc 2 2230 0
	stb 0,0(9)
	.loc 2 2231 0
	stb 0,0(9)
	.loc 2 2232 0
	stb 31,0(9)
.LVL93:
.LBE267:
.LBE266:
.LBB268:
.LBB269:
	.loc 2 2271 0
	stfs 16,0(9)
	.loc 2 2272 0
	stfs 30,0(9)
.LBE269:
.LBE268:
	.loc 1 580 0
	bl GX_LoadPosMtxImm
.LVL94:
.L31:
.LBE271:
	.loc 1 581 0
	lwz 0,436(1)
	lwz 25,276(1)
	mtlr 0
	lwz 26,280(1)
	lwz 27,284(1)
	lwz 28,288(1)
	lwz 29,292(1)
	lwz 30,296(1)
	lwz 31,300(1)
	lfd 16,304(1)
	lfd 17,312(1)
	lfd 18,320(1)
	lfd 19,328(1)
	lfd 20,336(1)
.LVL95:
	lfd 21,344(1)
	lfd 22,352(1)
	lfd 23,360(1)
	lfd 24,368(1)
	lfd 25,376(1)
	lfd 26,384(1)
	lfd 27,392(1)
	lfd 28,400(1)
	lfd 29,408(1)
	lfd 30,416(1)
	lfd 31,424(1)
	addi 1,1,432
	.cfi_remember_state
.LCFI15:
	.cfi_def_cfa_offset 0
	.cfi_restore 63
	.cfi_restore 62
	.cfi_restore 61
	.cfi_restore 60
	.cfi_restore 59
	.cfi_restore 58
	.cfi_restore 57
	.cfi_restore 56
	.cfi_restore 55
	.cfi_restore 54
	.cfi_restore 53
	.cfi_restore 52
	.cfi_restore 51
	.cfi_restore 50
	.cfi_restore 49
	.cfi_restore 48
	.cfi_restore 31
	.cfi_restore 30
	.cfi_restore 29
	.cfi_restore 28
	.cfi_restore 27
	.cfi_restore 26
	.cfi_restore 25
	blr
.LVL96:
.L126:
.LCFI16:
	.cfi_restore_state
.LBB272:
.LBB270:
.LBB237:
.LBB235:
	.loc 1 235 0
	addi 11,9,-136
	cmplwi 7,11,89
	ble- 7,.L34
.LBB196:
	.loc 1 351 0
	cmplwi 7,0,89
	ble- 7,.L56
	addi 11,9,-226
	cmplwi 7,11,89
	bgt- 7,.L94
.L56:
.LBB197:
	.loc 1 353 0
	fmuls 11,26,28
	lfs 0,.LC8@l(25)
	.loc 1 522 0
	fneg 10,28
	.loc 1 353 0
	fmadds 30,19,0,30
.LVL97:
	fsubs 13,11,28
	.loc 1 354 0
	fmuls 12,27,19
	.loc 1 353 0
	fmadds 30,10,0,30
	.loc 1 522 0
	fneg 13,13
	.loc 1 354 0
	fmadds 31,28,0,31
.LVL98:
	fsubs 10,12,19
	.loc 1 353 0
	fmadds 13,13,0,30
.LVL99:
	.loc 1 522 0
	fneg 9,19
	fneg 10,10
.LBB198:
	.loc 1 356 0
	fcmpu 7,25,13
.LBE198:
	.loc 1 354 0
	fmadds 31,9,0,31
	fmadds 0,10,0,31
.LVL100:
.LBB203:
	.loc 1 356 0
	bng- 7,.L100
.LBB199:
	.loc 1 358 0
	fsubs 25,13,25
.LVL101:
	fabs 25,25
	fdivs 25,25,26
.LVL102:
	.loc 1 360 0
	fcmpu 7,28,25
	.loc 1 359 0
	fdivs 10,25,28
.LVL103:
	.loc 1 360 0
	blt- 7,.L96
	.loc 1 362 0
	lis 11,.LC7@ha
	lfs 9,.LC7@l(11)
	fcmpu 7,25,9
	bnl- 7,.L59
	.loc 1 363 0
	fmr 25,9
.LVL104:
.L59:
	.loc 1 364 0
	lfs 9,.LC6@l(28)
	fcmpu 7,10,9
	bgt- 7,.L99
	.loc 1 366 0
	lis 11,.LC7@ha
	lfs 9,.LC7@l(11)
	fcmpu 7,10,9
	blt- 7,.L99
.LVL105:
.L60:
	.loc 1 368 0
	cmplwi 7,0,89
	bgt- 7,.L61
	.loc 1 372 0
	lfs 30,.LC6@l(28)
	.loc 1 553 0
	lis 11,.LC7@ha
	.loc 1 370 0
	fsubs 23,23,25
.LVL106:
	.loc 1 553 0
	lfs 17,.LC7@l(11)
	.loc 1 372 0
	fsubs 30,30,10
.LVL107:
	b .L57
.LVL108:
.L127:
.LBE199:
.LBE203:
.LBE197:
.LBE196:
.LBB230:
.LBB185:
.LBB164:
	.loc 1 242 0
	fsubs 12,30,25
	fabs 12,12
	fdivs 12,12,27
.LVL109:
	.loc 1 245 0
	fcmpu 7,19,12
	.loc 1 243 0
	fdivs 11,12,19
.LVL110:
	.loc 1 245 0
	blt- 7,.L77
	.loc 1 247 0
	lis 11,.LC7@ha
	lfs 10,.LC7@l(11)
	fcmpu 7,12,10
	bnl- 7,.L38
	.loc 1 248 0
	fmr 12,10
.LVL111:
.L38:
	.loc 1 249 0
	lfs 10,.LC6@l(28)
	fcmpu 7,11,10
	bgt- 7,.L80
.L135:
	.loc 1 251 0
	lis 11,.LC7@ha
	lfs 10,.LC7@l(11)
	fcmpu 7,11,10
	blt- 7,.L80
	.loc 1 253 0
	cmplwi 7,0,269
	ble- 7,.L40
.L136:
	.loc 1 257 0
	lis 11,.LC7@ha
	.loc 1 255 0
	fsubs 29,12,24
.LVL112:
	.loc 1 257 0
	lfs 16,.LC7@l(11)
	.loc 1 554 0
	lfs 25,.LC6@l(28)
.LVL113:
	.loc 1 257 0
	fadds 16,11,16
.LVL114:
	b .L36
.LVL115:
.L122:
.LBE164:
.LBE185:
.LBB186:
	.loc 1 553 0
	lis 11,.LC7@ha
	.loc 1 555 0
	lfs 30,.LC6@l(28)
	.loc 1 553 0
	lfs 17,.LC7@l(11)
.LVL116:
.L46:
.LBE186:
.LBB187:
	.loc 1 323 0
	fadds 31,0,31
.LVL117:
	fcmpu 7,22,31
	bnl- 7,.L51
.L130:
.LBB178:
	.loc 1 325 0
	fsubs 31,31,22
	fabs 31,31
	fdivs 26,31,26
.LVL118:
	.loc 1 327 0
	fcmpu 7,28,26
	.loc 1 326 0
	fdivs 13,26,28
.LVL119:
	.loc 1 327 0
	blt- 7,.L53
	.loc 1 329 0
	lis 11,.LC7@ha
	lfs 28,.LC7@l(11)
.LVL120:
	fcmpu 7,26,28
	blt- 7,.L53
	.loc 1 325 0
	fmr 28,26
.L53:
.LVL121:
	.loc 1 331 0
	lfs 0,.LC6@l(28)
	fcmpu 7,13,0
	bng- 7,.L131
.L93:
	.loc 1 334 0
	fmr 13,0
.LVL122:
.L54:
	.loc 1 335 0
	cmplwi 7,0,269
	bgt- 7,.L132
	.loc 1 342 0
	addi 9,9,-136
.LVL123:
	cmplwi 7,9,89
	bgt- 7,.L51
.LVL124:
	.loc 1 344 0
	fadds 18,18,28
.LVL125:
	.loc 1 346 0
	fadds 17,17,13
.LVL126:
	b .L51
.LVL127:
.L125:
.LBE178:
.LBE187:
.LBE230:
.LBE235:
	.loc 1 233 0
	addi 9,9,360
.LVL128:
	b .L33
.LVL129:
.L131:
.LBB236:
.LBB231:
.LBB188:
.LBB179:
	.loc 1 333 0
	lis 11,.LC7@ha
	lfs 0,.LC7@l(11)
	fcmpu 7,13,0
	blt- 7,.L93
	b .L54
.LVL130:
.L86:
.LBE179:
.LBE188:
.LBB189:
.LBB175:
	.loc 1 304 0
	lfs 12,.LC6@l(28)
	.loc 1 301 0
	fmr 21,28
.LVL131:
	.loc 1 304 0
	fcmpu 7,13,12
	bng- 7,.L133
.LVL132:
.L89:
	.loc 1 308 0
	cmplwi 7,0,269
	.loc 1 307 0
	fmr 13,12
.LVL133:
	.loc 1 308 0
	bgt- 7,.L134
.LVL134:
.L50:
	.loc 1 315 0
	addi 11,9,-136
	.loc 1 319 0
	lfs 30,.LC6@l(28)
	.loc 1 315 0
	cmplwi 7,11,89
	bgt- 7,.L90
	.loc 1 553 0
	lis 11,.LC7@ha
	.loc 1 317 0
	fsubs 23,23,21
.LVL135:
	.loc 1 319 0
	fsubs 30,30,13
.LVL136:
	.loc 1 553 0
	lfs 17,.LC7@l(11)
	b .L46
.LVL137:
.L128:
.LBE175:
.LBE189:
.LBB190:
.LBB169:
	.loc 1 278 0
	lis 11,.LC7@ha
	lfs 13,.LC7@l(11)
	fcmpu 7,12,13
	blt- 7,.L84
	b .L44
.LVL138:
.L77:
.LBE169:
.LBE190:
.LBB191:
.LBB165:
	.loc 1 249 0
	lfs 10,.LC6@l(28)
	.loc 1 246 0
	fmr 12,19
.LVL139:
	.loc 1 249 0
	fcmpu 7,11,10
	bng- 7,.L135
.LVL140:
.L80:
	.loc 1 253 0
	cmplwi 7,0,269
	.loc 1 252 0
	fmr 11,10
.LVL141:
	.loc 1 253 0
	bgt- 7,.L136
.LVL142:
.L40:
	.loc 1 260 0
	addi 11,9,-136
	.loc 1 264 0
	lfs 25,.LC6@l(28)
.LVL143:
	.loc 1 260 0
	cmplwi 7,11,89
	bgt- 7,.L81
	.loc 1 553 0
	lis 11,.LC7@ha
	.loc 1 262 0
	fsubs 24,24,12
.LVL144:
	.loc 1 264 0
	fsubs 25,25,11
.LVL145:
	.loc 1 553 0
	lfs 16,.LC7@l(11)
	b .L36
.LVL146:
.L129:
.LBE165:
.LBE191:
.LBB192:
.LBB170:
	.loc 1 282 0
	fsubs 24,24,19
.LVL147:
	.loc 1 284 0
	fsubs 25,25,12
.LVL148:
	b .L41
.LVL149:
.L132:
.LBE170:
.LBE192:
.LBB193:
.LBB180:
	.loc 1 337 0
	fsubs 23,23,28
.LVL150:
	.loc 1 339 0
	fsubs 30,30,13
.LVL151:
	b .L51
.LVL152:
.L100:
.LBE180:
.LBE193:
.LBE231:
.LBB232:
.LBB227:
.LBB204:
.LBB200:
	.loc 1 553 0
	lis 11,.LC7@ha
	.loc 1 555 0
	lfs 30,.LC6@l(28)
	.loc 1 553 0
	lfs 17,.LC7@l(11)
.LVL153:
.L57:
.LBE200:
.LBE204:
.LBB205:
	.loc 1 383 0
	fadds 13,11,13
.LVL154:
	fcmpu 7,20,13
	bnl- 7,.L62
.LBB206:
	.loc 1 385 0
	fsubs 13,13,20
	fabs 13,13
	fdivs 26,13,26
.LVL155:
	.loc 1 387 0
	fcmpu 7,28,26
	.loc 1 386 0
	fdivs 11,26,28
.LVL156:
	.loc 1 387 0
	blt- 7,.L64
	.loc 1 389 0
	lis 11,.LC7@ha
	lfs 28,.LC7@l(11)
.LVL157:
	fcmpu 7,26,28
	blt- 7,.L64
	.loc 1 385 0
	fmr 28,26
.L64:
.LVL158:
	.loc 1 391 0
	lfs 13,.LC6@l(28)
	fcmpu 7,11,13
	bng- 7,.L137
.L103:
	.loc 1 394 0
	fmr 11,13
.LVL159:
.L65:
	.loc 1 395 0
	cmplwi 7,0,89
	ble- 7,.L138
	.loc 1 402 0
	addi 11,9,-226
	cmplwi 7,11,89
	bgt- 7,.L62
	.loc 1 404 0
	fsubs 23,23,28
.LVL160:
	.loc 1 406 0
	fsubs 30,30,11
.LVL161:
.L62:
.LBE206:
.LBE205:
.LBB208:
	.loc 1 410 0
	fcmpu 7,21,0
	bng- 7,.L124
.LBB209:
	.loc 1 412 0
	fsubs 21,0,21
	fabs 21,21
	fdivs 21,21,27
.LVL162:
	.loc 1 414 0
	fcmpu 7,19,21
	.loc 1 413 0
	fdivs 13,21,19
.LVL163:
	.loc 1 414 0
	blt- 7,.L105
	.loc 1 416 0
	lis 11,.LC7@ha
	lfs 11,.LC7@l(11)
	fcmpu 7,21,11
	bnl- 7,.L69
	.loc 1 417 0
	fmr 21,11
.LVL164:
.L69:
	.loc 1 418 0
	lfs 11,.LC6@l(28)
	fcmpu 7,13,11
	bgt- 7,.L108
	.loc 1 420 0
	lis 11,.LC7@ha
	lfs 11,.LC7@l(11)
	fcmpu 7,13,11
	blt- 7,.L108
.LVL165:
.L70:
	.loc 1 422 0
	cmplwi 7,0,89
	bgt- 7,.L71
	.loc 1 426 0
	lis 11,.LC7@ha
	.loc 1 424 0
	fsubs 29,21,24
.LVL166:
	.loc 1 426 0
	lfs 16,.LC7@l(11)
	.loc 1 554 0
	lfs 25,.LC6@l(28)
	.loc 1 426 0
	fadds 16,13,16
.LVL167:
	b .L67
.LVL168:
.L124:
.LBE209:
	.loc 1 553 0
	lis 11,.LC7@ha
	.loc 1 554 0
	lfs 25,.LC6@l(28)
	.loc 1 553 0
	lfs 16,.LC7@l(11)
.LVL169:
.L67:
.LBE208:
.LBB214:
	.loc 1 437 0
	fadds 0,12,0
.LVL170:
	fcmpu 7,22,0
	bnl- 7,.L51
.LBB215:
	.loc 1 439 0
	fsubs 0,0,22
	fabs 0,0
	fdivs 27,0,27
.LVL171:
	.loc 1 441 0
	fcmpu 7,19,27
	.loc 1 440 0
	fdivs 13,27,19
.LVL172:
	.loc 1 441 0
	blt- 7,.L73
	.loc 1 443 0
	lis 11,.LC7@ha
	lfs 19,.LC7@l(11)
.LVL173:
	fcmpu 7,27,19
	blt- 7,.L73
	.loc 1 439 0
	fmr 19,27
.L73:
.LVL174:
	.loc 1 445 0
	lfs 0,.LC6@l(28)
	fcmpu 7,13,0
	bng- 7,.L139
.L112:
	.loc 1 448 0
	fmr 13,0
.LVL175:
.L74:
	.loc 1 449 0
	cmplwi 7,0,89
	ble- 7,.L140
	.loc 1 456 0
	addi 9,9,-226
.LVL176:
	cmplwi 7,9,89
	bgt- 7,.L51
.LVL177:
	.loc 1 458 0
	fadds 29,29,19
.LVL178:
	.loc 1 460 0
	fadds 16,16,13
.LVL179:
	b .L51
.LVL180:
.L81:
.LBE215:
.LBE214:
.LBE227:
.LBE232:
.LBB233:
.LBB194:
.LBB166:
	.loc 1 553 0
	lis 11,.LC7@ha
	lfs 16,.LC7@l(11)
	b .L36
.LVL181:
.L90:
.LBE166:
.LBE194:
.LBB195:
.LBB176:
	lis 11,.LC7@ha
	lfs 17,.LC7@l(11)
	b .L46
.LVL182:
.L139:
.LBE176:
.LBE195:
.LBE233:
.LBB234:
.LBB228:
.LBB218:
.LBB216:
	.loc 1 447 0
	lis 11,.LC7@ha
	lfs 0,.LC7@l(11)
	fcmpu 7,13,0
	blt- 7,.L112
	b .L74
.LVL183:
.L105:
.LBE216:
.LBE218:
.LBB219:
.LBB210:
	.loc 1 415 0
	fmr 21,19
.LVL184:
	b .L69
.LVL185:
.L138:
.LBE210:
.LBE219:
.LBB220:
.LBB207:
	.loc 1 397 0
	fadds 18,18,28
.LVL186:
	.loc 1 399 0
	fadds 17,17,11
.LVL187:
	b .L62
.L137:
	.loc 1 393 0
	lis 11,.LC7@ha
	lfs 13,.LC7@l(11)
	fcmpu 7,11,13
	blt- 7,.L103
	b .L65
.LVL188:
.L96:
.LBE207:
.LBE220:
.LBB221:
.LBB201:
	.loc 1 361 0
	fmr 25,28
.LVL189:
	b .L59
.LVL190:
.L108:
.LBE201:
.LBE221:
.LBB222:
.LBB211:
	.loc 1 421 0
	fmr 13,11
.LVL191:
	b .L70
.LVL192:
.L99:
.LBE211:
.LBE222:
.LBB223:
.LBB202:
	.loc 1 367 0
	fmr 10,9
.LVL193:
	b .L60
.LVL194:
.L61:
	.loc 1 375 0
	addi 11,9,-226
	cmplwi 7,11,89
	bgt- 7,.L100
	.loc 1 379 0
	lis 11,.LC7@ha
	.loc 1 377 0
	fsubs 18,25,23
.LVL195:
	.loc 1 379 0
	lfs 17,.LC7@l(11)
	.loc 1 555 0
	lfs 30,.LC6@l(28)
	.loc 1 379 0
	fadds 17,10,17
.LVL196:
	b .L57
.LVL197:
.L71:
.LBE202:
.LBE223:
.LBB224:
.LBB212:
	.loc 1 429 0
	addi 11,9,-226
	.loc 1 433 0
	lfs 25,.LC6@l(28)
	.loc 1 429 0
	cmplwi 7,11,89
	bgt- 7,.L109
	.loc 1 553 0
	lis 11,.LC7@ha
	.loc 1 431 0
	fsubs 24,24,21
.LVL198:
	.loc 1 433 0
	fsubs 25,25,13
.LVL199:
	.loc 1 553 0
	lfs 16,.LC7@l(11)
	b .L67
.LVL200:
.L94:
.LBE212:
.LBE224:
.LBE228:
	lis 9,.LC7@ha
	.loc 1 555 0
	lfs 30,.LC6@l(28)
.LVL201:
	.loc 1 553 0
	lfs 17,.LC7@l(9)
	.loc 1 554 0
	fmr 25,30
.LVL202:
	.loc 1 553 0
	fmr 16,17
	b .L51
.LVL203:
.L140:
.LBB229:
.LBB225:
.LBB217:
	.loc 1 451 0
	fsubs 24,24,19
.LVL204:
	.loc 1 453 0
	fsubs 25,25,13
.LVL205:
	b .L51
.LVL206:
.L109:
.LBE217:
.LBE225:
.LBB226:
.LBB213:
	.loc 1 553 0
	lis 11,.LC7@ha
	lfs 16,.LC7@l(11)
	b .L67
.LBE213:
.LBE226:
.LBE229:
.LBE234:
.LBE236:
.LBE237:
.LBE270:
.LBE272:
	.cfi_endproc
.LFE1377:
	.size	_Z15Menu_DrawImgCutPhtthffffffhffff, .-_Z15Menu_DrawImgCutPhtthffffffhffff
	.align 2
	.globl _Z18Menu_DrawRectanglefffffP9_gx_colorbb
	.type	_Z18Menu_DrawRectanglefffffP9_gx_colorbb, @function
_Z18Menu_DrawRectanglefffffP9_gx_colorbb:
.LFB1378:
	.loc 1 589 0
	.cfi_startproc
.LVL207:
	stwu 1,-128(1)
.LCFI17:
	.cfi_def_cfa_offset 128
	mflr 0
	stw 29,76(1)
	mr 29,4
	.cfi_offset 29, -52
	.cfi_register 65, 0
	stw 31,84(1)
.LBB273:
	.loc 1 590 0
	li 4,4
.LVL208:
.LBE273:
	.loc 1 589 0
	mr 31,3
	.cfi_offset 31, -44
.LBB284:
	.loc 1 590 0
	li 3,0
.LVL209:
.LBE284:
	.loc 1 589 0
	stw 0,132(1)
	stfd 27,88(1)
	fmr 27,5
	.cfi_offset 59, -40
	.cfi_offset 65, 4
	stfd 28,96(1)
	fmr 28,4
	.cfi_offset 60, -32
	stfd 29,104(1)
	fmr 29,2
	.cfi_offset 61, -24
	stfd 30,112(1)
	fmr 30,1
	.cfi_offset 62, -16
	stfd 31,120(1)
	fmr 31,3
	.cfi_offset 63, -8
	stw 30,80(1)
	.loc 1 589 0
	mr 30,5
	.cfi_offset 30, -48
.LBB285:
	.loc 1 590 0
	bl GX_SetTevOp
.LVL210:
	.loc 1 591 0
	li 3,13
	li 4,0
	bl GX_SetVtxDesc
.LVL211:
	.loc 1 597 0
	addi 3,1,8
	li 4,0
	li 5,60
	bl memset
	.loc 1 599 0
	cmpwi 7,30,0
	.loc 1 595 0
	fadds 28,30,28
.LVL212:
	.loc 1 597 0
	stfs 30,8(1)
	.loc 1 596 0
	fadds 5,29,27
.LVL213:
	.loc 1 597 0
	stfs 29,12(1)
	stfs 31,16(1)
	stfs 28,20(1)
	stfs 29,24(1)
	stfs 31,28(1)
	stfs 28,32(1)
	stfs 5,36(1)
	stfs 31,40(1)
	stfs 30,44(1)
	stfs 5,48(1)
	stfs 31,52(1)
	stfs 30,56(1)
	stfs 29,60(1)
	stfs 31,64(1)
	.loc 1 599 0
	beq- 7,.L147
	li 5,4
	.loc 1 594 0
	li 30,4
	.loc 1 593 0
	li 3,160
.L142:
.LVL214:
	.loc 1 605 0
	li 4,0
	bl GX_Begin
.LVL215:
	cmpwi 7,29,0
	lis 9,wgPipe@ha
	lwz 9,wgPipe@l(9)
	bne- 7,.L143
	cmpwi 7,30,0
	mtctr 30
	addi 11,1,8
	ble- 7,.L152
.LVL216:
.L144:
.LBB274:
	.loc 1 608 0
	lwz 8,0(11)
	lwz 10,4(11)
	lwz 0,8(11)
.LVL217:
	.loc 1 606 0
	addi 11,11,12
.LVL218:
.LBB275:
.LBB276:
	.loc 2 2123 0
	stw 8,0(9)
	.loc 2 2124 0
	stw 10,0(9)
	.loc 2 2125 0
	stw 0,0(9)
.LBE276:
.LBE275:
	.loc 1 613 0
	lbz 7,0(31)
	lbz 8,1(31)
	lbz 10,2(31)
	lbz 0,3(31)
.LVL219:
.LBB278:
.LBB279:
	.loc 2 2229 0
	stb 7,0(9)
	.loc 2 2230 0
	stb 8,0(9)
	.loc 2 2231 0
	stb 10,0(9)
	.loc 2 2232 0
	stb 0,0(9)
.LBE279:
.LBE278:
	.loc 1 606 0
	bdnz .L144
.LBE274:
	.loc 1 617 0
	li 3,0
	li 4,0
	bl GX_SetTevOp
.LVL220:
.LBE285:
	.loc 1 618 0
	lwz 0,132(1)
	lwz 29,76(1)
	mtlr 0
	lwz 30,80(1)
.LVL221:
	lwz 31,84(1)
.LVL222:
	lfd 27,88(1)
.LVL223:
	lfd 28,96(1)
.LVL224:
	lfd 29,104(1)
.LVL225:
	lfd 30,112(1)
.LVL226:
	lfd 31,120(1)
.LVL227:
	addi 1,1,128
	.cfi_remember_state
.LCFI18:
	.cfi_def_cfa_offset 0
	.cfi_restore 63
	.cfi_restore 62
	.cfi_restore 61
	.cfi_restore 60
	.cfi_restore 59
	.cfi_restore 31
	.cfi_restore 30
	.cfi_restore 29
	blr
.LVL228:
.L143:
.LCFI19:
	.cfi_restore_state
	cmpwi 7,30,0
	mtctr 30
.LBB286:
.LBB283:
	.loc 1 606 0
	addi 11,1,8
	ble- 7,.L153
.LVL229:
.L146:
	.loc 1 608 0
	lwz 8,0(11)
	lwz 10,4(11)
	lwz 0,8(11)
.LVL230:
	.loc 1 606 0
	addi 11,11,12
.LVL231:
.LBB280:
.LBB277:
	.loc 2 2123 0
	stw 8,0(9)
	.loc 2 2124 0
	stw 10,0(9)
	.loc 2 2125 0
	stw 0,0(9)
.LBE277:
.LBE280:
	.loc 1 611 0
	lbz 7,0(31)
	lbz 8,1(31)
	lbz 10,2(31)
	lbz 0,3(31)
.LVL232:
	.loc 1 606 0
	addi 31,31,4
.LBB281:
.LBB282:
	.loc 2 2229 0
	stb 7,0(9)
	.loc 2 2230 0
	stb 8,0(9)
	.loc 2 2231 0
	stb 10,0(9)
	.loc 2 2232 0
	stb 0,0(9)
.LBE282:
.LBE281:
	.loc 1 606 0
	bdnz .L146
.LBE283:
	.loc 1 617 0
	li 3,0
	li 4,0
	bl GX_SetTevOp
.LVL233:
.LBE286:
	.loc 1 618 0
	lwz 0,132(1)
	lwz 29,76(1)
	mtlr 0
	lwz 30,80(1)
.LVL234:
	lwz 31,84(1)
	lfd 27,88(1)
.LVL235:
	lfd 28,96(1)
.LVL236:
	lfd 29,104(1)
.LVL237:
	lfd 30,112(1)
.LVL238:
	lfd 31,120(1)
.LVL239:
	addi 1,1,128
	.cfi_remember_state
	.cfi_restore 29
	.cfi_restore 30
	.cfi_restore 31
	.cfi_restore 59
	.cfi_restore 60
	.cfi_restore 61
	.cfi_restore 62
	.cfi_restore 63
.LCFI20:
	.cfi_def_cfa_offset 0
	blr
.LVL240:
.L147:
.LCFI21:
	.cfi_restore_state
.LBB287:
	.loc 1 599 0
	li 5,5
	.loc 1 602 0
	li 30,5
	.loc 1 601 0
	li 3,176
	b .L142
.LVL241:
.L152:
	li 0,1
	mtctr 0
	b .L144
.L153:
	li 0,1
	mtctr 0
	b .L146
.LBE287:
	.cfi_endproc
.LFE1378:
	.size	_Z18Menu_DrawRectanglefffffP9_gx_colorbb, .-_Z18Menu_DrawRectanglefffffP9_gx_colorbb
	.globl frameCount
	.globl screenheight
	.globl screenwidth
	.section	.rodata.cst4,"aM",@progbits,4
	.align 2
.LC0:
	.4byte	-1018691584
.LC2:
	.4byte	1501560836
.LC3:
	.4byte	1133903872
.LC5:
	.4byte	1501560832
.LC6:
	.4byte	1065353216
.LC7:
	.4byte	0
.LC8:
	.4byte	1056964608
.LC9:
	.4byte	1016003125
.LC11:
	.4byte	1135869952
	.section	.sbss,"aw",@nobits
	.align 2
	.type	frameCount, @object
	.size	frameCount, 4
frameCount:
	.zero	4
	.section	.sdata,"aw",@progbits
	.align 2
	.type	screenheight, @object
	.size	screenheight, 4
screenheight:
	.long	480
	.type	screenwidth, @object
	.size	screenwidth, 4
screenwidth:
	.long	640
	.section	".bss"
	.align 5
	.set	.LANCHOR0,. + 0
	.type	_ZL5vmode, @object
	.size	_ZL5vmode, 4
_ZL5vmode:
	.zero	4
	.type	_ZL13GXmodelView2D, @object
	.size	_ZL13GXmodelView2D, 48
_ZL13GXmodelView2D:
	.zero	48
	.type	_ZL3xfb, @object
	.size	_ZL3xfb, 8
_ZL3xfb:
	.zero	8
	.zero	4
	.type	_ZL7gp_fifo, @object
	.size	_ZL7gp_fifo, 262144
_ZL7gp_fifo:
	.zero	262144
	.type	_ZL7whichfb, @object
	.size	_ZL7whichfb, 4
_ZL7whichfb:
	.zero	4
	.section	".text"
.Letext0:
	.file 3 "d:\\devkitpro\\devkitppc\\bin\\../lib/gcc/powerpc-eabi/4.6.3/../../../../powerpc-eabi/include/stdint.h"
	.file 4 "d:/devkitPro/libogc/include/gctypes.h"
	.file 5 "d:/devkitPro/libogc/include/ogc/gx_struct.h"
	.file 6 "d:/devkitPro/libogc/include/ogc/gu.h"
	.file 7 "d:\\devkitpro\\devkitppc\\bin\\../lib/gcc/powerpc-eabi/4.6.3/../../../../powerpc-eabi/include/machine/_types.h"
	.file 8 "d:\\devkitpro\\devkitppc\\bin\\../lib/gcc/powerpc-eabi/4.6.3/../../../../powerpc-eabi/include/sys/lock.h"
	.file 9 "d:\\devkitpro\\devkitppc\\bin\\../lib/gcc/powerpc-eabi/4.6.3/include/stddef.h"
	.file 10 "d:\\devkitpro\\devkitppc\\bin\\../lib/gcc/powerpc-eabi/4.6.3/../../../../powerpc-eabi/include/sys/_types.h"
	.file 11 "d:\\devkitpro\\devkitppc\\bin\\../lib/gcc/powerpc-eabi/4.6.3/../../../../powerpc-eabi/include/sys/reent.h"
	.file 12 "d:\\devkitpro\\devkitppc\\bin\\../lib/gcc/powerpc-eabi/4.6.3/../../../../powerpc-eabi/include/time.h"
	.file 13 "d:/devkitPro/libogc/include/ogc/conf.h"
	.file 14 "<built-in>"
	.file 15 "d:\\devkitpro\\devkitppc\\bin\\../lib/gcc/powerpc-eabi/4.6.3/../../../../powerpc-eabi/include/wchar.h"
	.file 16 "d:\\devkitpro\\devkitppc\\bin\\../lib/gcc/powerpc-eabi/4.6.3/../../../../powerpc-eabi/include/c++/4.6.3/cwchar"
	.file 17 "d:\\devkitpro\\devkitppc\\bin\\../lib/gcc/powerpc-eabi/4.6.3/../../../../powerpc-eabi/include/c++/4.6.3/powerpc-eabi/bits/c++config.h"
	.file 18 "d:\\devkitpro\\devkitppc\\bin\\../lib/gcc/powerpc-eabi/4.6.3/../../../../powerpc-eabi/include/c++/4.6.3/clocale"
	.file 19 "d:\\devkitpro\\devkitppc\\bin\\../lib/gcc/powerpc-eabi/4.6.3/../../../../powerpc-eabi/include/c++/4.6.3/debug/debug.h"
	.file 20 "d:\\devkitpro\\devkitppc\\bin\\../lib/gcc/powerpc-eabi/4.6.3/../../../../powerpc-eabi/include/c++/4.6.3/bits/stl_list.h"
	.file 21 "d:\\devkitpro\\devkitppc\\bin\\../lib/gcc/powerpc-eabi/4.6.3/../../../../powerpc-eabi/include/c++/4.6.3/ext/new_allocator.h"
	.file 22 "d:\\devkitpro\\devkitppc\\bin\\../lib/gcc/powerpc-eabi/4.6.3/../../../../powerpc-eabi/include/c++/4.6.3/bits/cpp_type_traits.h"
	.file 23 "d:\\devkitpro\\devkitppc\\bin\\../lib/gcc/powerpc-eabi/4.6.3/../../../../powerpc-eabi/include/locale.h"
	.file 24 "d:\\devkitpro\\devkitppc\\bin\\../lib/gcc/powerpc-eabi/4.6.3/../../../../powerpc-eabi/include/c++/4.6.3/ext/numeric_traits.h"
	.file 25 "d:/Projects/SaveGameManager/savegame-manager-gx/trunk/source/sigslot.h"