	.file	"WavDecoder.cpp"
	.section	".text"
.Ltext0:
	.section	.text._ZN12SoundDecoder4TellEv,"axG",@progbits,_ZN12SoundDecoder4TellEv,comdat
	.align 2
	.weak	_ZN12SoundDecoder4TellEv
	.type	_ZN12SoundDecoder4TellEv, @function
_ZN12SoundDecoder4TellEv:
.LFB1396:
	.file 1 "d:/Projects/SaveGameManager/savegame-manager-gx/trunk/source/SoundOperations/SoundDecoder.hpp"
	.loc 1 54 0
	.cfi_startproc
.LVL0:
	.loc 1 54 0
	lwz 3,68(3)
.LVL1:
	blr
	.cfi_endproc
.LFE1396:
	.size	_ZN12SoundDecoder4TellEv, .-_ZN12SoundDecoder4TellEv
	.section	.text._ZN12SoundDecoder9GetBufferEv,"axG",@progbits,_ZN12SoundDecoder9GetBufferEv,comdat
	.align 2
	.weak	_ZN12SoundDecoder9GetBufferEv
	.type	_ZN12SoundDecoder9GetBufferEv, @function
_ZN12SoundDecoder9GetBufferEv:
.LFB1401:
	.loc 1 61 0
	.cfi_startproc
.LVL2:
.LBB256:
.LBB257:
.LBB258:
.LBB259:
.LBB260:
	.file 2 "d:/Projects/SaveGameManager/savegame-manager-gx/trunk/source/SoundOperations/WavDecoder.cpp"
	.loc 2 155 0
	lwz 9,16(3)
.LBB261:
.LBB262:
	.file 3 "d:\\devkitpro\\devkitppc\\bin\\../lib/gcc/powerpc-eabi/4.6.3/../../../../powerpc-eabi/include/c++/4.6.3/bits/stl_vector.h"
	.loc 3 571 0
	lwz 11,20(3)
.LBE262:
.LBE261:
.LBE260:
.LBE259:
.LBE258:
	.file 4 "d:/Projects/SaveGameManager/savegame-manager-gx/trunk/source/SoundOperations/BufferCircle.hpp"
	.loc 4 54 0
	lhz 0,8(3)
.LVL3:
.LBB267:
.LBB266:
	li 3,0
.LVL4:
.LBB265:
.LBB264:
.LBB263:
	.loc 3 571 0
	subf 11,9,11
	srawi 11,11,2
.LBE263:
.LBE264:
.LBE265:
	.loc 4 83 0
	cmpw 7,0,11
	bgelr- 7
.LVL5:
.LBE266:
.LBE267:
	.loc 4 54 0
	slwi 0,0,2
.LVL6:
	lwzx 3,9,0
.LBE257:
.LBE256:
	.loc 1 61 0
	blr
	.cfi_endproc
.LFE1401:
	.size	_ZN12SoundDecoder9GetBufferEv, .-_ZN12SoundDecoder9GetBufferEv
	.section	.text._ZN12SoundDecoder13GetNextBufferEv,"axG",@progbits,_ZN12SoundDecoder13GetNextBufferEv,comdat
	.align 2
	.weak	_ZN12SoundDecoder13GetNextBufferEv
	.type	_ZN12SoundDecoder13GetNextBufferEv, @function
_ZN12SoundDecoder13GetNextBufferEv:
.LFB1402:
	.loc 1 62 0
	.cfi_startproc
.LVL7:
.LBB268:
.LBB269:
.LBB270:
	.loc 2 155 0
	lwz 11,16(3)
.LBE270:
.LBE269:
.LBE268:
	.loc 1 62 0
	mr 9,3
.LVL8:
.LBB278:
.LBB277:
.LBB275:
.LBB271:
.LBB272:
	.loc 3 571 0
	lwz 0,20(3)
.LBE272:
.LBE271:
.LBE275:
	.loc 4 58 0
	li 3,0
.LVL9:
.LBB276:
.LBB274:
.LBB273:
	.loc 3 571 0
	subf 0,11,0
.LBE273:
.LBE274:
.LBE276:
	.loc 4 58 0
	srawi. 0,0,2
	blelr- 0
.LVL10:
	lhz 9,8(9)
.LVL11:
	addi 9,9,1
.LVL12:
	divw 10,9,0
	mullw 0,10,0
.LVL13:
	subf 9,0,9
	slwi 9,9,2
	lwzx 3,11,9
.LBE277:
.LBE278:
	.loc 1 62 0
	blr
	.cfi_endproc
.LFE1402:
	.size	_ZN12SoundDecoder13GetNextBufferEv, .-_ZN12SoundDecoder13GetNextBufferEv
	.section	.text._ZN12SoundDecoder13GetLastBufferEv,"axG",@progbits,_ZN12SoundDecoder13GetLastBufferEv,comdat
	.align 2
	.weak	_ZN12SoundDecoder13GetLastBufferEv
	.type	_ZN12SoundDecoder13GetLastBufferEv, @function
_ZN12SoundDecoder13GetLastBufferEv:
.LFB1403:
	.loc 1 63 0
	.cfi_startproc
.LVL14:
.LBB279:
.LBB280:
.LBB281:
	.loc 2 155 0
	lwz 11,16(3)
.LBE281:
.LBE280:
.LBE279:
	.loc 1 63 0
	mr 9,3
.LVL15:
.LBB289:
.LBB288:
.LBB286:
.LBB282:
.LBB283:
	.loc 3 571 0
	lwz 0,20(3)
.LBE283:
.LBE282:
.LBE286:
	.loc 4 60 0
	li 3,0
.LVL16:
.LBB287:
.LBB285:
.LBB284:
	.loc 3 571 0
	subf 0,11,0
.LBE284:
.LBE285:
.LBE287:
	.loc 4 60 0
	srawi. 0,0,2
	blelr- 0
.LVL17:
	lhz 9,8(9)
.LVL18:
	add 9,0,9
.LVL19:
	addi 9,9,-1
	divw 10,9,0
	mullw 0,10,0
	subf 9,0,9
	slwi 9,9,2
	lwzx 3,11,9
.LBE288:
.LBE289:
	.loc 1 63 0
	blr
	.cfi_endproc
.LFE1403:
	.size	_ZN12SoundDecoder13GetLastBufferEv, .-_ZN12SoundDecoder13GetLastBufferEv
	.section	.text._ZN12SoundDecoder17IsNextBufferReadyEv,"axG",@progbits,_ZN12SoundDecoder17IsNextBufferReadyEv,comdat
	.align 2
	.weak	_ZN12SoundDecoder17IsNextBufferReadyEv
	.type	_ZN12SoundDecoder17IsNextBufferReadyEv, @function
_ZN12SoundDecoder17IsNextBufferReadyEv:
.LFB1406:
	.loc 1 66 0
	.cfi_startproc
.LVL20:
.LBB290:
.LBB291:
.LBB292:
.LBB293:
.LBB294:
	.loc 3 571 0
	lwz 11,20(3)
.LBE294:
.LBE293:
.LBE292:
.LBE291:
.LBE290:
	.loc 1 66 0
	mr 9,3
.LVL21:
.LBB316:
.LBB315:
.LBB299:
.LBB297:
.LBB295:
	.loc 3 571 0
	lwz 0,16(3)
.LBE295:
.LBE297:
.LBE299:
	.loc 4 72 0
	li 3,0
.LVL22:
.LBB300:
.LBB298:
.LBB296:
	.loc 3 571 0
	subf 0,0,11
.LBE296:
.LBE298:
.LBE300:
	.loc 4 72 0
	srawi. 0,0,2
	blelr- 0
.LVL23:
	lhz 10,8(9)
.LBB301:
.LBB302:
	.file 5 "d:\\devkitpro\\devkitppc\\bin\\../lib/gcc/powerpc-eabi/4.6.3/../../../../powerpc-eabi/include/c++/4.6.3/bits/stl_bvector.h"
	.loc 5 80 0
	lwz 11,40(9)
.LBE302:
.LBE301:
	.loc 4 72 0
	addi 9,10,1
.LVL24:
	divw 10,9,0
	mullw 0,10,0
	subf 0,0,9
.LVL25:
.LBB306:
.LBB303:
	.loc 5 80 0
	rlwinm 9,0,29,3,29
.LBE303:
.LBE306:
.LBB307:
.LBB308:
	.loc 5 692 0
	rlwinm 0,0,0,27,31
.LVL26:
.LBE308:
.LBE307:
.LBB312:
.LBB304:
	.loc 5 80 0
	lwzx 9,11,9
.LBE304:
.LBE312:
.LBB313:
.LBB311:
.LBB309:
.LBB310:
	.loc 5 200 0
	li 11,1
	slw 0,11,0
.LVL27:
.LBE310:
.LBE309:
.LBE311:
.LBE313:
.LBB314:
.LBB305:
	.loc 5 80 0
	and. 11,0,9
	mfcr 3
	rlwinm 3,3,3,1
	xori 3,3,1
.LBE305:
.LBE314:
.LBE315:
.LBE316:
	.loc 1 66 0
	blr
	.cfi_endproc
.LFE1406:
	.size	_ZN12SoundDecoder17IsNextBufferReadyEv, .-_ZN12SoundDecoder17IsNextBufferReadyEv
	.section	.text._ZN12SoundDecoder17IsLastBufferReadyEv,"axG",@progbits,_ZN12SoundDecoder17IsLastBufferReadyEv,comdat
	.align 2
	.weak	_ZN12SoundDecoder17IsLastBufferReadyEv
	.type	_ZN12SoundDecoder17IsLastBufferReadyEv, @function
_ZN12SoundDecoder17IsLastBufferReadyEv:
.LFB1407:
	.loc 1 67 0
	.cfi_startproc
.LVL28:
.LBB317:
.LBB318:
.LBB319:
.LBB320:
.LBB321:
	.loc 3 571 0
	lwz 11,20(3)
.LBE321:
.LBE320:
.LBE319:
.LBE318:
.LBE317:
	.loc 1 67 0
	mr 9,3
.LVL29:
.LBB343:
.LBB342:
.LBB326:
.LBB324:
.LBB322:
	.loc 3 571 0
	lwz 0,16(3)
.LBE322:
.LBE324:
.LBE326:
	.loc 4 74 0
	li 3,0
.LVL30:
.LBB327:
.LBB325:
.LBB323:
	.loc 3 571 0
	subf 0,0,11
.LBE323:
.LBE325:
.LBE327:
	.loc 4 74 0
	srawi. 0,0,2
	blelr- 0
.LVL31:
	lhz 10,8(9)
.LBB328:
.LBB329:
	.loc 5 80 0
	lwz 11,40(9)
.LBE329:
.LBE328:
	.loc 4 74 0
	add 9,0,10
.LVL32:
	addi 9,9,-1
	divw 10,9,0
	mullw 0,10,0
	subf 0,0,9
.LVL33:
.LBB333:
.LBB330:
	.loc 5 80 0
	rlwinm 9,0,29,3,29
.LBE330:
.LBE333:
.LBB334:
.LBB335:
	.loc 5 692 0
	rlwinm 0,0,0,27,31
.LVL34:
.LBE335:
.LBE334:
.LBB339:
.LBB331:
	.loc 5 80 0
	lwzx 9,11,9
.LBE331:
.LBE339:
.LBB340:
.LBB338:
.LBB336:
.LBB337:
	.loc 5 200 0
	li 11,1
	slw 0,11,0
.LVL35:
.LBE337:
.LBE336:
.LBE338:
.LBE340:
.LBB341:
.LBB332:
	.loc 5 80 0
	and. 11,0,9
	mfcr 3
	rlwinm 3,3,3,1
	xori 3,3,1
.LBE332:
.LBE341:
.LBE342:
.LBE343:
	.loc 1 67 0
	blr
	.cfi_endproc
.LFE1407:
	.size	_ZN12SoundDecoder17IsLastBufferReadyEv, .-_ZN12SoundDecoder17IsLastBufferReadyEv
	.section	.text._ZN12SoundDecoder5IsEOFEv,"axG",@progbits,_ZN12SoundDecoder5IsEOFEv,comdat
	.align 2
	.weak	_ZN12SoundDecoder5IsEOFEv
	.type	_ZN12SoundDecoder5IsEOFEv, @function
_ZN12SoundDecoder5IsEOFEv:
.LFB1408:
	.loc 1 68 0
	.cfi_startproc
.LVL36:
	.loc 1 68 0
	lbz 3,73(3)
.LVL37:
	blr
	.cfi_endproc
.LFE1408:
	.size	_ZN12SoundDecoder5IsEOFEv, .-_ZN12SoundDecoder5IsEOFEv
	.section	.text._ZN12SoundDecoder7SetLoopEb,"axG",@progbits,_ZN12SoundDecoder7SetLoopEb,comdat
	.align 2
	.weak	_ZN12SoundDecoder7SetLoopEb
	.type	_ZN12SoundDecoder7SetLoopEb, @function
_ZN12SoundDecoder7SetLoopEb:
.LFB1409:
	.loc 1 69 0
	.cfi_startproc
.LVL38:
	.loc 1 69 0
	stb 4,72(3)
	blr
	.cfi_endproc
.LFE1409:
	.size	_ZN12SoundDecoder7SetLoopEb, .-_ZN12SoundDecoder7SetLoopEb
	.section	.text._ZN12SoundDecoder12GetSoundTypeEv,"axG",@progbits,_ZN12SoundDecoder12GetSoundTypeEv,comdat
	.align 2
	.weak	_ZN12SoundDecoder12GetSoundTypeEv
	.type	_ZN12SoundDecoder12GetSoundTypeEv, @function
_ZN12SoundDecoder12GetSoundTypeEv:
.LFB1410:
	.loc 1 70 0
	.cfi_startproc
.LVL39:
	.loc 1 70 0
	lbz 3,60(3)
.LVL40:
	blr
	.cfi_endproc
.LFE1410:
	.size	_ZN12SoundDecoder12GetSoundTypeEv, .-_ZN12SoundDecoder12GetSoundTypeEv
	.section	.text._ZN10WavDecoder9GetFormatEv,"axG",@progbits,_ZN10WavDecoder9GetFormatEv,comdat
	.align 2
	.weak	_ZN10WavDecoder9GetFormatEv
	.type	_ZN10WavDecoder9GetFormatEv, @function
_ZN10WavDecoder9GetFormatEv:
.LFB1414:
	.file 6 "d:/Projects/SaveGameManager/savegame-manager-gx/trunk/source/SoundOperations/WavDecoder.hpp"
	.loc 6 62 0
	.cfi_startproc
.LVL41:
	.loc 6 62 0
	lbz 3,88(3)
.LVL42:
	blr
	.cfi_endproc
.LFE1414:
	.size	_ZN10WavDecoder9GetFormatEv, .-_ZN10WavDecoder9GetFormatEv
	.section	.text._ZN10WavDecoder13GetSampleRateEv,"axG",@progbits,_ZN10WavDecoder13GetSampleRateEv,comdat
	.align 2
	.weak	_ZN10WavDecoder13GetSampleRateEv
	.type	_ZN10WavDecoder13GetSampleRateEv, @function
_ZN10WavDecoder13GetSampleRateEv:
.LFB1415:
	.loc 6 63 0
	.cfi_startproc
.LVL43:
	.loc 6 63 0
	lwz 3,84(3)
.LVL44:
	blr
	.cfi_endproc
.LFE1415:
	.size	_ZN10WavDecoder13GetSampleRateEv, .-_ZN10WavDecoder13GetSampleRateEv
	.section	.text._ZN12SoundDecoder4SeekEi,"axG",@progbits,_ZN12SoundDecoder4SeekEi,comdat
	.align 2
	.weak	_ZN12SoundDecoder4SeekEi
	.type	_ZN12SoundDecoder4SeekEi, @function
_ZN12SoundDecoder4SeekEi:
.LFB1397:
	.loc 1 55 0
	.cfi_startproc
.LVL45:
	mflr 0
	stwu 1,-8(1)
.LCFI0:
	.cfi_def_cfa_offset 8
	.cfi_register 65, 0
	li 5,0
	stw 0,12(1)
	.loc 1 55 0
	stw 4,68(3)
	lwz 3,4(3)
.LVL46:
	.cfi_offset 65, 4
	bl _ZN5CFile4seekEli
.LVL47:
	lwz 0,12(1)
	addi 1,1,8
.LCFI1:
	.cfi_def_cfa_offset 0
	mtlr 0
	blr
	.cfi_endproc
.LFE1397:
	.size	_ZN12SoundDecoder4SeekEi, .-_ZN12SoundDecoder4SeekEi
	.section	".text"
	.align 2
	.globl _ZN10WavDecoderD2Ev
	.type	_ZN10WavDecoderD2Ev, @function
_ZN10WavDecoderD2Ev:
.LFB1423:
	.loc 2 56 0
	.cfi_startproc
.LVL48:
	mflr 0
	stwu 1,-8(1)
.LCFI2:
	.cfi_def_cfa_offset 8
	.cfi_register 65, 0
.LBB345:
	lis 9,_ZTV10WavDecoder+8@ha
.LBE345:
	stw 0,12(1)
.LBB346:
	.loc 2 56 0
	la 0,_ZTV10WavDecoder+8@l(9)
	.cfi_offset 65, 4
	stw 0,0(3)
	bl _ZN12SoundDecoderD2Ev
.LVL49:
.LBE346:
	.loc 2 58 0
	lwz 0,12(1)
	addi 1,1,8
.LCFI3:
	.cfi_def_cfa_offset 0
	mtlr 0
	blr
	.cfi_endproc
.LFE1423:
	.size	_ZN10WavDecoderD2Ev, .-_ZN10WavDecoderD2Ev
	.section	.text._ZN12SoundDecoder11ClearBufferEv,"axG",@progbits,_ZN12SoundDecoder11ClearBufferEv,comdat
	.align 2
	.weak	_ZN12SoundDecoder11ClearBufferEv
	.type	_ZN12SoundDecoder11ClearBufferEv, @function
_ZN12SoundDecoder11ClearBufferEv:
.LFB1411:
	.loc 1 71 0
	.cfi_startproc
.LVL50:
	mflr 0
	stwu 1,-8(1)
.LCFI4:
	.cfi_def_cfa_offset 8
	.cfi_register 65, 0
	addi 3,3,8
.LVL51:
	stw 0,12(1)
	.loc 1 71 0
	.cfi_offset 65, 4
	bl _ZN12BufferCircle11ClearBufferEv
.LVL52:
	lwz 0,12(1)
	addi 1,1,8
.LCFI5:
	.cfi_def_cfa_offset 0
	mtlr 0
	blr
	.cfi_endproc
.LFE1411:
	.size	_ZN12SoundDecoder11ClearBufferEv, .-_ZN12SoundDecoder11ClearBufferEv
	.section	.text._ZN12SoundDecoder8LoadNextEv,"axG",@progbits,_ZN12SoundDecoder8LoadNextEv,comdat
	.align 2
	.weak	_ZN12SoundDecoder8LoadNextEv
	.type	_ZN12SoundDecoder8LoadNextEv, @function
_ZN12SoundDecoder8LoadNextEv:
.LFB1404:
	.loc 1 64 0
	.cfi_startproc
.LVL53:
	mflr 0
	stwu 1,-8(1)
.LCFI6:
	.cfi_def_cfa_offset 8
	.cfi_register 65, 0
	addi 3,3,8
.LVL54:
	stw 0,12(1)
	.loc 1 64 0
	.cfi_offset 65, 4
	bl _ZN12BufferCircle8LoadNextEv
.LVL55:
	lwz 0,12(1)
	addi 1,1,8
.LCFI7:
	.cfi_def_cfa_offset 0
	mtlr 0
	blr
	.cfi_endproc
.LFE1404:
	.size	_ZN12SoundDecoder8LoadNextEv, .-_ZN12SoundDecoder8LoadNextEv
	.section	.text._ZN12SoundDecoder8IsStereoEv,"axG",@progbits,_ZN12SoundDecoder8IsStereoEv,comdat
	.align 2
	.weak	_ZN12SoundDecoder8IsStereoEv
	.type	_ZN12SoundDecoder8IsStereoEv, @function
_ZN12SoundDecoder8IsStereoEv:
.LFB1412:
	.loc 1 72 0
	.cfi_startproc
.LVL56:
	mflr 0
	stwu 1,-16(1)
.LCFI8:
	.cfi_def_cfa_offset 16
	.cfi_register 65, 0
	stw 31,12(1)
	mr 31,3
	.cfi_offset 31, -4
	stw 0,20(1)
	.loc 1 72 0
	lwz 9,0(3)
	lwz 0,24(9)
	.cfi_offset 65, 4
	mtctr 0
	bctrl
.LVL57:
	cmpwi 7,3,3
	li 3,1
	beq- 7,.L29
.LVL58:
.LBB349:
.LBB350:
	lwz 9,0(31)
	mr 3,31
	lwz 0,24(9)
	mtctr 0
	bctrl
	xori 3,3,2
	cntlzw 3,3
	srwi 3,3,5
.LVL59:
.L29:
.LBE350:
.LBE349:
	.loc 1 72 0 is_stmt 0 discriminator 4
	lwz 0,20(1)
	lwz 31,12(1)
.LVL60:
	mtlr 0
	addi 1,1,16
.LCFI9:
	.cfi_def_cfa_offset 0
	.cfi_restore 31
	blr
	.cfi_endproc
.LFE1412:
	.size	_ZN12SoundDecoder8IsStereoEv, .-_ZN12SoundDecoder8IsStereoEv
	.section	.text._ZN12SoundDecoder7Is16BitEv,"axG",@progbits,_ZN12SoundDecoder7Is16BitEv,comdat
	.align 2
	.weak	_ZN12SoundDecoder7Is16BitEv
	.type	_ZN12SoundDecoder7Is16BitEv, @function
_ZN12SoundDecoder7Is16BitEv:
.LFB1413:
	.loc 1 73 0 is_stmt 1
	.cfi_startproc
.LVL61:
	mflr 0
	stwu 1,-16(1)
.LCFI10:
	.cfi_def_cfa_offset 16
	.cfi_register 65, 0
	stw 31,12(1)
	mr 31,3
	.cfi_offset 31, -4
	stw 0,20(1)
	.loc 1 73 0
	lwz 9,0(3)
	lwz 0,24(9)
	.cfi_offset 65, 4
	mtctr 0
	bctrl
.LVL62:
	cmpwi 7,3,3
	li 3,1
	beq- 7,.L32
.LVL63:
.LBB353:
.LBB354:
	lwz 9,0(31)
	mr 3,31
	lwz 0,24(9)
	mtctr 0
	bctrl
	xori 3,3,1
	cntlzw 3,3
	srwi 3,3,5
.LVL64:
.L32:
.LBE354:
.LBE353:
	.loc 1 73 0 is_stmt 0 discriminator 4
	lwz 0,20(1)
	lwz 31,12(1)
.LVL65:
	mtlr 0
	addi 1,1,16
.LCFI11:
	.cfi_def_cfa_offset 0
	.cfi_restore 31
	blr
	.cfi_endproc
.LFE1413:
	.size	_ZN12SoundDecoder7Is16BitEv, .-_ZN12SoundDecoder7Is16BitEv
	.section	".text"
	.align 2
	.globl _ZN10WavDecoder4ReadEPhii
	.type	_ZN10WavDecoder4ReadEPhii, @function
_ZN10WavDecoder4ReadEPhii:
.LFB1428:
	.loc 2 129 0 is_stmt 1
	.cfi_startproc
.LVL66:
	mflr 0
	stwu 1,-24(1)
.LCFI12:
	.cfi_def_cfa_offset 24
	.cfi_register 65, 0
	stw 29,12(1)
	mr 29,4
	.cfi_offset 29, -12
	stw 0,28(1)
	stw 30,16(1)
	mr 30,5
	.cfi_offset 30, -8
	.cfi_offset 65, 4
.LBB364:
	.loc 2 130 0
	lwz 0,4(3)
.LBE364:
	.loc 2 129 0
	stw 31,20(1)
	.loc 2 129 0
	mr 31,3
	.cfi_offset 31, -4
.LBB365:
	.loc 2 130 0
	cmpwi 7,0,0
	.loc 2 131 0
	li 3,-1
.LVL67:
	.loc 2 130 0
	beq- 7,.L35
	.loc 2 133 0
	lwz 9,68(31)
	.loc 2 134 0
	li 3,0
	.loc 2 133 0
	lwz 11,80(31)
	cmpw 7,9,11
	blt- 7,.L43
.LVL68:
.L35:
.LBE365:
	.loc 2 155 0
	lwz 0,28(1)
	lwz 29,12(1)
.LVL69:
	mtlr 0
	lwz 30,16(1)
	lwz 31,20(1)
.LVL70:
	addi 1,1,24
	.cfi_remember_state
.LCFI13:
	.cfi_def_cfa_offset 0
	.cfi_restore 31
	.cfi_restore 30
	.cfi_restore 29
	blr
.LVL71:
.L43:
.LCFI14:
	.cfi_restore_state
.LBB366:
.LBB367:
.LBB368:
	.loc 2 136 0
	lwz 4,76(31)
.LVL72:
	mr 3,0
	li 5,0
.LVL73:
	add 4,9,4
	bl _ZN5CFile4seekEli
.LVL74:
	.loc 2 138 0
	lwz 9,80(31)
	lwz 0,68(31)
	subf 0,0,9
	cmpw 7,30,0
	bgt- 7,.L44
.LVL75:
.L36:
	.loc 2 141 0
	lwz 3,4(31)
	mr 4,29
	mr 5,30
	bl _ZN5CFile4readEPhj
.LVL76:
.LBB369:
	.loc 2 142 0
	cmpwi 0,3,0
	ble- 0,.L35
.LBB370:
.LBB371:
	.loc 2 144 0
	lbz 0,89(31)
	cmpwi 7,0,0
	beq- 7,.L38
.LBB372:
	.loc 2 146 0
	rlwinm 3,3,0,0,30
.LVL77:
.LBB373:
	.loc 2 148 0
	srwi. 0,3,1
	beq- 0,.L38
.LBE373:
.LBE372:
.LBE371:
.LBE370:
.LBE369:
.LBE368:
.LBE367:
.LBE366:
	mtctr 0
.LBB391:
.LBB387:
.LBB383:
.LBB380:
.LBB377:
.LBB376:
.LBB375:
.LBB374:
	.loc 2 128 0
	addi 29,29,-2
.LVL78:
.L39:
	.loc 2 149 0
	lhzu 0,2(29)
	slwi 9,0,8
	srwi 0,0,8
	or 0,9,0
	sth 0,0(29)
	.loc 2 148 0
	bdnz .L39
.L38:
.LBE374:
.LBE375:
.LBE376:
	.loc 2 151 0
	lwz 0,68(31)
.LBE377:
.LBE380:
.LBE383:
.LBE387:
.LBE391:
	.loc 2 155 0
	lwz 29,12(1)
.LBB392:
.LBB388:
.LBB384:
.LBB381:
.LBB378:
	.loc 2 151 0
	add 0,0,3
.LBE378:
.LBE381:
.LBE384:
.LBE388:
.LBE392:
	.loc 2 155 0
	lwz 30,16(1)
.LVL79:
.LBB393:
.LBB389:
.LBB385:
.LBB382:
.LBB379:
	.loc 2 151 0
	stw 0,68(31)
.LBE379:
.LBE382:
.LBE385:
.LBE389:
.LBE393:
	.loc 2 155 0
	lwz 0,28(1)
	lwz 31,20(1)
.LVL80:
	mtlr 0
	addi 1,1,24
	.cfi_remember_state
	.cfi_restore 29
	.cfi_restore 30
	.cfi_restore 31
.LCFI15:
	.cfi_def_cfa_offset 0
	blr
.LVL81:
.L44:
.LCFI16:
	.cfi_restore_state
.LBB394:
.LBB390:
.LBB386:
	.loc 2 139 0
	mr 30,0
.LVL82:
	b .L36
.LBE386:
.LBE390:
.LBE394:
	.cfi_endproc
.LFE1428:
	.size	_ZN10WavDecoder4ReadEPhii, .-_ZN10WavDecoder4ReadEPhii
	.section	.text._ZN12SoundDecoder13GetBufferSizeEv,"axG",@progbits,_ZN12SoundDecoder13GetBufferSizeEv,comdat
	.align 2
	.weak	_ZN12SoundDecoder13GetBufferSizeEv
	.type	_ZN12SoundDecoder13GetBufferSizeEv, @function
_ZN12SoundDecoder13GetBufferSizeEv:
.LFB1400:
	.loc 1 60 0
	.cfi_startproc
.LVL83:
.LBB415:
.LBB416:
.LBB417:
.LBB418:
.LBB419:
.LBB420:
.LBB421:
	.loc 3 571 0
	lwz 10,20(3)
.LBE421:
.LBE420:
.LBE419:
.LBE418:
.LBE417:
.LBE416:
.LBE415:
	.loc 1 60 0
	mr 9,3
.LVL84:
.LBB433:
.LBB432:
.LBB430:
.LBB428:
.LBB426:
.LBB424:
.LBB422:
	.loc 3 571 0
	lwz 11,16(3)
.LBE422:
.LBE424:
.LBE426:
.LBE428:
.LBE430:
	.loc 4 62 0
	lhz 0,8(3)
.LVL85:
.LBB431:
.LBB429:
	li 3,0
.LVL86:
.LBB427:
.LBB425:
.LBB423:
	.loc 3 571 0
	subf 11,11,10
	srawi 11,11,2
.LBE423:
.LBE425:
.LBE427:
	.loc 4 83 0
	cmpw 7,0,11
	bgelr- 7
.LVL87:
.LBE429:
.LBE431:
.LBE432:
.LBE433:
.LBB434:
.LBB435:
.LBB436:
	.loc 4 62 0
	lwz 9,28(9)
.LVL88:
	slwi 0,0,2
.LVL89:
	lwzx 3,9,0
.LBE436:
.LBE435:
.LBE434:
	.loc 1 60 0
	blr
	.cfi_endproc
.LFE1400:
	.size	_ZN12SoundDecoder13GetBufferSizeEv, .-_ZN12SoundDecoder13GetBufferSizeEv
	.section	.text._ZN12SoundDecoder13IsBufferReadyEv,"axG",@progbits,_ZN12SoundDecoder13IsBufferReadyEv,comdat
	.align 2
	.weak	_ZN12SoundDecoder13IsBufferReadyEv
	.type	_ZN12SoundDecoder13IsBufferReadyEv, @function
_ZN12SoundDecoder13IsBufferReadyEv:
.LFB1405:
	.loc 1 65 0
	.cfi_startproc
.LVL90:
.LBB461:
.LBB462:
.LBB463:
.LBB464:
.LBB465:
.LBB466:
.LBB467:
	.loc 3 571 0
	lwz 10,20(3)
.LBE467:
.LBE466:
.LBE465:
.LBE464:
.LBE463:
.LBE462:
.LBE461:
	.loc 1 65 0
	mr 9,3
.LVL91:
.LBB479:
.LBB478:
.LBB476:
.LBB474:
.LBB472:
.LBB470:
.LBB468:
	.loc 3 571 0
	lwz 11,16(3)
.LBE468:
.LBE470:
.LBE472:
.LBE474:
.LBE476:
	.loc 4 68 0
	lhz 0,8(3)
.LVL92:
.LBB477:
.LBB475:
	li 3,0
.LVL93:
.LBB473:
.LBB471:
.LBB469:
	.loc 3 571 0
	subf 11,11,10
	srawi 11,11,2
.LBE469:
.LBE471:
.LBE473:
	.loc 4 83 0
	cmpw 7,0,11
	bgelr- 7
.LVL94:
.LBE475:
.LBE477:
.LBE478:
.LBE479:
.LBB480:
.LBB481:
.LBB482:
.LBB483:
.LBB484:
	.loc 5 80 0
	lwz 11,40(9)
	rlwinm 9,0,29,19,29
.LVL95:
.LBE484:
.LBE483:
.LBB487:
.LBB488:
	.loc 5 692 0
	rlwinm 0,0,0,27,31
.LVL96:
.LBE488:
.LBE487:
.LBB492:
.LBB485:
	.loc 5 80 0
	lwzx 9,11,9
.LBE485:
.LBE492:
.LBB493:
.LBB491:
.LBB489:
.LBB490:
	.loc 5 200 0
	li 11,1
	slw 0,11,0
.LVL97:
.LBE490:
.LBE489:
.LBE491:
.LBE493:
.LBB494:
.LBB486:
	.loc 5 80 0
	and. 11,0,9
	mfcr 3
	rlwinm 3,3,3,1
	xori 3,3,1
.LBE486:
.LBE494:
.LBE482:
.LBE481:
.LBE480:
	.loc 1 65 0
	blr
	.cfi_endproc
.LFE1405:
	.size	_ZN12SoundDecoder13IsBufferReadyEv, .-_ZN12SoundDecoder13IsBufferReadyEv
	.section	".text"
	.align 2
	.globl _ZN10WavDecoderD0Ev
	.type	_ZN10WavDecoderD0Ev, @function
_ZN10WavDecoderD0Ev:
.LFB1425:
	.loc 2 56 0
	.cfi_startproc
.LVL98:
	mflr 0
	stwu 1,-16(1)
.LCFI17:
	.cfi_def_cfa_offset 16
	.cfi_register 65, 0
.LBB498:
.LBB499:
.LBB500:
	lis 9,_ZTV10WavDecoder+8@ha
.LBE500:
.LBE499:
.LBE498:
	stw 31,12(1)
	mr 31,3
	.cfi_offset 31, -4
.LVL99:
	stw 0,20(1)
.LBB503:
.LBB502:
.LBB501:
	.loc 2 56 0
	la 0,_ZTV10WavDecoder+8@l(9)
	.cfi_offset 65, 4
	stw 0,0(3)
	bl _ZN12SoundDecoderD2Ev
.LVL100:
.LBE501:
.LBE502:
.LBE503:
	.loc 2 58 0
	mr 3,31
	bl _ZdlPv
	lwz 0,20(1)
	lwz 31,12(1)
.LVL101:
	mtlr 0
	addi 1,1,16
.LCFI18:
	.cfi_def_cfa_offset 0
	.cfi_restore 31
	blr
	.cfi_endproc
.LFE1425:
	.size	_ZN10WavDecoderD0Ev, .-_ZN10WavDecoderD0Ev
	.align 2
	.globl _ZN10WavDecoder8OpenFileEv
	.type	_ZN10WavDecoder8OpenFileEv, @function
_ZN10WavDecoder8OpenFileEv:
.LFB1426:
	.loc 2 61 0
	.cfi_startproc
.LVL102:
	mflr 0
	stwu 1,-64(1)
.LCFI19:
	.cfi_def_cfa_offset 64
	.cfi_register 65, 0
.LBB514:
	.loc 2 67 0
	li 5,12
.LBE514:
	.loc 2 61 0
	stw 31,60(1)
	mr 31,3
	.cfi_offset 31, -4
	stw 0,68(1)
.LBB520:
	.loc 2 67 0
	addi 4,1,16
	.loc 2 64 0
	li 0,0
	.cfi_offset 65, 4
.LBE520:
	.loc 2 61 0
	stw 30,56(1)
.LBB521:
	.loc 2 67 0
	lwz 3,4(3)
.LVL103:
	.loc 2 64 0
	stw 0,16(1)
	stw 0,20(1)
	stw 0,24(1)
	.loc 2 65 0
	stw 0,28(1)
	stw 0,32(1)
	stw 0,36(1)
	stw 0,40(1)
	stw 0,44(1)
	stw 0,48(1)
	.loc 2 67 0
	.cfi_offset 30, -8
	bl _ZN5CFile4readEPhj
	.loc 2 68 0
	lwz 3,4(31)
	addi 4,1,28
	li 5,24
	bl _ZN5CFile4readEPhj
	.loc 2 70 0
	lwz 9,16(1)
	xoris 0,9,0x5249
	cmpwi 7,0,17990
	bne 7,.L75
	.loc 2 75 0
	lwz 9,24(1)
	xoris 0,9,0x5741
	cmpwi 7,0,22085
	bne 7,.L75
	.loc 2 80 0
	lwz 9,28(1)
	xoris 0,9,0x666d
	cmpwi 7,0,29728
	beq 7,.L60
.L75:
.LVL104:
.LBB515:
.LBB516:
.LBB517:
	.loc 2 122 0
	lwz 30,4(31)
	cmpwi 7,30,0
	beq- 7,.L63
	.loc 2 123 0
	mr 3,30
	bl _ZN5CFileD1Ev
	mr 3,30
	bl _ZdlPv
.L63:
	.loc 2 125 0
	li 0,0
	stw 0,4(31)
.LVL105:
.L54:
.LBE517:
.LBE516:
.LBE515:
.LBE521:
	.loc 2 118 0
	lwz 0,68(1)
	lwz 30,56(1)
	mtlr 0
	lwz 31,60(1)
.LVL106:
	addi 1,1,64
	.cfi_remember_state
.LCFI20:
	.cfi_def_cfa_offset 0
	.cfi_restore 31
	.cfi_restore 30
	blr
.LVL107:
.L60:
.LCFI21:
	.cfi_restore_state
.LBB522:
	.loc 2 86 0
	lwz 0,32(1)
	.loc 2 87 0
	li 5,0
	lwz 3,4(31)
	.loc 2 86 0
	rlwinm 11,0,24,24,31
	rlwinm 9,0,8,16,23
	or 9,11,9
	rlwinm 4,0,24,16,23
	srwi 0,0,24
	slwi 9,9,16
	or 4,4,0
	or 4,4,9
	addi 4,4,20
	stw 4,76(31)
	.loc 2 87 0
	bl _ZN5CFile4seekEli
	.loc 2 89 0
	lwz 3,4(31)
	addi 4,1,8
	li 5,8
	bl _ZN5CFile4readEPhj
	.loc 2 91 0
	b .L62
.L64:
.LBB518:
	.loc 2 93 0
	lwz 0,12(1)
	lwz 9,76(31)
	rlwinm 10,0,24,24,31
	rlwinm 11,0,8,16,23
	or 11,10,11
	rlwinm 4,0,24,16,23
	srwi 0,0,24
	slwi 11,11,16
	or 4,4,0
	addi 9,9,8
	or 4,4,11
	.loc 2 94 0
	lwz 3,4(31)
	.loc 2 93 0
	add 4,9,4
	stw 4,76(31)
	.loc 2 94 0
	bl _ZN5CFile4seekEli
	.loc 2 95 0
	lwz 3,4(31)
	addi 4,1,8
	li 5,8
	bl _ZN5CFile4readEPhj
.LVL108:
	.loc 2 96 0
	cmpwi 7,3,0
	ble- 7,.L75
.LVL109:
.L62:
.LBE518:
	.loc 2 91 0 discriminator 1
	lwz 9,8(1)
.LBB519:
	.loc 2 94 0 discriminator 1
	li 5,0
.LBE519:
	.loc 2 91 0 discriminator 1
	xoris 0,9,0x6461
	cmpwi 7,0,29793
	bne 7,.L64
	.loc 2 108 0
	lhz 0,38(1)
	.loc 2 105 0
	lhz 10,50(1)
	.loc 2 104 0
	lwz 11,12(1)
	.loc 2 108 0
	rlwinm 8,0,8,16,23
	.loc 2 106 0
	lwz 9,40(1)
	.loc 2 108 0
	srwi 0,0,8
	.loc 2 105 0
	rlwinm 7,10,8,16,23
	.loc 2 108 0
	or 8,8,0
	.loc 2 105 0
	srwi 10,10,8
	.loc 2 104 0
	rlwinm 4,11,24,24,31
	.loc 2 105 0
	or 10,7,10
	.loc 2 104 0
	rlwinm 5,11,8,16,23
	.loc 2 106 0
	rlwinm 30,9,24,24,31
	rlwinm 6,9,8,16,23
	.loc 2 108 0
	cmpwi 7,8,1
	.loc 2 103 0
	lwz 7,76(31)
	.loc 2 104 0
	rlwinm 3,11,24,16,23
	or 5,4,5
	.loc 2 105 0
	xori 0,10,16
	.loc 2 106 0
	rlwinm 4,9,24,16,23
	.loc 2 104 0
	srwi 11,11,24
	.loc 2 106 0
	srwi 9,9,24
	or 6,30,6
	.loc 2 105 0
	cntlzw 0,0
	.loc 2 104 0
	or 11,3,11
	slwi 5,5,16
	.loc 2 106 0
	or 9,4,9
	slwi 6,6,16
	.loc 2 105 0
	srwi 0,0,5
	.loc 2 103 0
	addi 7,7,8
	.loc 2 104 0
	or 11,11,5
	.loc 2 106 0
	or 9,9,6
	.loc 2 103 0
	stw 7,76(31)
	.loc 2 104 0
	stw 11,80(31)
	.loc 2 105 0
	stb 0,89(31)
	.loc 2 106 0
	stw 9,84(31)
	.loc 2 108 0
	beq- 7,.L78
	.loc 2 112 0
	cmpwi 7,8,2
	beq- 7,.L79
.L67:
	.loc 2 117 0
	lwz 9,0(31)
	mr 3,31
	lwz 0,32(9)
	mtctr 0
	bctrl
	b .L54
.L79:
	.loc 2 112 0 discriminator 1
	cmpwi 7,10,8
	beq- 7,.L73
	.loc 2 114 0 discriminator 1
	cmpwi 7,0,0
	beq+ 7,.L67
	.loc 2 114 0 is_stmt 0 discriminator 2
	lhz 0,48(1)
	rlwinm 9,0,8,16,23
	srwi 0,0,8
	or 0,9,0
	cmpwi 7,0,4
	bgt- 7,.L67
	.loc 2 115 0 is_stmt 1
	li 0,3
	stb 0,88(31)
	b .L67
.L78:
	.loc 2 108 0 discriminator 1
	cmpwi 7,10,8
	beq- 7,.L80
	.loc 2 110 0 discriminator 1
	cmpwi 7,0,0
	beq+ 7,.L67
.L73:
	.loc 2 112 0 discriminator 2
	lhz 0,48(1)
	rlwinm 9,0,8,16,23
	srwi 0,0,8
	or 0,9,0
	cmpwi 7,0,2
	bgt- 7,.L67
	.loc 2 113 0
	stb 8,88(31)
	b .L67
.L80:
	.loc 2 108 0 discriminator 2
	lhz 0,48(1)
	rlwinm 9,0,8,16,23
	srwi 0,0,8
	or 0,9,0
	cmpwi 7,0,1
	bgt+ 7,.L67
	.loc 2 109 0
	li 0,0
	stb 0,88(31)
	b .L67
.LBE522:
	.cfi_endproc
.LFE1426:
	.size	_ZN10WavDecoder8OpenFileEv, .-_ZN10WavDecoder8OpenFileEv
	.align 2
	.globl _ZN10WavDecoderC2EPKhi
	.type	_ZN10WavDecoderC2EPKhi, @function
_ZN10WavDecoderC2EPKhi:
.LFB1420:
	.loc 2 43 0
	.cfi_startproc
	.cfi_personality 0,__gxx_personality_v0
	.cfi_lsda 0,.LLSDA1420
.LVL110:
	stwu 1,-16(1)
.LCFI22:
	.cfi_def_cfa_offset 16
	mflr 0
	stw 31,12(1)
	mr 31,3
	.cfi_offset 31, -4
	.cfi_register 65, 0
	stw 0,20(1)
	stw 30,8(1)
.LEHB0:
.LBB523:
	.loc 2 44 0
	.cfi_offset 30, -8
	.cfi_offset 65, 4
	bl _ZN12SoundDecoderC2EPKhi
.LEHE0:
.LVL111:
	.loc 2 50 0
	lwz 0,4(31)
	.loc 2 44 0
	lis 9,_ZTV10WavDecoder+8@ha
	la 9,_ZTV10WavDecoder+8@l(9)
	.loc 2 50 0
	cmpwi 7,0,0
	.loc 2 44 0
	stw 9,0(31)
	.loc 2 47 0
	li 9,0
	.loc 2 46 0
	li 0,3
	.loc 2 47 0
	ori 9,9,48000
	.loc 2 46 0
	stb 0,60(31)
	.loc 2 47 0
	stw 9,84(31)
	.loc 2 48 0
	stb 0,88(31)
	.loc 2 50 0
	beq- 7,.L81
	.loc 2 53 0
	mr 3,31
.LEHB1:
	bl _ZN10WavDecoder8OpenFileEv
.LEHE1:
.L81:
.LBE523:
	.loc 2 54 0
	lwz 0,20(1)
	lwz 30,8(1)
	mtlr 0
	lwz 31,12(1)
.LVL112:
	addi 1,1,16
	.cfi_remember_state
.LCFI23:
	.cfi_def_cfa_offset 0
	.cfi_restore 31
	.cfi_restore 30
	blr
.LVL113:
.L84:
.LCFI24:
	.cfi_restore_state
	mr 30,3
.LBB524:
	.loc 2 44 0
	mr 3,31
	bl _ZN12SoundDecoderD2Ev
	mr 3,30
.LEHB2:
	bl _Unwind_Resume
.LEHE2:
.LBE524:
	.cfi_endproc
.LFE1420:
	.globl __gxx_personality_v0
	.section	.gcc_except_table,"a",@progbits
.LLSDA1420:
	.byte	0xff
	.byte	0xff
	.byte	0x1
	.uleb128 .LLSDACSE1420-.LLSDACSB1420
.LLSDACSB1420:
	.uleb128 .LEHB0-.LFB1420
	.uleb128 .LEHE0-.LEHB0
	.uleb128 0
	.uleb128 0
	.uleb128 .LEHB1-.LFB1420
	.uleb128 .LEHE1-.LEHB1
	.uleb128 .L84-.LFB1420
	.uleb128 0
	.uleb128 .LEHB2-.LFB1420
	.uleb128 .LEHE2-.LEHB2
	.uleb128 0
	.uleb128 0
.LLSDACSE1420:
	.section	".text"
	.size	_ZN10WavDecoderC2EPKhi, .-_ZN10WavDecoderC2EPKhi
	.align 2
	.globl _ZN10WavDecoderC2EPKc
	.type	_ZN10WavDecoderC2EPKc, @function
_ZN10WavDecoderC2EPKc:
.LFB1417:
	.loc 2 30 0
	.cfi_startproc
	.cfi_personality 0,__gxx_personality_v0
	.cfi_lsda 0,.LLSDA1417
.LVL114:
	stwu 1,-16(1)
.LCFI25:
	.cfi_def_cfa_offset 16
	mflr 0
	stw 31,12(1)
	mr 31,3
	.cfi_offset 31, -4
	.cfi_register 65, 0
	stw 0,20(1)
	stw 30,8(1)
.LEHB3:
.LBB525:
	.loc 2 31 0
	.cfi_offset 30, -8
	.cfi_offset 65, 4
	bl _ZN12SoundDecoderC2EPKc
.LEHE3:
.LVL115:
	.loc 2 37 0
	lwz 0,4(31)
	.loc 2 31 0
	lis 9,_ZTV10WavDecoder+8@ha
	la 9,_ZTV10WavDecoder+8@l(9)
	.loc 2 37 0
	cmpwi 7,0,0
	.loc 2 31 0
	stw 9,0(31)
	.loc 2 34 0
	li 9,0
	.loc 2 33 0
	li 0,3
	.loc 2 34 0
	ori 9,9,48000
	.loc 2 33 0
	stb 0,60(31)
	.loc 2 34 0
	stw 9,84(31)
	.loc 2 35 0
	stb 0,88(31)
	.loc 2 37 0
	beq- 7,.L85
	.loc 2 40 0
	mr 3,31
.LEHB4:
	bl _ZN10WavDecoder8OpenFileEv
.LEHE4:
.L85:
.LBE525:
	.loc 2 41 0
	lwz 0,20(1)
	lwz 30,8(1)
	mtlr 0
	lwz 31,12(1)
.LVL116:
	addi 1,1,16
	.cfi_remember_state
.LCFI26:
	.cfi_def_cfa_offset 0
	.cfi_restore 31
	.cfi_restore 30
	blr
.LVL117:
.L88:
.LCFI27:
	.cfi_restore_state
	mr 30,3
.LBB526:
	.loc 2 31 0
	mr 3,31
	bl _ZN12SoundDecoderD2Ev
	mr 3,30
.LEHB5:
	bl _Unwind_Resume
.LEHE5:
.LBE526:
	.cfi_endproc
.LFE1417:
	.section	.gcc_except_table
.LLSDA1417:
	.byte	0xff
	.byte	0xff
	.byte	0x1
	.uleb128 .LLSDACSE1417-.LLSDACSB1417
.LLSDACSB1417:
	.uleb128 .LEHB3-.LFB1417
	.uleb128 .LEHE3-.LEHB3
	.uleb128 0
	.uleb128 0
	.uleb128 .LEHB4-.LFB1417
	.uleb128 .LEHE4-.LEHB4
	.uleb128 .L88-.LFB1417
	.uleb128 0
	.uleb128 .LEHB5-.LFB1417
	.uleb128 .LEHE5-.LEHB5
	.uleb128 0
	.uleb128 0
.LLSDACSE1417:
	.section	".text"
	.size	_ZN10WavDecoderC2EPKc, .-_ZN10WavDecoderC2EPKc
	.align 2
	.globl _ZN10WavDecoder9CloseFileEv
	.type	_ZN10WavDecoder9CloseFileEv, @function
_ZN10WavDecoder9CloseFileEv:
.LFB1427:
	.loc 2 121 0
	.cfi_startproc
.LVL118:
	mflr 0
	stwu 1,-16(1)
.LCFI28:
	.cfi_def_cfa_offset 16
	.cfi_register 65, 0
	stw 31,12(1)
	stw 0,20(1)
	stw 30,8(1)
	.loc 2 121 0
	mr 30,3
	.cfi_offset 30, -8
	.cfi_offset 65, 4
	.cfi_offset 31, -4
	.loc 2 122 0
	lwz 31,4(3)
	cmpwi 7,31,0
	beq- 7,.L90
	.loc 2 123 0
	mr 3,31
.LVL119:
	bl _ZN5CFileD1Ev
	mr 3,31
	bl _ZdlPv
.L90:
	.loc 2 125 0
	li 0,0
	.loc 2 126 0
	lwz 31,12(1)
	.loc 2 125 0
	stw 0,4(30)
	.loc 2 126 0
	lwz 0,20(1)
	lwz 30,8(1)
.LVL120:
	mtlr 0
	addi 1,1,16
.LCFI29:
	.cfi_def_cfa_offset 0
	.cfi_restore 31
	.cfi_restore 30
	blr
	.cfi_endproc
.LFE1427:
	.size	_ZN10WavDecoder9CloseFileEv, .-_ZN10WavDecoder9CloseFileEv
	.weak	_ZTS10WavDecoder
	.section	.rodata._ZTS10WavDecoder,"aG",@progbits,_ZTS10WavDecoder,comdat
	.align 2
	.type	_ZTS10WavDecoder, @object
	.size	_ZTS10WavDecoder, 13
_ZTS10WavDecoder:
	.string	"10WavDecoder"
	.weak	_ZTI10WavDecoder
	.section	.rodata._ZTI10WavDecoder,"aG",@progbits,_ZTI10WavDecoder,comdat
	.align 2
	.type	_ZTI10WavDecoder, @object
	.size	_ZTI10WavDecoder, 12
_ZTI10WavDecoder:
	.long	_ZTVN10__cxxabiv120__si_class_type_infoE+8
	.long	_ZTS10WavDecoder
	.long	_ZTI12SoundDecoder
	.weak	_ZTV10WavDecoder
	.section	.rodata._ZTV10WavDecoder,"aG",@progbits,_ZTV10WavDecoder,comdat
	.align 3
	.type	_ZTV10WavDecoder, @object
	.size	_ZTV10WavDecoder, 100
_ZTV10WavDecoder:
	.long	0
	.long	_ZTI10WavDecoder
	.long	_ZN10WavDecoderD1Ev
	.long	_ZN10WavDecoderD0Ev
	.long	_ZN10WavDecoder4ReadEPhii
	.long	_ZN12SoundDecoder4TellEv
	.long	_ZN12SoundDecoder4SeekEi
	.long	_ZN12SoundDecoder6RewindEv
	.long	_ZN10WavDecoder9GetFormatEv
	.long	_ZN10WavDecoder13GetSampleRateEv
	.long	_ZN12SoundDecoder6DecodeEv
	.long	_ZN12SoundDecoder13GetBufferSizeEv
	.long	_ZN12SoundDecoder9GetBufferEv
	.long	_ZN12SoundDecoder13GetNextBufferEv
	.long	_ZN12SoundDecoder13GetLastBufferEv
	.long	_ZN12SoundDecoder8LoadNextEv
	.long	_ZN12SoundDecoder13IsBufferReadyEv
	.long	_ZN12SoundDecoder17IsNextBufferReadyEv
	.long	_ZN12SoundDecoder17IsLastBufferReadyEv
	.long	_ZN12SoundDecoder5IsEOFEv
	.long	_ZN12SoundDecoder7SetLoopEb
	.long	_ZN12SoundDecoder12GetSoundTypeEv
	.long	_ZN12SoundDecoder11ClearBufferEv
	.long	_ZN12SoundDecoder8IsStereoEv
	.long	_ZN12SoundDecoder7Is16BitEv
	.globl _ZN10WavDecoderD1Ev
	.set	_ZN10WavDecoderD1Ev,_ZN10WavDecoderD2Ev
	.globl _ZN10WavDecoderC1EPKhi
	.set	_ZN10WavDecoderC1EPKhi,_ZN10WavDecoderC2EPKhi
	.globl _ZN10WavDecoderC1EPKc
	.set	_ZN10WavDecoderC1EPKc,_ZN10WavDecoderC2EPKc
	.section	".text"
.Letext0:
	.file 7 "d:\\devkitpro\\devkitppc\\bin\\../lib/gcc/powerpc-eabi/4.6.3/../../../../powerpc-eabi/include/machine/_types.h"
	.file 8 "d:\\devkitpro\\devkitppc\\bin\\../lib/gcc/powerpc-eabi/4.6.3/../../../../powerpc-eabi/include/sys/lock.h"
	.file 9 "d:\\devkitpro\\devkitppc\\bin\\../lib/gcc/powerpc-eabi/4.6.3/include/stddef.h"
	.file 10 "d:\\devkitpro\\devkitppc\\bin\\../lib/gcc/powerpc-eabi/4.6.3/../../../../powerpc-eabi/include/sys/_types.h"
	.file 11 "d:\\devkitpro\\devkitppc\\bin\\../lib/gcc/powerpc-eabi/4.6.3/../../../../powerpc-eabi/include/sys/reent.h"
	.file 12 "d:\\devkitpro\\devkitppc\\bin\\../lib/gcc/powerpc-eabi/4.6.3/../../../../powerpc-eabi/include/stdint.h"
	.file 13 "d:/devkitPro/libogc/include/gctypes.h"
	.file 14 "<built-in>"
	.file 15 "d:\\devkitpro\\devkitppc\\bin\\../lib/gcc/powerpc-eabi/4.6.3/../../../../powerpc-eabi/include/c++/4.6.3/powerpc-eabi/bits/c++config.h"
	.file 16 "d:\\devkitpro\\devkitppc\\bin\\../lib/gcc/powerpc-eabi/4.6.3/../../../../powerpc-eabi/include/c++/4.6.3/cwchar"
	.file 17 "d:\\devkitpro\\devkitppc\\bin\\../lib/gcc/powerpc-eabi/4.6.3/../../../../powerpc-eabi/include/c++/4.6.3/clocale"
	.file 18 "d:\\devkitpro\\devkitppc\\bin\\../lib/gcc/powerpc-eabi/4.6.3/../../../../powerpc-eabi/include/c++/4.6.3/debug/debug.h"
	.file 19 "d:\\devkitpro\\devkitppc\\bin\\../lib/gcc/powerpc-eabi/4.6.3/../../../../powerpc-eabi/include/c++/4.6.3/bits/stl_list.h"
	.file 20 "d:\\devkitpro\\devkitppc\\bin\\../lib/gcc/powerpc-eabi/4.6.3/../../../../powerpc-eabi/include/c++/4.6.3/bits/cpp_type_traits.h"
	.file 21 "d:\\devkitpro\\devkitppc\\bin\\../lib/gcc/powerpc-eabi/4.6.3/../../../../powerpc-eabi/include/c++/4.6.3/ext/new_allocator.h"
	.file 22 "d:\\devkitpro\\devkitppc\\bin\\../lib/gcc/powerpc-eabi/4.6.3/../../../../powerpc-eabi/include/c++/4.6.3/bits/stl_iterator_base_types.h"
	.file 23 "d:\\devkitpro\\devkitppc\\bin\\../lib/gcc/powerpc-eabi/4.6.3/../../../../powerpc-eabi/include/c++/4.6.3/bits/stl_iterator.h"
	.file 24 "d:\\devkitpro\\devkitppc\\bin\\../lib/gcc/powerpc-eabi/4.6.3/../../../../powerpc-eabi/include/c++/4.6.3/ext/numeric_traits.h"
	.file 25 "d:\\devkitpro\\devkitppc\\bin\\../lib/gcc/powerpc-eabi/4.6.3/../../../../powerpc-eabi/include/c++/4.6.3/bits/allocator.h"
	.file 26 "d:\\devkitpro\\devkitppc\\bin\\../lib/gcc/powerpc-eabi/4.6.3/../../../../powerpc-eabi/include/c++/4.6.3/bits/vector.tcc"
	.file 27 "d:\\devkitpro\\devkitppc\\bin\\../lib/gcc/powerpc-eabi/4.6.3/../../../../powerpc-eabi/include/time.h"
	.file 28 "d:/devkitPro/libogc/include/ogc/gx.h"
	.file 29 "d:\\devkitpro\\devkitppc\\bin\\../lib/gcc/powerpc-eabi/4.6.3/../../../../powerpc-eabi/include/wchar.h"
	.file 30 "d:\\devkitpro\\devkitppc\\bin\\../lib/gcc/powerpc-eabi/4.6.3/../../../../powerpc-eabi/include/locale.h"
	.file 31 "d:/Projects/SaveGameManager/savegame-manager-gx/trunk/source/SoundOperations/../sigslot.h"