	.file	"wstring.cpp"
	.section	".text"
.Ltext0:
	.align 2
	.globl _ZN7wStringC2EPKw
	.type	_ZN7wStringC2EPKw, @function
_ZN7wStringC2EPKw:
.LFB536:
	.file 1 "d:/Projects/SaveGameManager/savegame-manager-gx/trunk/source/TextOperations/wstring.cpp"
	.loc 1 5 0
	.cfi_startproc
.LVL0:
	stwu 1,-24(1)
.LCFI0:
	.cfi_def_cfa_offset 24
	mflr 0
.LBB345:
	.loc 1 6 0
	addi 5,1,8
.LBE345:
	.loc 1 5 0
	stw 0,28(1)
.LBB346:
	.loc 1 6 0
	.cfi_offset 65, 4
	bl _ZNSbIwSt11char_traitsIwESaIwEEC2EPKwRKS1_
.LVL1:
.LBE346:
	.loc 1 8 0
	lwz 0,28(1)
	addi 1,1,24
.LCFI1:
	.cfi_def_cfa_offset 0
	mtlr 0
	blr
	.cfi_endproc
.LFE536:
	.size	_ZN7wStringC2EPKw, .-_ZN7wStringC2EPKw
	.align 2
	.globl _ZN7wStringC2ERKSbIwSt11char_traitsIwESaIwEE
	.type	_ZN7wStringC2ERKSbIwSt11char_traitsIwESaIwEE, @function
_ZN7wStringC2ERKSbIwSt11char_traitsIwESaIwEE:
.LFB539:
	.loc 1 10 0
	.cfi_startproc
.LVL2:
	mflr 0
	stwu 1,-8(1)
.LCFI2:
	.cfi_def_cfa_offset 8
	.cfi_register 65, 0
	stw 0,12(1)
.LBB347:
	.loc 1 11 0
	.cfi_offset 65, 4
	bl _ZNSbIwSt11char_traitsIwESaIwEEC2ERKS2_
.LVL3:
.LBE347:
	.loc 1 13 0
	lwz 0,12(1)
	addi 1,1,8
.LCFI3:
	.cfi_def_cfa_offset 0
	mtlr 0
	blr
	.cfi_endproc
.LFE539:
	.size	_ZN7wStringC2ERKSbIwSt11char_traitsIwESaIwEE, .-_ZN7wStringC2ERKSbIwSt11char_traitsIwESaIwEE
	.align 2
	.globl _ZN7wStringC2ERKSs
	.type	_ZN7wStringC2ERKSs, @function
_ZN7wStringC2ERKSs:
.LFB542:
	.loc 1 15 0
	.cfi_startproc
	.cfi_personality 0,__gxx_personality_v0
	.cfi_lsda 0,.LLSDA542
.LVL4:
	mflr 0
	stwu 1,-24(1)
.LCFI4:
	.cfi_def_cfa_offset 24
	.cfi_register 65, 0
.LBB380:
.LBB381:
.LBB382:
.LBB383:
	.file 2 "d:\\devkitpro\\devkitppc\\bin\\../lib/gcc/powerpc-eabi/4.6.3/../../../../powerpc-eabi/include/c++/4.6.3/bits/basic_string.h"
	.loc 2 749 0
	li 5,0
.LBE383:
.LBE382:
.LBE381:
.LBE380:
	.loc 1 15 0
	stw 29,12(1)
	stw 0,28(1)
	stw 28,8(1)
	mr 28,4
	.cfi_offset 28, -16
	.cfi_offset 65, 4
	.cfi_offset 29, -12
.LBB404:
.LBB395:
.LBB385:
.LBB386:
	.loc 2 711 0
	lwz 9,0(4)
.LBE386:
.LBE385:
.LBE395:
.LBE404:
	.loc 1 15 0
	stw 30,16(1)
	mr 30,3
	.cfi_offset 30, -8
.LVL5:
.LBB405:
.LBB396:
.LBB388:
.LBB387:
	.loc 2 711 0
	lwz 29,-12(9)
.LBE387:
.LBE388:
.LBE396:
.LBB397:
.LBB398:
.LBB399:
	.loc 2 270 0
	lis 9,_ZNSbIwSt11char_traitsIwESaIwEE4_Rep20_S_empty_rep_storageE+12@ha
	la 0,_ZNSbIwSt11char_traitsIwESaIwEE4_Rep20_S_empty_rep_storageE+12@l(9)
.LBE399:
.LBE398:
.LBE397:
.LBE405:
	.loc 1 15 0
	stw 31,20(1)
.LBB406:
.LBB402:
.LBB401:
.LBB400:
	.loc 2 270 0
	stw 0,0(3)
.LVL6:
.LBE400:
.LBE401:
.LBE402:
.LBB403:
.LBB389:
.LBB384:
	.loc 2 749 0
	mr 4,29
.LVL7:
.LEHB0:
	.cfi_offset 31, -4
	bl _ZNSbIwSt11char_traitsIwESaIwEE6resizeEjw
.LVL8:
.LBE384:
.LBE389:
.LBB390:
	.loc 1 21 0 discriminator 1
	cmpwi 7,29,0
	beq- 7,.L5
	.loc 1 21 0 is_stmt 0
	lwz 9,0(30)
	li 31,0
.LVL9:
.L10:
.LBB391:
.LBB392:
.LBB393:
.LBB394:
	.loc 2 311 0 is_stmt 1
	lwz 0,-4(9)
	cmpwi 7,0,0
	blt- 7,.L9
	.loc 2 312 0
	mr 3,30
	bl _ZNSbIwSt11char_traitsIwESaIwEE12_M_leak_hardEv
.LEHE0:
	lwz 9,0(30)
.L9:
.LVL10:
.LBE394:
.LBE393:
.LBE392:
.LBE391:
	.loc 1 22 0
	lwz 11,0(28)
	slwi 0,31,2
	lbzx 11,11,31
	.loc 1 21 0
	addi 31,31,1
.LVL11:
	cmpw 7,31,29
	.loc 1 22 0
	stwx 11,9,0
	.loc 1 21 0
	bne+ 7,.L10
.LVL12:
.L5:
.LBE390:
.LBE403:
.LBE406:
	.loc 1 23 0
	lwz 0,28(1)
	lwz 28,8(1)
.LVL13:
	mtlr 0
	lwz 29,12(1)
.LVL14:
	lwz 30,16(1)
.LVL15:
	lwz 31,20(1)
	addi 1,1,24
	.cfi_remember_state
.LCFI5:
	.cfi_def_cfa_offset 0
	.cfi_restore 31
	.cfi_restore 30
	.cfi_restore 29
	.cfi_restore 28
	blr
.LVL16:
.L12:
.LCFI6:
	.cfi_restore_state
	mr 31,3
.LBB407:
	.loc 1 15 0
	mr 3,30
	bl _ZNSbIwSt11char_traitsIwESaIwEED2Ev
	mr 3,31
.LEHB1:
	bl _Unwind_Resume
.LEHE1:
.LBE407:
	.cfi_endproc
.LFE542:
	.globl __gxx_personality_v0
	.section	.gcc_except_table,"a",@progbits
.LLSDA542:
	.byte	0xff
	.byte	0xff
	.byte	0x1
	.uleb128 .LLSDACSE542-.LLSDACSB542
.LLSDACSB542:
	.uleb128 .LEHB0-.LFB542
	.uleb128 .LEHE0-.LEHB0
	.uleb128 .L12-.LFB542
	.uleb128 0
	.uleb128 .LEHB1-.LFB542
	.uleb128 .LEHE1-.LEHB1
	.uleb128 0
	.uleb128 0
.LLSDACSE542:
	.section	".text"
	.size	_ZN7wStringC2ERKSs, .-_ZN7wStringC2ERKSs
	.align 2
	.globl _ZN7wStringaSERKSs
	.type	_ZN7wStringaSERKSs, @function
_ZN7wStringaSERKSs:
.LFB544:
	.loc 1 26 0
	.cfi_startproc
.LVL17:
	mflr 0
	stwu 1,-24(1)
.LCFI7:
	.cfi_def_cfa_offset 24
	.cfi_register 65, 0
.LBB432:
.LBB433:
.LBB434:
	.loc 2 749 0
	li 5,0
.LBE434:
.LBE433:
.LBE432:
	.loc 1 26 0
	stw 30,16(1)
	stw 0,28(1)
	stw 29,12(1)
	mr 29,4
	.cfi_offset 29, -12
	.cfi_offset 65, 4
	.cfi_offset 30, -8
.LVL18:
.LBB446:
.LBB436:
.LBB437:
	.loc 2 711 0
	lwz 9,0(4)
.LBE437:
.LBE436:
.LBE446:
	.loc 1 26 0
	stw 31,20(1)
	mr 31,3
	.cfi_offset 31, -4
.LBB447:
.LBB439:
.LBB438:
	.loc 2 711 0
	lwz 30,-12(9)
.LVL19:
.LBE438:
.LBE439:
.LBE447:
	.loc 1 26 0
	stw 28,8(1)
.LBB448:
.LBB440:
.LBB435:
	.loc 2 749 0
	mr 4,30
.LVL20:
	.cfi_offset 28, -16
	bl _ZNSbIwSt11char_traitsIwESaIwEE6resizeEjw
.LVL21:
.LBE435:
.LBE440:
.LBB441:
	.loc 1 31 0
	cmpwi 7,30,0
	beq- 7,.L16
	lwz 9,0(31)
	li 28,0
.LVL22:
.L18:
.LBB442:
.LBB443:
.LBB444:
.LBB445:
	.loc 2 311 0 discriminator 2
	lwz 0,-4(9)
	.loc 2 312 0 discriminator 2
	mr 3,31
	.loc 2 311 0 discriminator 2
	cmpwi 7,0,0
	blt- 7,.L17
	.loc 2 312 0
	bl _ZNSbIwSt11char_traitsIwESaIwEE12_M_leak_hardEv
	lwz 9,0(31)
.L17:
.LVL23:
.LBE445:
.LBE444:
.LBE443:
.LBE442:
	.loc 1 32 0 discriminator 2
	lwz 11,0(29)
	slwi 0,28,2
	lbzx 11,11,28
	.loc 1 31 0 discriminator 2
	addi 28,28,1
.LVL24:
	cmpw 7,28,30
	.loc 1 32 0 discriminator 2
	stwx 11,9,0
	.loc 1 31 0 discriminator 2
	bne+ 7,.L18
.LVL25:
.L16:
.LBE441:
.LBE448:
	.loc 1 34 0
	lwz 0,28(1)
	mr 3,31
	lwz 28,8(1)
	mtlr 0
	lwz 29,12(1)
.LVL26:
	lwz 30,16(1)
.LVL27:
	lwz 31,20(1)
.LVL28:
	addi 1,1,24
.LCFI8:
	.cfi_def_cfa_offset 0
	.cfi_restore 31
	.cfi_restore 30
	.cfi_restore 29
	.cfi_restore 28
	blr
	.cfi_endproc
.LFE544:
	.size	_ZN7wStringaSERKSs, .-_ZN7wStringaSERKSs
	.align 2
	.globl _ZNK7wString6toUTF8Ev
	.type	_ZNK7wString6toUTF8Ev, @function
_ZNK7wString6toUTF8Ev:
.LFB546:
	.loc 1 70 0
	.cfi_startproc
	.cfi_personality 0,__gxx_personality_v0
	.cfi_lsda 0,.LLSDA546
.LVL29:
	mflr 0
	stwu 1,-32(1)
.LCFI9:
	.cfi_def_cfa_offset 32
	.cfi_register 65, 0
.LBB817:
.LBB818:
.LBB819:
.LBB820:
	.loc 2 270 0
	lis 11,_ZNSs4_Rep20_S_empty_rep_storageE+12@ha
	la 11,_ZNSs4_Rep20_S_empty_rep_storageE+12@l(11)
.LBE820:
.LBE819:
.LBE818:
.LBE817:
	.loc 1 70 0
	stw 27,12(1)
	stw 0,36(1)
	mr 27,4
	.cfi_offset 65, 4
	.cfi_offset 27, -20
	stw 31,28(1)
	mr 31,3
	.cfi_offset 31, -4
.LVL30:
.LBB1007:
.LBB823:
.LBB824:
.LBB825:
.LBB826:
.LBB827:
.LBB828:
	.loc 2 288 0
	lwz 9,0(4)
.LBE828:
.LBE827:
.LBE826:
.LBE825:
.LBE824:
	.loc 1 72 0
	li 4,0
.LVL31:
.LBE823:
.LBE1007:
	.loc 1 70 0
	stw 26,8(1)
.LBB1008:
.LBB831:
.LBB830:
.LBB829:
	.loc 2 711 0
	lwz 0,-12(9)
.LBE829:
.LBE830:
.LBE831:
.LBE1008:
	.loc 1 70 0
	stw 28,16(1)
.LBB1009:
.LBB832:
	.loc 1 75 0
	cmpwi 7,0,0
.LBE832:
.LBE1009:
	.loc 1 70 0
	stw 29,20(1)
	stw 30,24(1)
.LBB1010:
.LBB833:
.LBB822:
.LBB821:
	.loc 2 270 0
	stw 11,0(3)
.LVL32:
.LBE821:
.LBE822:
.LBE833:
.LBB834:
	.loc 1 75 0
	beq- 7,.L21
	.cfi_offset 30, -8
	.cfi_offset 29, -12
	.cfi_offset 28, -16
	.cfi_offset 26, -24
.LVL33:
	.loc 1 82 0
	li 10,0
	.loc 1 75 0
	li 11,0
	.loc 1 82 0
	ori 10,10,65535
	mtctr 0
	b .L28
.LVL34:
.L82:
	.loc 1 79 0
	addi 4,4,1
.LVL35:
.L23:
	.loc 1 75 0
	addi 11,11,1
.LVL36:
	bdz .L21
.LVL37:
.L28:
	.loc 1 77 0
	slwi 0,11,2
	lwzx 0,9,0
.LVL38:
	.loc 1 78 0
	cmpwi 7,0,127
	ble- 7,.L82
	.loc 1 80 0
	cmpwi 7,0,2047
	bgt- 7,.L24
	.loc 1 81 0
	addi 4,4,2
.LVL39:
	.loc 1 75 0
	addi 11,11,1
.LVL40:
	bdnz .L28
.LVL41:
.L21:
.LBE834:
	.loc 1 87 0
	mr 3,31
.LVL42:
.LEHB2:
	bl _ZNSs7reserveEj
.LVL43:
.LBB835:
.LBB836:
.LBB837:
.LBB838:
.LBB839:
.LBB840:
	.loc 2 288 0 discriminator 1
	lwz 9,0(27)
.LBE840:
.LBE839:
.LBE838:
.LBE837:
.LBE836:
	.loc 1 88 0 discriminator 1
	lwz 0,-12(9)
	cmpwi 7,0,0
	beq- 7,.L20
	.loc 1 88 0 is_stmt 0
	li 29,0
	b .L60
.LVL44:
.L30:
	.loc 1 93 0 is_stmt 1
	cmpwi 7,30,2047
	ble- 7,.L83
	.loc 1 98 0
	li 0,0
.LBB845:
.LBB846:
.LBB847:
.LBB848:
.LBB849:
.LBB850:
.LBB851:
	.loc 2 288 0
	lwz 9,0(31)
.LBE851:
.LBE850:
.LBE849:
.LBE848:
.LBE847:
.LBE846:
.LBE845:
	.loc 1 98 0
	ori 0,0,65535
	cmpw 7,30,0
.LBB868:
.LBB865:
.LBB853:
.LBB852:
	.loc 2 711 0
	lwz 11,-12(9)
.LBE852:
.LBE853:
	.loc 2 1046 0
	lwz 0,-8(9)
	.loc 2 1045 0
	addi 26,11,1
.LBE865:
.LBE868:
	.loc 1 98 0
	bgt- 7,.L40
.LVL45:
.LBB869:
.LBB866:
	.loc 2 1046 0
	cmplw 7,26,0
	bgt- 7,.L41
.LVL46:
	lwz 0,-4(9)
	cmpwi 7,0,0
	ble- 7,.L42
.L41:
	.loc 2 1047 0
	mr 3,31
	mr 4,26
	bl _ZNSs7reserveEj
	lwz 9,0(31)
	lwz 11,-12(9)
.L42:
.LVL47:
.LBE866:
.LBE869:
	.loc 1 100 0
	srawi 10,30,12
	li 0,-32
	or 0,10,0
.LBB870:
.LBB867:
.LBB854:
.LBB855:
	.loc 2 205 0
	lis 28,_ZNSs4_Rep20_S_empty_rep_storageE@ha
.LBE855:
.LBE854:
.LBB858:
.LBB859:
	.file 3 "d:\\devkitpro\\devkitppc\\bin\\../lib/gcc/powerpc-eabi/4.6.3/../../../../powerpc-eabi/include/c++/4.6.3/bits/char_traits.h"
	.loc 3 245 0
	stbx 0,9,11
.LVL48:
.LBE859:
.LBE858:
.LBB860:
.LBB856:
	.loc 2 205 0
	la 28,_ZNSs4_Rep20_S_empty_rep_storageE@l(28)
.LBE856:
.LBE860:
.LBB861:
.LBB862:
.LBB863:
	.loc 2 288 0
	lwz 9,0(31)
.LVL49:
.LBE863:
.LBE862:
.LBE861:
	.loc 2 1049 0
	addi 0,9,-12
.LBB864:
.LBB857:
	.loc 2 205 0
	cmpw 7,0,28
	bne- 7,.L81
.LVL50:
.L54:
.LBE857:
.LBE864:
.LBE867:
.LBE870:
.LBB871:
.LBB872:
.LBB873:
.LBB874:
	.loc 2 711 0
	lwz 11,-12(9)
.LBE874:
.LBE873:
	.loc 2 1046 0
	lwz 0,-8(9)
	.loc 2 1045 0
	addi 26,11,1
.LVL51:
	.loc 2 1046 0
	cmplw 7,26,0
	bgt- 7,.L55
	lwz 0,-4(9)
	cmpwi 7,0,0
	ble- 7,.L56
.L55:
	.loc 2 1047 0
	mr 3,31
	mr 4,26
	bl _ZNSs7reserveEj
	lwz 9,0(31)
	lwz 11,-12(9)
.L56:
.LVL52:
.LBE872:
.LBE871:
	.loc 1 108 0
	rlwinm 10,30,26,26,31
	li 0,-128
	or 0,10,0
.LBB892:
.LBB890:
.LBB875:
.LBB876:
	.loc 3 245 0
	stbx 0,9,11
.LVL53:
.LBE876:
.LBE875:
.LBB877:
.LBB878:
.LBB879:
	.loc 2 288 0
	lwz 9,0(31)
.LVL54:
.LBE879:
.LBE878:
.LBE877:
	.loc 2 1049 0
	addi 0,9,-12
.LBB880:
.LBB881:
	.loc 2 205 0
	cmpw 7,0,28
	bne- 7,.L75
.LVL55:
.L57:
.LBE881:
.LBE880:
.LBE890:
.LBE892:
.LBB893:
.LBB894:
.LBB895:
.LBB896:
	.loc 2 711 0
	lwz 11,-12(9)
.LBE896:
.LBE895:
	.loc 2 1046 0
	lwz 0,-8(9)
	.loc 2 1045 0
	addi 26,11,1
.LVL56:
	.loc 2 1046 0
	cmplw 7,26,0
	bgt- 7,.L58
	lwz 0,-4(9)
	cmpwi 7,0,0
	ble- 7,.L59
.L58:
	.loc 2 1047 0
	mr 3,31
	mr 4,26
	bl _ZNSs7reserveEj
	lwz 9,0(31)
	lwz 11,-12(9)
.L59:
.LVL57:
.LBE894:
.LBE893:
	.loc 1 109 0
	li 0,-128
	rlwinm 30,30,0,26,31
.LVL58:
	or 30,30,0
.LBB914:
.LBB912:
.LBB897:
.LBB898:
	.loc 3 245 0
	stbx 30,9,11
.LVL59:
.LBE898:
.LBE897:
.LBB899:
.LBB900:
.LBB901:
	.loc 2 288 0
	lwz 9,0(31)
.LVL60:
.LBE901:
.LBE900:
.LBE899:
	.loc 2 1049 0
	addi 0,9,-12
.LBB902:
.LBB903:
	.loc 2 205 0
	cmpw 7,0,28
	bne- 7,.L84
.LVL61:
.L33:
.LBE903:
.LBE902:
.LBE912:
.LBE914:
.LBB915:
.LBB844:
.LBB843:
.LBB842:
.LBB841:
	.loc 2 288 0
	lwz 9,0(27)
.LBE841:
.LBE842:
.LBE843:
.LBE844:
.LBE915:
	.loc 1 88 0
	addi 29,29,1
.LVL62:
	lwz 0,-12(9)
	cmplw 7,29,0
	bge- 7,.L20
.LVL63:
.L60:
	.loc 1 90 0
	slwi 0,29,2
	lwzx 30,9,0
.LVL64:
	.loc 1 91 0
	cmpwi 7,30,127
	bgt+ 7,.L30
.LVL65:
.LBB916:
.LBB917:
.LBB918:
.LBB919:
.LBB920:
.LBB921:
.LBB922:
	.loc 2 288 0
	lwz 9,0(31)
.LVL66:
.LBE922:
.LBE921:
.LBE920:
	.loc 2 711 0
	lwz 11,-12(9)
.LBE919:
.LBE918:
	.loc 2 1046 0
	lwz 0,-8(9)
	.loc 2 1045 0
	addi 28,11,1
.LVL67:
	.loc 2 1046 0
	cmplw 7,28,0
	bgt- 7,.L31
.LVL68:
	lwz 0,-4(9)
	cmpwi 7,0,0
	ble- 7,.L32
.L31:
	.loc 2 1047 0
	mr 3,31
	mr 4,28
	bl _ZNSs7reserveEj
	lwz 9,0(31)
	lwz 11,-12(9)
.L32:
.LVL69:
.LBE917:
.LBE916:
	.loc 1 92 0
	stbx 30,9,11
.LVL70:
.LBB937:
.LBB936:
.LBB923:
.LBB924:
	.loc 2 205 0
	lis 10,_ZNSs4_Rep20_S_empty_rep_storageE@ha
	la 0,_ZNSs4_Rep20_S_empty_rep_storageE@l(10)
.LBE924:
.LBE923:
.LBB932:
.LBB933:
.LBB934:
	.loc 2 288 0
	lwz 9,0(31)
.LVL71:
.LBE934:
.LBE933:
.LBE932:
	.loc 2 1049 0
	addi 11,9,-12
.LBB935:
.LBB931:
	.loc 2 205 0
	cmpw 7,11,0
	beq+ 7,.L33
.LBB925:
.LBB926:
	.loc 2 199 0
	li 0,0
.LBE926:
.LBE925:
	.loc 2 209 0
	stw 28,-12(9)
.LVL72:
.LBB928:
.LBB927:
	.loc 2 199 0
	stw 0,-4(9)
.LBE927:
.LBE928:
.LBB929:
.LBB930:
	.loc 3 245 0
	stbx 0,9,28
	b .L33
.LVL73:
.L24:
.LBE930:
.LBE929:
.LBE931:
.LBE935:
.LBE936:
.LBE937:
.LBE835:
.LBB1004:
	.loc 1 82 0
	cmpw 7,0,10
	bgt- 7,.L25
	.loc 1 83 0
	addi 4,4,3
.LVL74:
	b .L23
.LVL75:
.L25:
	.loc 1 85 0
	addi 4,4,4
.LVL76:
	b .L23
.LVL77:
.L40:
.LBE1004:
.LBB1005:
.LBB938:
.LBB939:
	.loc 2 1046 0
	cmplw 7,26,0
	bgt- 7,.L49
.LVL78:
	lwz 0,-4(9)
	cmpwi 7,0,0
	ble- 7,.L50
.L49:
	.loc 2 1047 0
	mr 3,31
	mr 4,26
	bl _ZNSs7reserveEj
	lwz 9,0(31)
	lwz 11,-12(9)
.L50:
.LVL79:
.LBE939:
.LBE938:
	.loc 1 106 0
	rlwinm 10,30,14,29,31
	li 0,-16
	or 0,10,0
.LBB961:
.LBB959:
.LBB940:
.LBB941:
	.loc 2 205 0
	lis 28,_ZNSs4_Rep20_S_empty_rep_storageE@ha
.LBE941:
.LBE940:
.LBB951:
.LBB952:
	.loc 3 245 0
	stbx 0,9,11
.LVL80:
.LBE952:
.LBE951:
.LBB953:
.LBB948:
	.loc 2 205 0
	la 28,_ZNSs4_Rep20_S_empty_rep_storageE@l(28)
.LBE948:
.LBE953:
.LBB954:
.LBB955:
.LBB956:
	.loc 2 288 0
	lwz 9,0(31)
.LVL81:
.LBE956:
.LBE955:
.LBE954:
	.loc 2 1049 0
	addi 0,9,-12
.LBB957:
.LBB949:
	.loc 2 205 0
	cmpw 7,0,28
	bne- 7,.L85
.L51:
.LVL82:
.LBE949:
.LBE957:
.LBE959:
.LBE961:
.LBB962:
.LBB963:
.LBB964:
.LBB965:
	.loc 2 711 0
	lwz 11,-12(9)
.LBE965:
.LBE964:
	.loc 2 1046 0
	lwz 0,-8(9)
	.loc 2 1045 0
	addi 26,11,1
.LVL83:
	.loc 2 1046 0
	cmplw 7,26,0
	bgt- 7,.L52
	lwz 0,-4(9)
	cmpwi 7,0,0
	ble- 7,.L53
.L52:
	.loc 2 1047 0
	mr 3,31
	mr 4,26
	bl _ZNSs7reserveEj
.LVL84:
	lwz 9,0(31)
	lwz 11,-12(9)
.L53:
.LVL85:
.LBE963:
.LBE962:
	.loc 1 107 0
	rlwinm 10,30,20,26,31
	li 0,-128
	or 0,10,0
.LBB980:
.LBB979:
.LBB966:
.LBB967:
	.loc 3 245 0
	stbx 0,9,11
.LVL86:
.LBE967:
.LBE966:
.LBB968:
.LBB969:
.LBB970:
	.loc 2 288 0
	lwz 9,0(31)
.LVL87:
.LBE970:
.LBE969:
.LBE968:
	.loc 2 1049 0
	addi 0,9,-12
.LBB971:
.LBB972:
	.loc 2 205 0
	cmpw 7,0,28
	beq+ 7,.L54
.LVL88:
.L81:
.LBB973:
.LBB974:
	.loc 2 199 0
	li 0,0
.LBE974:
.LBE973:
	.loc 2 209 0
	stw 26,-12(9)
.LVL89:
.LBB976:
.LBB975:
	.loc 2 199 0
	stw 0,-4(9)
.LBE975:
.LBE976:
.LBB977:
.LBB978:
	.loc 3 245 0
	stbx 0,9,26
	lwz 9,0(31)
.LVL90:
	b .L54
.LVL91:
.L83:
.LBE978:
.LBE977:
.LBE972:
.LBE971:
.LBE979:
.LBE980:
.LBB981:
.LBB982:
.LBB983:
.LBB984:
.LBB985:
.LBB986:
.LBB987:
	.loc 2 288 0
	lwz 9,0(31)
.LBE987:
.LBE986:
.LBE985:
	.loc 2 711 0
	lwz 11,-12(9)
.LBE984:
.LBE983:
	.loc 2 1046 0
	lwz 0,-8(9)
	.loc 2 1045 0
	addi 26,11,1
.LVL92:
	.loc 2 1046 0
	cmplw 7,26,0
	bgt- 7,.L35
.LVL93:
	lwz 0,-4(9)
	cmpwi 7,0,0
	ble- 7,.L36
.L35:
	.loc 2 1047 0
	mr 3,31
	mr 4,26
	bl _ZNSs7reserveEj
.LEHE2:
	lwz 9,0(31)
	lwz 11,-12(9)
.L36:
.LVL94:
.LBE982:
.LBE981:
	.loc 1 95 0
	srawi 10,30,6
	li 0,-64
	or 0,10,0
.LBB1000:
.LBB999:
.LBB988:
.LBB989:
	.loc 2 205 0
	lis 28,_ZNSs4_Rep20_S_empty_rep_storageE@ha
.LBE989:
.LBE988:
.LBB992:
.LBB993:
	.loc 3 245 0
	stbx 0,9,11
.LVL95:
.LBE993:
.LBE992:
.LBB994:
.LBB990:
	.loc 2 205 0
	la 28,_ZNSs4_Rep20_S_empty_rep_storageE@l(28)
.LBE990:
.LBE994:
.LBB995:
.LBB996:
.LBB997:
	.loc 2 288 0
	lwz 9,0(31)
.LVL96:
.LBE997:
.LBE996:
.LBE995:
	.loc 2 1049 0
	addi 0,9,-12
.LBB998:
.LBB991:
	.loc 2 205 0
	cmpw 7,0,28
	beq+ 7,.L57
.LVL97:
.L75:
.LBE991:
.LBE998:
.LBE999:
.LBE1000:
.LBB1001:
.LBB891:
.LBB889:
.LBB888:
.LBB882:
.LBB883:
	.loc 2 199 0
	li 0,0
.LBE883:
.LBE882:
	.loc 2 209 0
	stw 26,-12(9)
.LVL98:
.LBB885:
.LBB884:
	.loc 2 199 0
	stw 0,-4(9)
.LBE884:
.LBE885:
.LBB886:
.LBB887:
	.loc 3 245 0
	stbx 0,9,26
	lwz 9,0(31)
.LVL99:
	b .L57
.LVL100:
.L20:
.LBE887:
.LBE886:
.LBE888:
.LBE889:
.LBE891:
.LBE1001:
.LBE1005:
.LBE1010:
	.loc 1 113 0
	lwz 0,36(1)
	mr 3,31
	lwz 26,8(1)
	mtlr 0
	lwz 27,12(1)
.LVL101:
	lwz 28,16(1)
	lwz 29,20(1)
	lwz 30,24(1)
	lwz 31,28(1)
.LVL102:
	addi 1,1,32
	.cfi_remember_state
.LCFI10:
	.cfi_def_cfa_offset 0
	.cfi_restore 31
	.cfi_restore 30
	.cfi_restore 29
	.cfi_restore 28
	.cfi_restore 27
	.cfi_restore 26
	blr
.LVL103:
.L84:
.LCFI11:
	.cfi_restore_state
.LBB1011:
.LBB1006:
.LBB1002:
.LBB913:
.LBB911:
.LBB910:
.LBB904:
.LBB905:
	.loc 2 199 0
	li 0,0
.LVL104:
.LBE905:
.LBE904:
	.loc 2 209 0
	stw 26,-12(9)
.LVL105:
.LBB907:
.LBB906:
	.loc 2 199 0
	stw 0,-4(9)
.LBE906:
.LBE907:
.LBB908:
.LBB909:
	.loc 3 245 0
	stbx 0,9,26
	b .L33
.LVL106:
.L85:
.LBE909:
.LBE908:
.LBE910:
.LBE911:
.LBE913:
.LBE1002:
.LBB1003:
.LBB960:
.LBB958:
.LBB950:
.LBB942:
.LBB943:
	.loc 2 199 0
	li 0,0
.LVL107:
.LBE943:
.LBE942:
	.loc 2 209 0
	stw 26,-12(9)
.LVL108:
.LBB945:
.LBB944:
	.loc 2 199 0
	stw 0,-4(9)
.LBE944:
.LBE945:
.LBB946:
.LBB947:
	.loc 3 245 0
	stbx 0,9,26
	lwz 9,0(31)
.LVL109:
	b .L51
.LVL110:
.L63:
	mr 30,3
.LBE947:
.LBE946:
.LBE950:
.LBE958:
.LBE960:
.LBE1003:
.LBE1006:
	.loc 1 112 0
	mr 3,31
	bl _ZNSsD1Ev
	mr 3,30
.LEHB3:
	bl _Unwind_Resume
.LEHE3:
.LBE1011:
	.cfi_endproc
.LFE546:
	.section	.gcc_except_table
.LLSDA546:
	.byte	0xff
	.byte	0xff
	.byte	0x1
	.uleb128 .LLSDACSE546-.LLSDACSB546
.LLSDACSB546:
	.uleb128 .LEHB2-.LFB546
	.uleb128 .LEHE2-.LEHB2
	.uleb128 .L63-.LFB546
	.uleb128 0
	.uleb128 .LEHB3-.LFB546
	.uleb128 .LEHE3-.LEHB3
	.uleb128 0
	.uleb128 0
.LLSDACSE546:
	.section	".text"
	.size	_ZNK7wString6toUTF8Ev, .-_ZNK7wString6toUTF8Ev
	.align 2
	.globl _Z7utf8LenPKc
	.type	_Z7utf8LenPKc, @function
_Z7utf8LenPKc:
.LFB547:
	.loc 1 116 0
	.cfi_startproc
.LVL111:
	.loc 1 116 0
	mr 8,3
.LBB1012:
.LBB1013:
	.loc 1 119 0
	li 9,0
	lbzx 0,8,9
	li 11,1
	.loc 1 145 0
	addi 3,11,-1
.LVL112:
	.loc 1 119 0
	cmpwi 7,0,0
	beq- 7,.L101
.L93:
	.loc 1 121 0
	rlwinm 10,0,0,24,28
	cmpwi 7,10,240
	beq- 7,.L102
	.loc 1 128 0
	rlwinm 10,0,0,24,27
	cmpwi 7,10,224
	beq- 7,.L103
	.loc 1 135 0
	rlwinm 10,0,0,24,26
	cmpwi 7,10,192
	beq- 7,.L104
	.loc 1 142 0
	andi. 10,0,128
	bne- 0,.L100
.LVL113:
	.loc 1 145 0
	addi 9,9,1
.LVL114:
	addi 11,11,1
.LVL115:
.L105:
	.loc 1 119 0
	lbzx 0,8,9
	.loc 1 145 0
	addi 3,11,-1
	.loc 1 119 0
	cmpwi 7,0,0
	bne+ 7,.L93
.L101:
	blr
.L102:
	.loc 1 123 0
	add 10,8,9
	lbz 0,1(10)
	rlwinm 0,0,0,24,25
	cmpwi 7,0,128
	bne- 7,.L99
	.loc 1 123 0 is_stmt 0 discriminator 1
	lbz 0,2(10)
	rlwinm 0,0,0,24,25
	cmpwi 7,0,128
	bne- 7,.L99
	.loc 1 123 0 discriminator 2
	lbz 0,3(10)
	rlwinm 0,0,0,24,25
	cmpwi 7,0,128
	bne- 7,.L99
.LVL116:
	.loc 1 126 0 is_stmt 1
	addi 9,9,4
.LVL117:
	.loc 1 145 0
	addi 11,11,1
.LVL118:
	b .L105
.LVL119:
.L103:
	.loc 1 130 0
	add 10,8,9
	lbz 0,1(10)
	rlwinm 0,0,0,24,25
	cmpwi 7,0,128
	bne- 7,.L99
	.loc 1 130 0 is_stmt 0 discriminator 1
	lbz 0,2(10)
	rlwinm 0,0,0,24,25
	cmpwi 7,0,128
	bne- 7,.L99
.LVL120:
	.loc 1 133 0 is_stmt 1
	addi 9,9,3
.LVL121:
	.loc 1 145 0
	addi 11,11,1
.LVL122:
	b .L105
.LVL123:
.L104:
	.loc 1 137 0
	add 10,8,9
	lbz 0,1(10)
	rlwinm 0,0,0,24,25
	cmpwi 7,0,128
	bne- 7,.L99
.LVL124:
	.loc 1 140 0
	addi 9,9,2
.LVL125:
	.loc 1 145 0
	addi 11,11,1
.LVL126:
	b .L105
.LVL127:
.L99:
	.loc 1 138 0
	li 3,0
	blr
.L100:
	.loc 1 148 0
	li 3,0
.LBE1013:
.LBE1012:
	.loc 1 151 0
	blr
	.cfi_endproc
.LFE547:
	.size	_Z7utf8LenPKc, .-_Z7utf8LenPKc
	.align 2
	.globl _ZN7wString8fromUTF8EPKc
	.type	_ZN7wString8fromUTF8EPKc, @function
_ZN7wString8fromUTF8EPKc:
.LFB545:
	.loc 1 37 0
	.cfi_startproc
.LVL128:
	stwu 1,-32(1)
.LCFI12:
	.cfi_def_cfa_offset 32
	mflr 0
	stw 31,28(1)
	mr 31,3
	.cfi_offset 31, -4
	.cfi_register 65, 0
.LBB1159:
	.loc 1 38 0
	mr 3,4
.LVL129:
.LBE1159:
	.loc 1 37 0
	stw 0,36(1)
	stw 29,20(1)
	stw 30,24(1)
	mr 30,4
	.cfi_offset 30, -8
	.cfi_offset 29, -12
	.cfi_offset 65, 4
	stw 27,12(1)
	stw 28,16(1)
.LBB1330:
	.loc 1 38 0
	.cfi_offset 28, -16
	.cfi_offset 27, -20
	bl _Z7utf8LenPKc
.LVL130:
.LBB1160:
.LBB1161:
.LBB1162:
.LBB1163:
	.loc 2 711 0
	lwz 9,0(31)
.LBE1163:
.LBE1162:
.LBE1161:
.LBE1160:
	.loc 1 38 0
	mr 29,3
.LVL131:
.LBB1165:
.LBB1164:
	.loc 2 796 0
	li 4,0
	mr 3,31
.LVL132:
	lwz 5,-12(9)
	li 6,0
	bl _ZNSbIwSt11char_traitsIwESaIwEE9_M_mutateEjjj
.LBE1164:
.LBE1165:
	.loc 1 41 0
	cmpwi 7,29,0
	bne- 7,.L127
.LVL133:
.L106:
.LBE1330:
	.loc 1 67 0
	lwz 0,36(1)
	lwz 27,12(1)
	mtlr 0
	lwz 28,16(1)
	lwz 29,20(1)
	lwz 30,24(1)
.LVL134:
	lwz 31,28(1)
.LVL135:
	addi 1,1,32
	.cfi_remember_state
.LCFI13:
	.cfi_def_cfa_offset 0
	.cfi_restore 31
	.cfi_restore 30
	.cfi_restore 29
	.cfi_restore 28
	.cfi_restore 27
	blr
.LVL136:
.L127:
.LCFI14:
	.cfi_restore_state
.LBB1331:
	.loc 1 43 0
	mr 3,31
	mr 4,29
	bl _ZNSbIwSt11char_traitsIwESaIwEE7reserveEj
.LVL137:
.LBB1166:
	.loc 1 44 0
	li 28,0
.LVL138:
.L126:
	.loc 1 44 0 is_stmt 0 discriminator 1
	lbzx 29,30,28
	cmpwi 7,29,0
	beq- 7,.L106
	.loc 1 46 0 is_stmt 1
	rlwinm 0,29,0,24,28
	cmpwi 7,0,240
	beq- 7,.L128
	.loc 1 51 0
	rlwinm 0,29,0,24,27
	cmpwi 7,0,224
	beq- 7,.L129
	.loc 1 56 0
	rlwinm 0,29,0,24,26
.LBB1167:
.LBB1168:
.LBB1169:
.LBB1170:
.LBB1171:
.LBB1172:
.LBB1173:
	.loc 2 288 0
	lwz 9,0(31)
.LBE1173:
.LBE1172:
.LBE1171:
.LBE1170:
.LBE1169:
.LBE1168:
.LBE1167:
	.loc 1 56 0
	cmpwi 7,0,192
	beq- 7,.L130
.LVL139:
.LBB1206:
.LBB1207:
.LBB1208:
.LBB1209:
	.loc 2 711 0
	lwz 11,-12(9)
.LBE1209:
.LBE1208:
	.loc 2 1046 0
	lwz 0,-8(9)
	.loc 2 1045 0
	addi 27,11,1
.LVL140:
	.loc 2 1046 0
	cmplw 7,27,0
	bgt- 7,.L122
.LVL141:
	lwz 0,-4(9)
	cmpwi 7,0,0
	ble- 7,.L123
.L122:
	.loc 2 1047 0
	mr 3,31
	mr 4,27
	bl _ZNSbIwSt11char_traitsIwESaIwEE7reserveEj
	lwz 9,0(31)
	lwz 11,-12(9)
.L123:
.LVL142:
.LBB1210:
.LBB1211:
	.loc 2 205 0
	lis 8,_ZNSbIwSt11char_traitsIwESaIwEE4_Rep20_S_empty_rep_storageE@ha
.LBE1211:
.LBE1210:
	.loc 2 1049 0
	addi 10,9,-12
.LBB1225:
.LBB1220:
	.loc 2 205 0
	la 0,_ZNSbIwSt11char_traitsIwESaIwEE4_Rep20_S_empty_rep_storageE@l(8)
.LBE1220:
.LBE1225:
.LBB1226:
.LBB1227:
	.loc 3 316 0
	slwi 11,11,2
.LVL143:
.LBE1227:
.LBE1226:
.LBB1229:
.LBB1221:
	.loc 2 205 0
	cmpw 7,10,0
.LBE1221:
.LBE1229:
.LBB1230:
.LBB1228:
	.loc 3 316 0
	stwx 29,9,11
.LVL144:
.LBE1228:
.LBE1230:
.LBB1231:
.LBB1222:
	.loc 2 205 0
	bne- 7,.L131
.LBE1222:
.LBE1231:
.LBE1207:
.LBE1206:
	.loc 1 64 0
	addi 28,28,1
.LVL145:
	b .L126
.LVL146:
.L130:
.LBB1236:
.LBB1200:
.LBB1175:
.LBB1174:
	.loc 2 711 0
	lwz 11,-12(9)
.LBE1174:
.LBE1175:
.LBE1200:
.LBE1236:
	.loc 1 58 0
	add 10,30,28
.LBB1237:
.LBB1201:
	.loc 2 1046 0
	lwz 0,-8(9)
.LBE1201:
.LBE1237:
	.loc 1 58 0
	rlwinm 29,29,6,21,25
.LBB1238:
.LBB1202:
	.loc 2 1045 0
	addi 27,11,1
	.loc 2 1046 0
	cmplw 7,27,0
.LBE1202:
.LBE1238:
	.loc 1 58 0
	lbz 0,1(10)
	rlwinm 0,0,0,26,31
	or 29,0,29
.LVL147:
.LBB1239:
.LBB1203:
	.loc 2 1046 0
	bgt- 7,.L119
.LVL148:
	lwz 0,-4(9)
	cmpwi 7,0,0
	ble- 7,.L120
.L119:
	.loc 2 1047 0
	mr 3,31
	mr 4,27
	bl _ZNSbIwSt11char_traitsIwESaIwEE7reserveEj
	lwz 9,0(31)
	lwz 11,-12(9)
.L120:
.LVL149:
.LBB1176:
.LBB1177:
	.loc 2 205 0
	lis 8,_ZNSbIwSt11char_traitsIwESaIwEE4_Rep20_S_empty_rep_storageE@ha
.LBE1177:
.LBE1176:
	.loc 2 1049 0
	addi 10,9,-12
.LBB1191:
.LBB1186:
	.loc 2 205 0
	la 0,_ZNSbIwSt11char_traitsIwESaIwEE4_Rep20_S_empty_rep_storageE@l(8)
.LBE1186:
.LBE1191:
.LBB1192:
.LBB1193:
	.loc 3 316 0
	slwi 11,11,2
.LVL150:
.LBE1193:
.LBE1192:
.LBB1195:
.LBB1187:
	.loc 2 205 0
	cmpw 7,10,0
.LBE1187:
.LBE1195:
.LBB1196:
.LBB1194:
	.loc 3 316 0
	stwx 29,9,11
.LVL151:
.LBE1194:
.LBE1196:
.LBB1197:
.LBB1188:
	.loc 2 205 0
	bne- 7,.L132
.LBE1188:
.LBE1197:
.LBE1203:
.LBE1239:
	.loc 1 59 0
	addi 28,28,2
.LVL152:
	b .L126
.LVL153:
.L128:
.LBB1240:
.LBB1241:
.LBB1242:
.LBB1243:
.LBB1244:
.LBB1245:
.LBB1246:
	.loc 2 288 0
	lwz 9,0(31)
.LBE1246:
.LBE1245:
.LBE1244:
.LBE1243:
.LBE1242:
.LBE1241:
.LBE1240:
	.loc 1 48 0
	add 11,30,28
	lbz 7,3(11)
	rlwinm 29,29,18,11,13
.LBB1279:
.LBB1273:
.LBB1248:
.LBB1247:
	.loc 2 711 0
	lwz 10,-12(9)
.LBE1247:
.LBE1248:
	.loc 2 1046 0
	lwz 0,-8(9)
.LBE1273:
.LBE1279:
	.loc 1 48 0
	rlwinm 7,7,0,26,31
.LBB1280:
.LBB1274:
	.loc 2 1045 0
	addi 27,10,1
.LBE1274:
.LBE1280:
	.loc 1 48 0
	lbz 8,1(11)
.LBB1281:
.LBB1275:
	.loc 2 1046 0
	cmplw 7,27,0
.LBE1275:
.LBE1281:
	.loc 1 48 0
	lbz 0,2(11)
	or 29,7,29
	rlwinm 11,8,12,14,19
	or 29,29,11
	rlwinm 0,0,6,20,25
	or 29,29,0
.LVL154:
.LBB1282:
.LBB1276:
	.loc 2 1046 0
	bgt- 7,.L110
.LVL155:
	lwz 0,-4(9)
	cmpwi 7,0,0
	ble- 7,.L111
.L110:
	.loc 2 1047 0
	mr 3,31
	mr 4,27
	bl _ZNSbIwSt11char_traitsIwESaIwEE7reserveEj
	lwz 9,0(31)
	lwz 10,-12(9)
.L111:
.LVL156:
.LBB1249:
.LBB1250:
	.loc 2 205 0
	lis 8,_ZNSbIwSt11char_traitsIwESaIwEE4_Rep20_S_empty_rep_storageE@ha
.LBE1250:
.LBE1249:
	.loc 2 1049 0
	addi 11,9,-12
.LBB1264:
.LBB1259:
	.loc 2 205 0
	la 0,_ZNSbIwSt11char_traitsIwESaIwEE4_Rep20_S_empty_rep_storageE@l(8)
.LBE1259:
.LBE1264:
.LBB1265:
.LBB1266:
	.loc 3 316 0
	slwi 10,10,2
.LVL157:
.LBE1266:
.LBE1265:
.LBB1268:
.LBB1260:
	.loc 2 205 0
	cmpw 7,11,0
.LBE1260:
.LBE1268:
.LBB1269:
.LBB1267:
	.loc 3 316 0
	stwx 29,9,10
.LVL158:
.LBE1267:
.LBE1269:
.LBB1270:
.LBB1261:
	.loc 2 205 0
	bne- 7,.L133
.LBE1261:
.LBE1270:
.LBE1276:
.LBE1282:
	.loc 1 49 0
	addi 28,28,4
.LVL159:
	b .L126
.LVL160:
.L129:
.LBB1283:
.LBB1284:
.LBB1285:
.LBB1286:
.LBB1287:
.LBB1288:
.LBB1289:
	.loc 2 288 0
	lwz 9,0(31)
.LBE1289:
.LBE1288:
.LBE1287:
.LBE1286:
.LBE1285:
.LBE1284:
.LBE1283:
	.loc 1 53 0
	add 10,30,28
	lbz 8,2(10)
	rlwinm 29,29,12,16,19
.LBB1320:
.LBB1316:
.LBB1291:
.LBB1290:
	.loc 2 711 0
	lwz 11,-12(9)
.LBE1290:
.LBE1291:
	.loc 2 1046 0
	lwz 0,-8(9)
	.loc 2 1045 0
	addi 27,11,1
	.loc 2 1046 0
	cmplw 7,27,0
.LBE1316:
.LBE1320:
	.loc 1 53 0
	lbz 0,1(10)
	rlwinm 10,8,0,26,31
	or 29,10,29
	rlwinm 0,0,6,20,25
	or 29,29,0
.LVL161:
.LBB1321:
.LBB1317:
	.loc 2 1046 0
	bgt- 7,.L115
.LVL162:
	lwz 0,-4(9)
	cmpwi 7,0,0
	ble- 7,.L116
.L115:
	.loc 2 1047 0
	mr 3,31
	mr 4,27
	bl _ZNSbIwSt11char_traitsIwESaIwEE7reserveEj
	lwz 9,0(31)
	lwz 11,-12(9)
.L116:
.LVL163:
.LBB1292:
.LBB1293:
	.loc 2 205 0
	lis 8,_ZNSbIwSt11char_traitsIwESaIwEE4_Rep20_S_empty_rep_storageE@ha
.LBE1293:
.LBE1292:
	.loc 2 1049 0
	addi 10,9,-12
.LBB1307:
.LBB1302:
	.loc 2 205 0
	la 0,_ZNSbIwSt11char_traitsIwESaIwEE4_Rep20_S_empty_rep_storageE@l(8)
.LBE1302:
.LBE1307:
.LBB1308:
.LBB1309:
	.loc 3 316 0
	slwi 11,11,2
.LVL164:
.LBE1309:
.LBE1308:
.LBB1311:
.LBB1303:
	.loc 2 205 0
	cmpw 7,10,0
.LBE1303:
.LBE1311:
.LBB1312:
.LBB1310:
	.loc 3 316 0
	stwx 29,9,11
.LVL165:
.LBE1310:
.LBE1312:
.LBB1313:
.LBB1304:
	.loc 2 205 0
	bne- 7,.L134
.LBE1304:
.LBE1313:
.LBE1317:
.LBE1321:
	.loc 1 54 0
	addi 28,28,3
.LVL166:
	b .L126
.LVL167:
.L131:
.LBB1322:
.LBB1234:
.LBB1232:
.LBB1223:
.LBB1212:
.LBB1213:
	.loc 2 199 0
	li 0,0
.LBE1213:
.LBE1212:
.LBB1215:
.LBB1216:
	.loc 3 316 0
	slwi 11,27,2
.LBE1216:
.LBE1215:
.LBB1218:
.LBB1214:
	.loc 2 199 0
	stw 0,-4(9)
.LBE1214:
.LBE1218:
.LBE1223:
.LBE1232:
.LBE1234:
.LBE1322:
	.loc 1 64 0
	addi 28,28,1
.LVL168:
.LBB1323:
.LBB1235:
.LBB1233:
.LBB1224:
	.loc 2 209 0
	stw 27,-12(9)
.LVL169:
.LBB1219:
.LBB1217:
	.loc 3 316 0
	stwx 0,9,11
	b .L126
.LVL170:
.L132:
.LBE1217:
.LBE1219:
.LBE1224:
.LBE1233:
.LBE1235:
.LBE1323:
.LBB1324:
.LBB1204:
.LBB1198:
.LBB1189:
.LBB1178:
.LBB1179:
	.loc 2 199 0
	li 0,0
.LBE1179:
.LBE1178:
.LBB1181:
.LBB1182:
	.loc 3 316 0
	slwi 11,27,2
.LBE1182:
.LBE1181:
.LBB1184:
.LBB1180:
	.loc 2 199 0
	stw 0,-4(9)
.LBE1180:
.LBE1184:
.LBE1189:
.LBE1198:
.LBE1204:
.LBE1324:
	.loc 1 59 0
	addi 28,28,2
.LVL171:
.LBB1325:
.LBB1205:
.LBB1199:
.LBB1190:
	.loc 2 209 0
	stw 27,-12(9)
.LVL172:
.LBB1185:
.LBB1183:
	.loc 3 316 0
	stwx 0,9,11
	b .L126
.LVL173:
.L133:
.LBE1183:
.LBE1185:
.LBE1190:
.LBE1199:
.LBE1205:
.LBE1325:
.LBB1326:
.LBB1277:
.LBB1271:
.LBB1262:
.LBB1251:
.LBB1252:
	.loc 2 199 0
	li 0,0
.LBE1252:
.LBE1251:
.LBB1254:
.LBB1255:
	.loc 3 316 0
	slwi 11,27,2
.LVL174:
.LBE1255:
.LBE1254:
.LBB1257:
.LBB1253:
	.loc 2 199 0
	stw 0,-4(9)
.LBE1253:
.LBE1257:
.LBE1262:
.LBE1271:
.LBE1277:
.LBE1326:
	.loc 1 49 0
	addi 28,28,4
.LVL175:
.LBB1327:
.LBB1278:
.LBB1272:
.LBB1263:
	.loc 2 209 0
	stw 27,-12(9)
.LVL176:
.LBB1258:
.LBB1256:
	.loc 3 316 0
	stwx 0,9,11
	b .L126
.LVL177:
.L134:
.LBE1256:
.LBE1258:
.LBE1263:
.LBE1272:
.LBE1278:
.LBE1327:
.LBB1328:
.LBB1318:
.LBB1314:
.LBB1305:
.LBB1294:
.LBB1295:
	.loc 2 199 0
	li 0,0
.LBE1295:
.LBE1294:
.LBB1297:
.LBB1298:
	.loc 3 316 0
	slwi 11,27,2
.LBE1298:
.LBE1297:
.LBB1300:
.LBB1296:
	.loc 2 199 0
	stw 0,-4(9)
.LBE1296:
.LBE1300:
.LBE1305:
.LBE1314:
.LBE1318:
.LBE1328:
	.loc 1 54 0
	addi 28,28,3
.LVL178:
.LBB1329:
.LBB1319:
.LBB1315:
.LBB1306:
	.loc 2 209 0
	stw 27,-12(9)
.LVL179:
.LBB1301:
.LBB1299:
	.loc 3 316 0
	stwx 0,9,11
	b .L126
.LBE1299:
.LBE1301:
.LBE1306:
.LBE1315:
.LBE1319:
.LBE1329:
.LBE1166:
.LBE1331:
	.cfi_endproc
.LFE545:
	.size	_ZN7wString8fromUTF8EPKc, .-_ZN7wString8fromUTF8EPKc
	.align 2
	.globl _Z10wcscasestrPKwS0_
	.type	_Z10wcscasestrPKwS0_, @function
_Z10wcscasestrPKwS0_:
.LFB548:
	.loc 1 154 0
	.cfi_startproc
.LVL180:
	mflr 0
	stwu 1,-24(1)
.LCFI15:
	.cfi_def_cfa_offset 24
	.cfi_register 65, 0
	stw 30,16(1)
	mr 30,4
	.cfi_offset 30, -8
	stw 0,28(1)
	stw 31,20(1)
	mr 31,3
	.cfi_offset 31, -4
	.cfi_offset 65, 4
.LBB1332:
	.loc 1 155 0
	lwz 0,0(4)
.LBE1332:
	.loc 1 154 0
	stw 28,8(1)
.LBB1335:
	.loc 1 155 0
	cmpwi 7,0,0
.LBE1335:
	.loc 1 154 0
	stw 29,12(1)
.LBB1336:
	.loc 1 155 0
	bne- 7,.L142
	.cfi_offset 29, -12
	.cfi_offset 28, -16
.LVL181:
.L136:
.LBE1336:
	.loc 1 170 0
	lwz 0,28(1)
	mr 3,31
	lwz 28,8(1)
	mtlr 0
	lwz 29,12(1)
	lwz 30,16(1)
.LVL182:
	lwz 31,20(1)
	addi 1,1,24
	.cfi_remember_state
.LCFI16:
	.cfi_def_cfa_offset 0
	.cfi_restore 31
	.cfi_restore 30
	.cfi_restore 29
	.cfi_restore 28
	blr
.LVL183:
.L142:
.LCFI17:
	.cfi_restore_state
.LBB1337:
	.loc 1 158 0
	bl wcslen
.LVL184:
	mr 28,3
.LVL185:
	.loc 1 159 0
	mr 3,30
.LVL186:
	bl wcslen
	.loc 1 161 0
	cmpw 7,28,3
	.loc 1 159 0
	mr 29,3
.LVL187:
	.loc 1 161 0
	blt- 7,.L139
	.loc 1 164 0
	subf 28,3,28
.LVL188:
	slwi 28,28,2
	add 28,31,28
.LVL189:
.LBB1333:
	.loc 1 165 0
	cmplw 7,31,28
	bgt- 7,.L139
.LVL190:
.L137:
	.loc 1 166 0
	mr 3,31
	mr 4,30
	mr 5,29
	bl wcsncasecmp
	cmpwi 7,3,0
	beq- 7,.L136
	.loc 1 165 0
	addi 31,31,4
.LVL191:
	cmplw 7,28,31
	bge+ 7,.L137
.LVL192:
.L139:
.LBE1333:
.LBE1337:
	.loc 1 170 0
	lwz 0,28(1)
.LBB1338:
.LBB1334:
	.loc 1 169 0
	li 31,0
.LBE1334:
.LBE1338:
	.loc 1 170 0
	mr 3,31
	lwz 28,8(1)
	mtlr 0
	lwz 29,12(1)
.LVL193:
	lwz 30,16(1)
.LVL194:
	lwz 31,20(1)
	addi 1,1,24
	.cfi_restore 28
	.cfi_restore 29
	.cfi_restore 30
	.cfi_restore 31
.LCFI18:
	.cfi_def_cfa_offset 0
	blr
	.cfi_endproc
.LFE548:
	.size	_Z10wcscasestrPKwS0_, .-_Z10wcscasestrPKwS0_
	.globl _ZN7wStringC1EPKw
	.set	_ZN7wStringC1EPKw,_ZN7wStringC2EPKw
	.globl _ZN7wStringC1ERKSbIwSt11char_traitsIwESaIwEE
	.set	_ZN7wStringC1ERKSbIwSt11char_traitsIwESaIwEE,_ZN7wStringC2ERKSbIwSt11char_traitsIwESaIwEE
	.globl _ZN7wStringC1ERKSs
	.set	_ZN7wStringC1ERKSs,_ZN7wStringC2ERKSs
.Letext0:
	.file 4 "d:\\devkitpro\\devkitppc\\bin\\../lib/gcc/powerpc-eabi/4.6.3/../../../../powerpc-eabi/include/c++/4.6.3/cwchar"
	.file 5 "d:\\devkitpro\\devkitppc\\bin\\../lib/gcc/powerpc-eabi/4.6.3/../../../../powerpc-eabi/include/c++/4.6.3/powerpc-eabi/bits/c++config.h"
	.file 6 "d:\\devkitpro\\devkitppc\\bin\\../lib/gcc/powerpc-eabi/4.6.3/../../../../powerpc-eabi/include/c++/4.6.3/clocale"
	.file 7 "d:\\devkitpro\\devkitppc\\bin\\../lib/gcc/powerpc-eabi/4.6.3/../../../../powerpc-eabi/include/c++/4.6.3/bits/stringfwd.h"
	.file 8 "d:\\devkitpro\\devkitppc\\bin\\../lib/gcc/powerpc-eabi/4.6.3/../../../../powerpc-eabi/include/c++/4.6.3/ext/new_allocator.h"
	.file 9 "d:\\devkitpro\\devkitppc\\bin\\../lib/gcc/powerpc-eabi/4.6.3/../../../../powerpc-eabi/include/c++/4.6.3/bits/cpp_type_traits.h"
	.file 10 "d:\\devkitpro\\devkitppc\\bin\\../lib/gcc/powerpc-eabi/4.6.3/../../../../powerpc-eabi/include/c++/4.6.3/debug/debug.h"
	.file 11 "d:\\devkitpro\\devkitppc\\bin\\../lib/gcc/powerpc-eabi/4.6.3/../../../../powerpc-eabi/include/machine/_types.h"
	.file 12 "d:\\devkitpro\\devkitppc\\bin\\../lib/gcc/powerpc-eabi/4.6.3/../../../../powerpc-eabi/include/sys/lock.h"
	.file 13 "d:\\devkitpro\\devkitppc\\bin\\../lib/gcc/powerpc-eabi/4.6.3/include/stddef.h"
	.file 14 "d:\\devkitpro\\devkitppc\\bin\\../lib/gcc/powerpc-eabi/4.6.3/../../../../powerpc-eabi/include/sys/_types.h"
	.file 15 "d:\\devkitpro\\devkitppc\\bin\\../lib/gcc/powerpc-eabi/4.6.3/../../../../powerpc-eabi/include/sys/reent.h"
	.file 16 "<built-in>"
	.file 17 "d:\\devkitpro\\devkitppc\\bin\\../lib/gcc/powerpc-eabi/4.6.3/../../../../powerpc-eabi/include/wchar.h"
	.file 18 "d:\\devkitpro\\devkitppc\\bin\\../lib/gcc/powerpc-eabi/4.6.3/../../../../powerpc-eabi/include/c++/4.6.3/bits/allocator.h"
	.file 19 "d:\\devkitpro\\devkitppc\\bin\\../lib/gcc/powerpc-eabi/4.6.3/../../../../powerpc-eabi/include/locale.h"
	.file 20 "d:\\devkitpro\\devkitppc\\bin\\../lib/gcc/powerpc-eabi/4.6.3/../../../../powerpc-eabi/include/c++/4.6.3/powerpc-eabi/bits/atomic_word.h"
	.file 21 "d:\\devkitpro\\devkitppc\\bin\\../lib/gcc/powerpc-eabi/4.6.3/../../../../powerpc-eabi/include/c++/4.6.3/ext/numeric_traits.h"
	.file 22 "d:\\devkitpro\\devkitppc\\bin\\../lib/gcc/powerpc-eabi/4.6.3/../../../../powerpc-eabi/include/c++/4.6.3/bits/basic_string.tcc"
	.file 23 "d:/Projects/SaveGameManager/savegame-manager-gx/trunk/source/TextOperations/wstring.hpp"
	.file 24 "d:\\devkitpro\\devkitppc\\bin\\../lib/gcc/powerpc-eabi/4.6.3/../../../../powerpc-eabi/include/c++/4.6.3/ext/atomicity.h"