   1              		.file	"ZipFile.cpp"
   2              		.section	".text"
   3              	.Ltext0:
   4              		.align 2
   5              		.globl _ZN7ZipFile10SwitchModeEs
   6              		.type	_ZN7ZipFile10SwitchModeEs, @function
   7              	_ZN7ZipFile10SwitchModeEs:
   8              	.LFB1486:
   9              		.file 1 "d:/Projects/SaveGameManager/savegame-manager-gx/trunk/source/ArchiveOperations/ZipFile.cp
  10              		.loc 1 58 0
  11              		.cfi_startproc
  12              	.LVL0:
  13              		.loc 1 59 0
  14 0000 2F840001 		cmpwi 7,4,1
  15              		.loc 1 58 0
  16 0004 7C0802A6 		mflr 0
  17 0008 9421FFE8 		stwu 1,-24(1)
  18              	.LCFI0:
  19              		.cfi_def_cfa_offset 24
  20              		.cfi_register 65, 0
  21 000c 93E10014 		stw 31,20(1)
  22 0010 7C7F1B78 		mr 31,3
  23              		.cfi_offset 31, -4
  24 0014 9001001C 		stw 0,28(1)
  25              		.loc 1 59 0
  26 0018 419E0078 		beq- 7,.L12
  27              		.cfi_offset 65, 4
  28              		.loc 1 72 0
  29 001c 2F840000 		cmpwi 7,4,0
  30 0020 409E0050 		bne- 7,.L13
  31              	.LVL1:
  32              	.L6:
  33              		.loc 1 74 0
  34 0024 807F0004 		lwz 3,4(31)
  35 0028 2F830000 		cmpwi 7,3,0
  36 002c 419E0018 		beq- 7,.L7
  37              		.loc 1 76 0
  38 0030 90810008 		stw 4,8(1)
  39 0034 48000001 		bl unzClose
  40              	.LVL2:
  41              		.loc 1 77 0
  42 0038 38000000 		li 0,0
  43 003c 80810008 		lwz 4,8(1)
  44 0040 901F0004 		stw 0,4(31)
  45              	.L7:
  46              		.loc 1 80 0
  47 0044 807F0000 		lwz 3,0(31)
  48 0048 2F830000 		cmpwi 7,3,0
  49 004c 419E0080 		beq- 7,.L14
  50              	.L8:
  51              		.loc 1 87 0
  52 0050 8001001C 		lwz 0,28(1)
  53              		.loc 1 83 0
  54 0054 7C600026 		mfcr 3
  55 0058 5463FFFE 		rlwinm 3,3,31,1
  56              		.loc 1 87 0
  57 005c 83E10014 		lwz 31,20(1)
  58              	.LVL3:
  59 0060 7C0803A6 		mtlr 0
  60              		.loc 1 83 0
  61 0064 68630001 		xori 3,3,1
  62              		.loc 1 87 0
  63 0068 38210018 		addi 1,1,24
  64              		.cfi_remember_state
  65              	.LCFI1:
  66              		.cfi_def_cfa_offset 0
  67              		.cfi_restore 31
  68 006c 4E800020 		blr
  69              	.LVL4:
  70              	.L13:
  71              	.LCFI2:
  72              		.cfi_restore_state
  73              		.loc 1 72 0 discriminator 1
  74 0070 2F840002 		cmpwi 7,4,2
  75              		.loc 1 86 0 discriminator 1
  76 0074 38600000 		li 3,0
  77              	.LVL5:
  78              		.loc 1 72 0 discriminator 1
  79 0078 41BEFFAC 		beq- 7,.L6
  80              		.loc 1 87 0
  81 007c 8001001C 		lwz 0,28(1)
  82 0080 83E10014 		lwz 31,20(1)
  83              	.LVL6:
  84 0084 7C0803A6 		mtlr 0
  85 0088 38210018 		addi 1,1,24
  86              		.cfi_remember_state
  87              		.cfi_restore 31
  88              	.LCFI3:
  89              		.cfi_def_cfa_offset 0
  90 008c 4E800020 		blr
  91              	.LVL7:
  92              	.L12:
  93              	.LCFI4:
  94              		.cfi_restore_state
  95              	.LBB2676:
  96              	.LBB2677:
  97              		.loc 1 61 0
  98 0090 80630000 		lwz 3,0(3)
  99              	.LVL8:
 100 0094 2F830000 		cmpwi 7,3,0
 101 0098 419E0014 		beq- 7,.L3
 102              		.loc 1 63 0
 103 009c 38800000 		li 4,0
 104              	.LVL9:
 105 00a0 48000001 		bl zipClose
 106              		.loc 1 64 0
 107 00a4 38000000 		li 0,0
 108 00a8 901F0000 		stw 0,0(31)
 109              	.L3:
 110              		.loc 1 67 0
 111 00ac 807F0004 		lwz 3,4(31)
 112 00b0 2F830000 		cmpwi 7,3,0
 113 00b4 409EFF9C 		bne+ 7,.L8
 114              	.LVL10:
 115              		.loc 1 68 0
 116 00b8 807F0010 		lwz 3,16(31)
 117 00bc 48000001 		bl unzOpen
 118 00c0 907F0004 		stw 3,4(31)
 119 00c4 2F830000 		cmpwi 7,3,0
 120 00c8 4BFFFF88 		b .L8
 121              	.LVL11:
 122              	.L14:
 123              	.LBE2677:
 124              	.LBE2676:
 125              		.loc 1 81 0
 126 00cc 807F0010 		lwz 3,16(31)
 127 00d0 48000001 		bl zipOpen
 128 00d4 907F0000 		stw 3,0(31)
 129 00d8 2F830000 		cmpwi 7,3,0
 130 00dc 4BFFFF74 		b .L8
 131              		.cfi_endproc
 132              	.LFE1486:
 133              		.size	_ZN7ZipFile10SwitchModeEs, .-_ZN7ZipFile10SwitchModeEs
 134              		.align 2
 135              		.globl _ZN7ZipFile9ClearListEv
 136              		.type	_ZN7ZipFile9ClearListEv, @function
 137              	_ZN7ZipFile9ClearListEv:
 138              	.LFB1487:
 139              		.loc 1 90 0
 140              		.cfi_startproc
 141              	.LVL12:
 142 00e0 7C0802A6 		mflr 0
 143 00e4 9421FFE8 		stwu 1,-24(1)
 144              	.LCFI5:
 145              		.cfi_def_cfa_offset 24
 146              		.cfi_register 65, 0
 147 00e8 93C10010 		stw 30,16(1)
 148 00ec 7C7E1B78 		mr 30,3
 149              		.cfi_offset 30, -8
 150 00f0 9001001C 		stw 0,28(1)
 151 00f4 93A1000C 		stw 29,12(1)
 152              	.LBB2719:
 153              		.loc 1 685 0
 154 00f8 81230014 		lwz 9,20(3)
 155              	.LBB2720:
 156              	.LBB2721:
 157              		.file 2 "d:\\devkitpro\\devkitppc\\bin\\../lib/gcc/powerpc-eabi/4.6.3/../../../../powerpc-eabi/inc
 158              		.loc 2 571 0
 159 00fc 80030018 		lwz 0,24(3)
 160              		.cfi_offset 29, -12
 161              		.cfi_offset 65, 4
 162              	.LBE2721:
 163              	.LBE2720:
 164              	.LBE2719:
 165              		.loc 1 90 0
 166 0100 93E10014 		stw 31,20(1)
 167              	.LBB2726:
 168              	.LBB2724:
 169              	.LBB2722:
 170              		.loc 2 571 0
 171 0104 7C090050 		subf 0,9,0
 172              	.LBE2722:
 173              	.LBE2724:
 174              		.loc 1 91 0
 175 0108 540BF0BF 		srwi. 11,0,2
 176 010c 41820050 		beq- 0,.L16
 177              		.cfi_offset 31, -4
 178 0110 3BE00000 		li 31,0
 179              	.LVL13:
 180              	.L19:
 181              		.loc 1 89 0
 182 0114 57FD103A 		slwi 29,31,2
 183              		.loc 1 91 0
 184 0118 3BFF0001 		addi 31,31,1
 185              	.LVL14:
 186              		.loc 1 93 0
 187 011c 7D69E82E 		lwzx 11,9,29
 188 0120 806B0000 		lwz 3,0(11)
 189 0124 2F830000 		cmpwi 7,3,0
 190 0128 419E000C 		beq- 7,.L17
 191              		.loc 1 94 0
 192 012c 48000001 		bl _ZdaPv
 193 0130 813E0014 		lwz 9,20(30)
 194              	.L17:
 195              		.loc 1 96 0
 196 0134 7C69E82E 		lwzx 3,9,29
 197 0138 2F830000 		cmpwi 7,3,0
 198 013c 419E000C 		beq- 7,.L18
 199              		.loc 1 97 0
 200 0140 48000001 		bl _ZdlPv
 201 0144 813E0014 		lwz 9,20(30)
 202              	.L18:
 203              	.LVL15:
 204              	.LBB2725:
 205              	.LBB2723:
 206              		.loc 2 571 0
 207 0148 801E0018 		lwz 0,24(30)
 208 014c 7C090050 		subf 0,9,0
 209 0150 7C001670 		srawi 0,0,2
 210              	.LBE2723:
 211              	.LBE2725:
 212              		.loc 1 91 0
 213 0154 7F9F0040 		cmplw 7,31,0
 214 0158 419CFFBC 		blt+ 7,.L19
 215              	.LVL16:
 216              	.L16:
 217              	.LBE2726:
 218              	.LBB2727:
 219              	.LBB2728:
 220              	.LBB2729:
 221              	.LBB2730:
 222              	.LBB2731:
 223              	.LBB2732:
 224              		.loc 2 155 0
 225 015c 2F890000 		cmpwi 7,9,0
 226              	.LBE2732:
 227              	.LBE2731:
 228              	.LBE2730:
 229              	.LBE2729:
 230              	.LBE2728:
 231              	.LBE2727:
 232              	.LBB2740:
 233              	.LBB2741:
 234              	.LBB2742:
 235              		.file 3 "d:\\devkitpro\\devkitppc\\bin\\../lib/gcc/powerpc-eabi/4.6.3/../../../../powerpc-eabi/inc
 236              		.loc 3 129 0
 237 0160 38000000 		li 0,0
 238 0164 901E0014 		stw 0,20(30)
 239              	.LVL17:
 240              	.LBE2742:
 241              	.LBE2741:
 242              	.LBB2743:
 243              	.LBB2744:
 244 0168 901E0018 		stw 0,24(30)
 245              	.LVL18:
 246              	.LBE2744:
 247              	.LBE2743:
 248              	.LBB2745:
 249              	.LBB2746:
 250 016c 901E001C 		stw 0,28(30)
 251              	.LVL19:
 252              	.LBE2746:
 253              	.LBE2745:
 254              	.LBE2740:
 255              	.LBB2747:
 256              	.LBB2739:
 257              	.LBB2738:
 258              	.LBB2737:
 259              	.LBB2736:
 260              	.LBB2735:
 261              		.loc 2 155 0
 262 0170 419E000C 		beq- 7,.L15
 263              	.LVL20:
 264              	.LBB2733:
 265              	.LBB2734:
 266              		.file 4 "d:\\devkitpro\\devkitppc\\bin\\../lib/gcc/powerpc-eabi/4.6.3/../../../../powerpc-eabi/inc
 267              		.loc 4 98 0
 268 0174 7D234B78 		mr 3,9
 269 0178 48000001 		bl _ZdlPv
 270              	.LVL21:
 271              	.L15:
 272              	.LBE2734:
 273              	.LBE2733:
 274              	.LBE2735:
 275              	.LBE2736:
 276              	.LBE2737:
 277              	.LBE2738:
 278              	.LBE2739:
 279              	.LBE2747:
 280              		.loc 1 102 0
 281 017c 8001001C 		lwz 0,28(1)
 282 0180 83A1000C 		lwz 29,12(1)
 283 0184 7C0803A6 		mtlr 0
 284 0188 83C10010 		lwz 30,16(1)
 285              	.LVL22:
 286 018c 83E10014 		lwz 31,20(1)
 287 0190 38210018 		addi 1,1,24
 288              	.LCFI6:
 289              		.cfi_def_cfa_offset 0
 290              		.cfi_restore 31
 291              		.cfi_restore 30
 292              		.cfi_restore 29
 293 0194 4E800020 		blr
 294              		.cfi_endproc
 295              	.LFE1487:
 296              		.size	_ZN7ZipFile9ClearListEv, .-_ZN7ZipFile9ClearListEv
 297              		.align 2
 298              		.globl _ZN7ZipFileD2Ev
 299              		.type	_ZN7ZipFileD2Ev, @function
 300              	_ZN7ZipFileD2Ev:
 301              	.LFB1484:
 302              		.loc 1 48 0
 303              		.cfi_startproc
 304              		.cfi_personality 0,__gxx_personality_v0
 305              		.cfi_lsda 0,.LLSDA1484
 306              	.LVL23:
 307 0198 9421FFE0 		stwu 1,-32(1)
 308              	.LCFI7:
 309              		.cfi_def_cfa_offset 32
 310 019c 7C0802A6 		mflr 0
 311 01a0 93E1001C 		stw 31,28(1)
 312 01a4 7C7F1B78 		mr 31,3
 313              		.cfi_offset 31, -4
 314              		.cfi_register 65, 0
 315 01a8 90010024 		stw 0,36(1)
 316 01ac 93C10018 		stw 30,24(1)
 317              	.LBB2798:
 318              		.loc 1 50 0
 319              		.cfi_offset 30, -8
 320              		.cfi_offset 65, 4
 321 01b0 48000001 		bl _ZN7ZipFile9ClearListEv
 322              	.LVL24:
 323              		.loc 1 51 0
 324 01b4 807F0004 		lwz 3,4(31)
 325 01b8 2F830000 		cmpwi 7,3,0
 326 01bc 419E0008 		beq- 7,.L29
 327              	.LEHB0:
 328              		.loc 1 52 0
 329 01c0 48000001 		bl unzClose
 330              	.L29:
 331              		.loc 1 53 0
 332 01c4 807F0000 		lwz 3,0(31)
 333 01c8 2F830000 		cmpwi 7,3,0
 334 01cc 419E000C 		beq- 7,.L30
 335              		.loc 1 54 0
 336 01d0 38800000 		li 4,0
 337 01d4 48000001 		bl zipClose
 338              	.LEHE0:
 339              	.L30:
 340              	.LVL25:
 341              	.LBB2799:
 342              		.loc 1 685 0
 343 01d8 807F0014 		lwz 3,20(31)
 344              	.LVL26:
 345              	.LBB2800:
 346              	.LBB2801:
 347              	.LBB2802:
 348              	.LBB2803:
 349              	.LBB2804:
 350              		.loc 2 155 0
 351 01dc 2F830000 		cmpwi 7,3,0
 352 01e0 419E0008 		beq- 7,.L35
 353              	.LVL27:
 354              	.LBB2805:
 355              	.LBB2806:
 356              		.loc 4 98 0
 357 01e4 48000001 		bl _ZdlPv
 358              	.LVL28:
 359              	.L35:
 360              	.LBE2806:
 361              	.LBE2805:
 362              	.LBE2804:
 363              	.LBE2803:
 364              	.LBE2802:
 365              	.LBE2801:
 366              	.LBE2800:
 367              	.LBE2799:
 368              	.LBB2807:
 369              	.LBB2808:
 370              	.LBB2809:
 371              	.LBB2810:
 372              	.LBB2811:
 373              	.LBB2812:
 374              		.file 5 "d:\\devkitpro\\devkitppc\\bin\\../lib/gcc/powerpc-eabi/4.6.3/../../../../powerpc-eabi/inc
 375              		.loc 5 288 0
 376 01e8 813F0010 		lwz 9,16(31)
 377              	.LBE2812:
 378              	.LBE2811:
 379              	.LBE2810:
 380              	.LBB2813:
 381              	.LBB2814:
 382              		.loc 5 235 0
 383 01ec 3D600000 		lis 11,_ZNSs4_Rep20_S_empty_rep_storageE@ha
 384 01f0 380B0000 		la 0,_ZNSs4_Rep20_S_empty_rep_storageE@l(11)
 385              	.LBE2814:
 386              	.LBE2813:
 387              		.loc 5 534 0
 388 01f4 3869FFF4 		addi 3,9,-12
 389              	.LVL29:
 390              	.LBB2823:
 391              	.LBB2821:
 392              		.loc 5 235 0
 393 01f8 7F830000 		cmpw 7,3,0
 394 01fc 409E001C 		bne- 7,.L50
 395              	.LVL30:
 396              	.L28:
 397              	.LBE2821:
 398              	.LBE2823:
 399              	.LBE2809:
 400              	.LBE2808:
 401              	.LBE2807:
 402              	.LBE2798:
 403              		.loc 1 55 0
 404 0200 80010024 		lwz 0,36(1)
 405 0204 83C10018 		lwz 30,24(1)
 406 0208 7C0803A6 		mtlr 0
 407 020c 83E1001C 		lwz 31,28(1)
 408              	.LVL31:
 409 0210 38210020 		addi 1,1,32
 410              		.cfi_remember_state
 411              	.LCFI8:
 412              		.cfi_def_cfa_offset 0
 413              		.cfi_restore 31
 414              		.cfi_restore 30
 415 0214 4E800020 		blr
 416              	.LVL32:
 417              	.L50:
 418              	.LCFI9:
 419              		.cfi_restore_state
 420              	.LBB2836:
 421              	.LBB2827:
 422              	.LBB2826:
 423              	.LBB2825:
 424              	.LBB2824:
 425              	.LBB2822:
 426              	.LBB2815:
 427              	.LBB2816:
 428              	.LBB2817:
 429              		.file 6 "d:\\devkitpro\\devkitppc\\bin\\../lib/gcc/powerpc-eabi/4.6.3/../../../../powerpc-eabi/inc
 430              		.loc 6 66 0
 431 0218 8169FFFC 		lwz 11,-4(9)
 432              	.LVL33:
 433              	.LBE2817:
 434              	.LBE2816:
 435              	.LBE2815:
 436              		.loc 5 240 0
 437 021c 2F8B0000 		cmpwi 7,11,0
 438              	.LBB2820:
 439              	.LBB2819:
 440              	.LBB2818:
 441              		.loc 6 67 0
 442 0220 396BFFFF 		addi 11,11,-1
 443 0224 9169FFFC 		stw 11,-4(9)
 444              	.LBE2818:
 445              	.LBE2819:
 446              	.LBE2820:
 447              		.loc 5 240 0
 448 0228 419DFFD8 		bgt+ 7,.L28
 449              		.loc 5 244 0
 450 022c 38810008 		addi 4,1,8
 451 0230 48000001 		bl _ZNSs4_Rep10_M_destroyERKSaIcE
 452              	.LVL34:
 453 0234 4BFFFFCC 		b .L28
 454              	.LVL35:
 455              	.L49:
 456              	.LBE2822:
 457              	.LBE2824:
 458              	.LBE2825:
 459              	.LBE2826:
 460              	.LBE2827:
 461              	.LBB2828:
 462              		.loc 1 685 0
 463 0238 801F0014 		lwz 0,20(31)
 464 023c 7C7E1B78 		mr 30,3
 465              	.LVL36:
 466              	.LBB2829:
 467              	.LBB2830:
 468              	.LBB2831:
 469              	.LBB2832:
 470              	.LBB2833:
 471              		.loc 2 155 0
 472 0240 2F800000 		cmpwi 7,0,0
 473 0244 419E000C 		beq- 7,.L48
 474              	.LVL37:
 475              	.LBB2834:
 476              	.LBB2835:
 477              		.loc 4 98 0
 478 0248 7C030378 		mr 3,0
 479 024c 48000001 		bl _ZdlPv
 480              	.LVL38:
 481              	.L48:
 482              	.LBE2835:
 483              	.LBE2834:
 484              	.LBE2833:
 485              	.LBE2832:
 486              	.LBE2831:
 487              	.LBE2830:
 488              	.LBE2829:
 489              	.LBE2828:
 490              		.loc 1 48 0
 491 0250 387F0010 		addi 3,31,16
 492 0254 48000001 		bl _ZNSsD1Ev
 493 0258 7FC3F378 		mr 3,30
 494              	.LEHB1:
 495 025c 48000001 		bl _Unwind_Resume
 496              	.LEHE1:
 497              	.LBE2836:
 498              		.cfi_endproc
 499              	.LFE1484:
 500              		.globl __gxx_personality_v0
 501              		.section	.gcc_except_table,"a",@progbits
 502              	.LLSDA1484:
 503 0000 FF       		.byte	0xff
 504 0001 FF       		.byte	0xff
 505 0002 01       		.byte	0x1
 506 0003 0A       		.uleb128 .LLSDACSE1484-.LLSDACSB1484
 507              	.LLSDACSB1484:
 508 0004 28       		.uleb128 .LEHB0-.LFB1484
 509 0005 18       		.uleb128 .LEHE0-.LEHB0
 510 0006 A001     		.uleb128 .L49-.LFB1484
 511 0008 00       		.uleb128 0
 512 0009 C401     		.uleb128 .LEHB1-.LFB1484
 513 000b 04       		.uleb128 .LEHE1-.LEHB1
 514 000c 00       		.uleb128 0
 515 000d 00       		.uleb128 0
 516              	.LLSDACSE1484:
 517              		.section	".text"
 518              		.size	_ZN7ZipFileD2Ev, .-_ZN7ZipFileD2Ev
 519              		.align 2
 520              		.globl _ZN7ZipFile13GetFileStructEi
 521              		.type	_ZN7ZipFile13GetFileStructEi, @function
 522              	_ZN7ZipFile13GetFileStructEi:
 523              	.LFB1489:
 524              		.loc 1 154 0
 525              		.cfi_startproc
 526              	.LVL39:
 527              		.loc 1 155 0
 528 0260 2C040000 		cmpwi 0,4,0
 529              		.loc 1 154 0
 530 0264 7C691B78 		mr 9,3
 531              		.loc 1 156 0
 532 0268 38600000 		li 3,0
 533              	.LVL40:
 534              		.loc 1 155 0
 535 026c 4D800020 		bltlr- 0
 536              		.loc 1 685 0 discriminator 2
 537 0270 81690014 		lwz 11,20(9)
 538              	.LBB2837:
 539              	.LBB2838:
 540              		.loc 2 571 0 discriminator 2
 541 0274 80090018 		lwz 0,24(9)
 542 0278 7C0B0050 		subf 0,11,0
 543 027c 7C001670 		srawi 0,0,2
 544              	.LBE2838:
 545              	.LBE2837:
 546              		.loc 1 155 0 discriminator 2
 547 0280 7F840000 		cmpw 7,4,0
 548 0284 419C0008 		blt- 7,.L53
 549              		.loc 1 159 0
 550 0288 4E800020 		blr
 551              	.L53:
 552              	.LVL41:
 553              		.loc 1 158 0
 554 028c 5484103A 		slwi 4,4,2
 555              	.LVL42:
 556 0290 7C6B202E 		lwzx 3,11,4
 557 0294 4E800020 		blr
 558              		.cfi_endproc
 559              	.LFE1489:
 560              		.size	_ZN7ZipFile13GetFileStructEi, .-_ZN7ZipFile13GetFileStructEi
 561              		.align 2
 562              		.globl _ZN7ZipFile8SeekFileEi
 563              		.type	_ZN7ZipFile8SeekFileEi, @function
 564              	_ZN7ZipFile8SeekFileEi:
 565              	.LFB1490:
 566              		.loc 1 162 0
 567              		.cfi_startproc
 568              	.LVL43:
 569 0298 7D800026 		mfcr 12
 570              	.LBB2842:
 571              		.loc 1 163 0
 572 029c 2E040000 		cmpwi 4,4,0
 573              	.LBE2842:
 574              		.loc 1 162 0
 575 02a0 7C0802A6 		mflr 0
 576 02a4 9421FFE0 		stwu 1,-32(1)
 577              	.LCFI10:
 578              		.cfi_def_cfa_offset 32
 579              		.cfi_register 65, 0
 580              		.cfi_register 70, 12
 581 02a8 93C10018 		stw 30,24(1)
 582              	.LBB2845:
 583              		.loc 1 164 0
 584 02ac 3BC00000 		li 30,0
 585              		.cfi_offset 30, -8
 586              	.LBE2845:
 587              		.loc 1 162 0
 588 02b0 93E1001C 		stw 31,28(1)
 589 02b4 7C7F1B78 		mr 31,3
 590              		.cfi_offset 31, -4
 591 02b8 90010024 		stw 0,36(1)
 592 02bc 91810014 		stw 12,20(1)
 593              	.LBB2846:
 594              		.loc 1 163 0
 595 02c0 90810008 		stw 4,8(1)
 596 02c4 4190001C 		blt- 4,.L56
 597              		.cfi_offset 70, -12
 598              		.cfi_offset 65, 4
 599              	.LBB2843:
 600              	.LBB2844:
 601              		.loc 2 571 0 discriminator 2
 602 02c8 81230018 		lwz 9,24(3)
 603 02cc 80030014 		lwz 0,20(3)
 604 02d0 7C004850 		subf 0,0,9
 605 02d4 7C001670 		srawi 0,0,2
 606              	.LBE2844:
 607              	.LBE2843:
 608              		.loc 1 163 0 discriminator 2
 609 02d8 7F840000 		cmpw 7,4,0
 610 02dc 419C0028 		blt- 7,.L70
 611              	.LVL44:
 612              	.L56:
 613              	.LBE2846:
 614              		.loc 1 182 0
 615 02e0 80010024 		lwz 0,36(1)
 616 02e4 7FC3F378 		mr 3,30
 617 02e8 81810014 		lwz 12,20(1)
 618 02ec 7C0803A6 		mtlr 0
 619 02f0 83C10018 		lwz 30,24(1)
 620 02f4 83E1001C 		lwz 31,28(1)
 621              	.LVL45:
 622 02f8 7D808120 		mtcrf 8,12
 623 02fc 38210020 		addi 1,1,32
 624              		.cfi_remember_state
 625              	.LCFI11:
 626              		.cfi_def_cfa_offset 0
 627              		.cfi_restore 70
 628              		.cfi_restore 31
 629              		.cfi_restore 30
 630 0300 4E800020 		blr
 631              	.LVL46:
 632              	.L70:
 633              	.LCFI12:
 634              		.cfi_restore_state
 635              	.LBB2847:
 636              		.loc 1 166 0
 637 0304 38800001 		li 4,1
 638 0308 48000001 		bl _ZN7ZipFile10SwitchModeEs
 639              	.LVL47:
 640 030c 2F830000 		cmpwi 7,3,0
 641 0310 419EFFD0 		beq+ 7,.L56
 642              		.loc 1 169 0
 643 0314 807F0004 		lwz 3,4(31)
 644 0318 48000001 		bl unzGoToFirstFile
 645              	.LVL48:
 646              		.loc 1 170 0
 647 031c 2F830000 		cmpwi 7,3,0
 648 0320 40BEFFC0 		bne- 7,.L56
 649              		.loc 1 173 0 discriminator 1
 650 0324 40B20018 		bne+ 4,.L66
 651 0328 4800002C 		b .L63
 652              	.LVL49:
 653              	.L71:
 654              		.loc 1 173 0 is_stmt 0
 655 032c 80010008 		lwz 0,8(1)
 656 0330 3520FFFF 		addic. 9,0,-1
 657 0334 91210008 		stw 9,8(1)
 658 0338 4182001C 		beq- 0,.L63
 659              	.LVL50:
 660              	.L66:
 661              		.loc 1 175 0 is_stmt 1
 662 033c 807F0004 		lwz 3,4(31)
 663 0340 48000001 		bl unzGoToNextFile
 664 0344 2F830000 		cmpwi 7,3,0
 665 0348 419EFFE4 		beq+ 7,.L71
 666              		.loc 1 176 0
 667 034c 3BC00000 		li 30,0
 668 0350 4BFFFF90 		b .L56
 669              	.L63:
 670              		.loc 1 181 0
 671 0354 3BC00001 		li 30,1
 672 0358 4BFFFF88 		b .L56
 673              	.LBE2847:
 674              		.cfi_endproc
 675              	.LFE1490:
 676              		.size	_ZN7ZipFile8SeekFileEi, .-_ZN7ZipFile8SeekFileEi
 677              		.align 2
 678              		.globl _ZN7ZipFile11ExtractFileEiPKcb
 679              		.type	_ZN7ZipFile11ExtractFileEiPKcb, @function
 680              	_ZN7ZipFile11ExtractFileEiPKcb:
 681              	.LFB1495:
 682              		.loc 1 433 0
 683              		.cfi_startproc
 684              		.cfi_personality 0,__gxx_personality_v0
 685              		.cfi_lsda 0,.LLSDA1495
 686              	.LVL51:
 687 035c 9421FBC0 		stwu 1,-1088(1)
 688              	.LCFI13:
 689              		.cfi_def_cfa_offset 1088
 690 0360 7C0802A6 		mflr 0
 691 0364 7D800026 		mfcr 12
 692 0368 93C10438 		stw 30,1080(1)
 693 036c 7C9E2378 		mr 30,4
 694              		.cfi_offset 30, -8
 695              		.cfi_register 70, 12
 696              		.cfi_register 65, 0
 697              	.LBB2910:
 698              		.loc 1 434 0
 699 0370 38800001 		li 4,1
 700              	.LVL52:
 701              	.LBE2910:
 702              		.loc 1 433 0
 703 0374 93410428 		stw 26,1064(1)
 704 0378 9361042C 		stw 27,1068(1)
 705 037c 7CDA3378 		mr 26,6
 706              		.cfi_offset 27, -20
 707              		.cfi_offset 26, -24
 708 0380 93E1043C 		stw 31,1084(1)
 709 0384 7CBB2B78 		mr 27,5
 710 0388 90010444 		stw 0,1092(1)
 711 038c 7C7F1B78 		mr 31,3
 712              		.cfi_offset 65, 4
 713              		.cfi_offset 31, -4
 714 0390 93210424 		stw 25,1060(1)
 715 0394 93810430 		stw 28,1072(1)
 716 0398 93A10434 		stw 29,1076(1)
 717 039c 91810420 		stw 12,1056(1)
 718              	.LEHB2:
 719              	.LBB2966:
 720              		.loc 1 434 0
 721              		.cfi_offset 70, -32
 722              		.cfi_offset 29, -12
 723              		.cfi_offset 28, -16
 724              		.cfi_offset 25, -28
 725 03a0 48000001 		bl _ZN7ZipFile10SwitchModeEs
 726              	.LVL53:
 727 03a4 2F830000 		cmpwi 7,3,0
 728 03a8 419E02EC 		beq- 7,.L108
 729              	.LVL54:
 730              	.LBB2911:
 731              	.LBB2912:
 732              		.loc 1 163 0
 733 03ac 2E1E0000 		cmpwi 4,30,0
 734 03b0 41900030 		blt- 4,.L74
 735              	.LBB2913:
 736              	.LBB2914:
 737              		.loc 2 571 0
 738 03b4 813F0018 		lwz 9,24(31)
 739 03b8 801F0014 		lwz 0,20(31)
 740 03bc 7C004850 		subf 0,0,9
 741 03c0 7C001670 		srawi 0,0,2
 742              	.LBE2914:
 743              	.LBE2913:
 744              		.loc 1 163 0
 745 03c4 7F9E0000 		cmpw 7,30,0
 746 03c8 409C0018 		bge- 7,.L74
 747              		.loc 1 166 0
 748 03cc 7FE3FB78 		mr 3,31
 749 03d0 38800001 		li 4,1
 750 03d4 48000001 		bl _ZN7ZipFile10SwitchModeEs
 751 03d8 2F830000 		cmpwi 7,3,0
 752 03dc 409E025C 		bne- 7,.L124
 753              	.LVL55:
 754              	.L74:
 755              	.LBE2912:
 756              	.LBE2911:
 757              		.loc 1 437 0
 758 03e0 801F000C 		lwz 0,12(31)
 759              		.loc 1 438 0
 760 03e4 3BA0FFFF 		li 29,-1
 761              		.loc 1 437 0
 762 03e8 7F9E0000 		cmpw 7,30,0
 763 03ec 419C00C8 		blt- 7,.L102
 764              	.LVL56:
 765              	.LBB2916:
 766              	.LBB2917:
 767              		.loc 1 155 0
 768 03f0 419000FC 		blt- 4,.L115
 769              	.LVL57:
 770              	.L107:
 771              	.LBE2917:
 772              		.loc 1 685 0
 773 03f4 813F0014 		lwz 9,20(31)
 774              	.LBB2920:
 775              	.LBB2918:
 776              	.LBB2919:
 777              		.loc 2 571 0
 778 03f8 801F0018 		lwz 0,24(31)
 779 03fc 7C090050 		subf 0,9,0
 780 0400 7C001670 		srawi 0,0,2
 781              	.LBE2919:
 782              	.LBE2918:
 783              		.loc 1 155 0
 784 0404 7F9E0000 		cmpw 7,30,0
 785 0408 409C00E4 		bge- 7,.L115
 786              	.LVL58:
 787              		.loc 1 158 0
 788 040c 57DE103A 		slwi 30,30,2
 789              	.LVL59:
 790 0410 7F89F02E 		lwzx 28,9,30
 791              	.L106:
 792              	.LVL60:
 793              	.LBE2920:
 794              	.LBE2916:
 795              		.loc 1 444 0
 796 0414 83DC0000 		lwz 30,0(28)
 797 0418 3880002F 		li 4,47
 798 041c 7FC3F378 		mr 3,30
 799 0420 48000001 		bl strrchr
 800              	.LVL61:
 801              		.loc 1 448 0
 802 0424 7FC7F378 		mr 7,30
 803              		.loc 1 445 0
 804 0428 2C030000 		cmpwi 0,3,0
 805 042c 41820008 		beq- 0,.L80
 806              		.loc 1 446 0
 807 0430 38E30001 		addi 7,3,1
 808              	.LVL62:
 809              	.L80:
 810              		.loc 1 451 0
 811 0434 2F9A0000 		cmpwi 7,26,0
 812              		.loc 1 452 0
 813 0438 3BA10014 		addi 29,1,20
 814 043c 3CA00000 		lis 5,.LC0@ha
 815 0440 7FA3EB78 		mr 3,29
 816 0444 38800400 		li 4,1024
 817 0448 38A50000 		la 5,.LC0@l(5)
 818 044c 7F66DB78 		mr 6,27
 819              		.loc 1 451 0
 820 0450 419E01DC 		beq- 7,.L81
 821              		.loc 1 452 0
 822 0454 7FC7F378 		mr 7,30
 823              	.LVL63:
 824 0458 4CC63182 		crxor 6,6,6
 825 045c 48000001 		bl snprintf
 826              	.L82:
 827              		.loc 1 458 0
 828 0460 881C000C 		lbz 0,12(28)
 829              		.loc 1 456 0
 830 0464 83DC0004 		lwz 30,4(28)
 831              	.LVL64:
 832              		.loc 1 458 0
 833 0468 2F800000 		cmpwi 7,0,0
 834 046c 419E0088 		beq- 7,.L83
 835              		.loc 1 460 0
 836 0470 7FA3EB78 		mr 3,29
 837 0474 48000001 		bl strlen
 838              	.LVL65:
 839 0478 38002F00 		li 0,12032
 840 047c 7C1D1B2E 		sthx 0,29,3
 841              		.loc 1 461 0
 842 0480 7FA4EB78 		mr 4,29
 843 0484 38610010 		addi 3,1,16
 844 0488 38A1000B 		addi 5,1,11
 845 048c 48000001 		bl _ZNSsC1EPKcRKSaIcE
 846              	.LEHE2:
 847 0490 38610010 		addi 3,1,16
 848              	.LEHB3:
 849 0494 48000001 		bl _Z15CreateSubfolderSs
 850              	.LEHE3:
 851              	.LVL66:
 852              	.LBB2922:
 853              	.LBB2923:
 854              	.LBB2924:
 855              	.LBB2925:
 856              	.LBB2926:
 857              	.LBB2927:
 858              		.loc 5 288 0
 859 0498 81210010 		lwz 9,16(1)
 860              	.LBE2927:
 861              	.LBE2926:
 862              	.LBE2925:
 863              	.LBB2928:
 864              	.LBB2929:
 865              		.loc 5 235 0
 866 049c 3D600000 		lis 11,_ZNSs4_Rep20_S_empty_rep_storageE@ha
 867 04a0 380B0000 		la 0,_ZNSs4_Rep20_S_empty_rep_storageE@l(11)
 868              		.loc 1 462 0
 869 04a4 3BA00001 		li 29,1
 870              	.LBE2929:
 871              	.LBE2928:
 872              		.loc 5 534 0
 873 04a8 3869FFF4 		addi 3,9,-12
 874              	.LVL67:
 875              	.LBB2938:
 876              	.LBB2936:
 877              		.loc 5 235 0
 878 04ac 7F830000 		cmpw 7,3,0
 879 04b0 409E01EC 		bne- 7,.L125
 880              	.LVL68:
 881              	.L102:
 882              	.LBE2936:
 883              	.LBE2938:
 884              	.LBE2924:
 885              	.LBE2923:
 886              	.LBE2922:
 887              	.LBE2966:
 888              		.loc 1 521 0
 889 04b4 80010444 		lwz 0,1092(1)
 890 04b8 7FA3EB78 		mr 3,29
 891 04bc 81810420 		lwz 12,1056(1)
 892 04c0 7C0803A6 		mtlr 0
 893 04c4 83210424 		lwz 25,1060(1)
 894 04c8 83410428 		lwz 26,1064(1)
 895 04cc 7D808120 		mtcrf 8,12
 896 04d0 8361042C 		lwz 27,1068(1)
 897 04d4 83810430 		lwz 28,1072(1)
 898 04d8 83A10434 		lwz 29,1076(1)
 899 04dc 83C10438 		lwz 30,1080(1)
 900 04e0 83E1043C 		lwz 31,1084(1)
 901              	.LVL69:
 902 04e4 38210440 		addi 1,1,1088
 903              		.cfi_remember_state
 904              	.LCFI14:
 905              		.cfi_def_cfa_offset 0
 906              		.cfi_restore 70
 907              		.cfi_restore 31
 908              		.cfi_restore 30
 909              		.cfi_restore 29
 910              		.cfi_restore 28
 911              		.cfi_restore 27
 912              		.cfi_restore 26
 913              		.cfi_restore 25
 914 04e8 4E800020 		blr
 915              	.LVL70:
 916              	.L115:
 917              	.LCFI15:
 918              		.cfi_restore_state
 919              	.LBB2967:
 920              	.LBB2942:
 921              	.LBB2921:
 922              		.loc 1 156 0
 923 04ec 3B800000 		li 28,0
 924 04f0 4BFFFF24 		b .L106
 925              	.LVL71:
 926              	.L83:
 927              	.LBE2921:
 928              	.LBE2942:
 929              		.loc 1 465 0
 930 04f4 807F0004 		lwz 3,4(31)
 931              	.LEHB4:
 932 04f8 48000001 		bl unzOpenCurrentFile
 933              	.LVL72:
 934              		.loc 1 467 0
 935 04fc 7C7A1B79 		mr. 26,3
 936 0500 408201BC 		bne- 0,.L113
 937              		.loc 1 470 0
 938 0504 7FA3EB78 		mr 3,29
 939              	.LVL73:
 940 0508 48000001 		bl strdup
 941              		.loc 1 471 0
 942 050c 3880002F 		li 4,47
 943              		.loc 1 470 0
 944 0510 7C7B1B78 		mr 27,3
 945              	.LVL74:
 946              		.loc 1 471 0
 947 0514 48000001 		bl strrchr
 948              	.LVL75:
 949              		.loc 1 472 0
 950 0518 2C030000 		cmpwi 0,3,0
 951 051c 41820008 		beq- 0,.L84
 952              	.LVL76:
 953              		.loc 1 475 0
 954 0520 9B430001 		stb 26,1(3)
 955              	.LVL77:
 956              	.L84:
 957              		.loc 1 478 0
 958 0524 3861000C 		addi 3,1,12
 959 0528 7F64DB78 		mr 4,27
 960 052c 38A1000A 		addi 5,1,10
 961 0530 48000001 		bl _ZNSsC1EPKcRKSaIcE
 962              	.LEHE4:
 963 0534 3861000C 		addi 3,1,12
 964              	.LEHB5:
 965 0538 48000001 		bl _Z15CreateSubfolderSs
 966              	.LEHE5:
 967              	.LVL78:
 968              	.LBB2943:
 969              	.LBB2944:
 970              	.LBB2945:
 971              	.LBB2946:
 972              	.LBB2947:
 973              	.LBB2948:
 974              		.loc 5 288 0
 975 053c 8121000C 		lwz 9,12(1)
 976              	.LBE2948:
 977              	.LBE2947:
 978              	.LBE2946:
 979              	.LBB2949:
 980              	.LBB2950:
 981              		.loc 5 235 0
 982 0540 3D600000 		lis 11,_ZNSs4_Rep20_S_empty_rep_storageE@ha
 983 0544 380B0000 		la 0,_ZNSs4_Rep20_S_empty_rep_storageE@l(11)
 984              	.LBE2950:
 985              	.LBE2949:
 986              		.loc 5 534 0
 987 0548 3869FFF4 		addi 3,9,-12
 988              	.LVL79:
 989              	.LBB2959:
 990              	.LBB2957:
 991              		.loc 5 235 0
 992 054c 7F830000 		cmpw 7,3,0
 993 0550 409E01B4 		bne- 7,.L126
 994              	.LVL80:
 995              	.L92:
 996              	.LBE2957:
 997              	.LBE2959:
 998              	.LBE2945:
 999              	.LBE2944:
 1000              	.LBE2943:
 1001              		.loc 1 480 0 discriminator 1
 1002 0554 7F63DB78 		mr 3,27
 1003              		.loc 1 487 0 discriminator 1
 1004 0558 3B600000 		li 27,0
 1005              	.LVL81:
 1006              		.loc 1 480 0 discriminator 1
 1007 055c 48000001 		bl free
 1008              	.LVL82:
 1009              		.loc 1 484 0 discriminator 1
 1010 0560 38600000 		li 3,0
 1011 0564 6063C800 		ori 3,3,51200
 1012              		.loc 1 487 0 discriminator 1
 1013 0568 637BC800 		ori 27,27,51200
 1014              		.loc 1 484 0 discriminator 1
 1015 056c 48000001 		bl malloc
 1016              		.loc 1 486 0 discriminator 1
 1017 0570 3C800000 		lis 4,.LC1@ha
 1018              		.loc 1 484 0 discriminator 1
 1019 0574 7C7A1B78 		mr 26,3
 1020              	.LVL83:
 1021              		.loc 1 486 0 discriminator 1
 1022 0578 38840008 		la 4,.LC1@l(4)
 1023 057c 7FA3EB78 		mr 3,29
 1024              	.LVL84:
 1025              		.loc 1 487 0 discriminator 1
 1026 0580 3BA00000 		li 29,0
 1027              	.LEHB6:
 1028              		.loc 1 486 0 discriminator 1
 1029 0584 48000001 		bl fopen
 1030              	.LVL85:
 1031              		.loc 1 487 0 discriminator 1
 1032 0588 7C791B79 		mr. 25,3
 1033 058c 41820138 		beq- 0,.L127
 1034              	.LVL86:
 1035              	.L118:
 1036              		.loc 1 497 0
 1037 0590 7C1DF050 		subf 0,29,30
 1038              		.loc 1 492 0
 1039 0594 7F9B0040 		cmplw 7,27,0
 1040 0598 409D0008 		ble- 7,.L94
 1041 059c 7C1B0378 		mr 27,0
 1042              	.LVL87:
 1043              	.L94:
 1044              		.loc 1 500 0
 1045 05a0 807F0004 		lwz 3,4(31)
 1046 05a4 7F44D378 		mr 4,26
 1047 05a8 7F65DB78 		mr 5,27
 1048 05ac 48000001 		bl unzReadCurrentFile
 1049              	.LVL88:
 1050              		.loc 1 501 0
 1051 05b0 7C601B79 		mr. 0,3
 1052              		.loc 1 503 0
 1053 05b4 7F43D378 		mr 3,26
 1054              	.LVL89:
 1055              		.loc 1 501 0
 1056 05b8 418000C0 		blt- 0,.L128
 1057              		.loc 1 511 0
 1058 05bc 7FBD0214 		add 29,29,0
 1059              	.LVL90:
 1060              		.loc 1 509 0
 1061 05c0 38800001 		li 4,1
 1062 05c4 7F65DB78 		mr 5,27
 1063 05c8 7F26CB78 		mr 6,25
 1064 05cc 48000001 		bl fwrite
 1065              	.LVL91:
 1066              		.loc 1 495 0
 1067 05d0 7F9EE840 		cmplw 7,30,29
 1068 05d4 419DFFBC 		bgt+ 7,.L118
 1069              		.loc 1 515 0
 1070 05d8 7F23CB78 		mr 3,25
 1071              		.loc 1 520 0
 1072 05dc 3BA00001 		li 29,1
 1073              	.LVL92:
 1074              		.loc 1 515 0
 1075 05e0 48000001 		bl fclose
 1076              		.loc 1 516 0
 1077 05e4 807F0004 		lwz 3,4(31)
 1078 05e8 48000001 		bl unzCloseCurrentFile
 1079              		.loc 1 518 0
 1080 05ec 7F43D378 		mr 3,26
 1081 05f0 48000001 		bl free
 1082              	.LBE2967:
 1083              		.loc 1 521 0
 1084 05f4 80010444 		lwz 0,1092(1)
 1085 05f8 81810420 		lwz 12,1056(1)
 1086 05fc 7FA3EB78 		mr 3,29
 1087 0600 7C0803A6 		mtlr 0
 1088 0604 83210424 		lwz 25,1060(1)
 1089              	.LVL93:
 1090 0608 83410428 		lwz 26,1064(1)
 1091              	.LVL94:
 1092 060c 7D808120 		mtcrf 8,12
 1093 0610 8361042C 		lwz 27,1068(1)
 1094              	.LVL95:
 1095 0614 83810430 		lwz 28,1072(1)
 1096              	.LVL96:
 1097 0618 83A10434 		lwz 29,1076(1)
 1098 061c 83C10438 		lwz 30,1080(1)
 1099              	.LVL97:
 1100 0620 83E1043C 		lwz 31,1084(1)
 1101              	.LVL98:
 1102 0624 38210440 		addi 1,1,1088
 1103              		.cfi_remember_state
 1104              		.cfi_restore 25
 1105              		.cfi_restore 26
 1106              		.cfi_restore 27
 1107              		.cfi_restore 28
 1108              		.cfi_restore 29
 1109              		.cfi_restore 30
 1110              		.cfi_restore 31
 1111              		.cfi_restore 70
 1112              	.LCFI16:
 1113              		.cfi_def_cfa_offset 0
 1114 0628 4E800020 		blr
 1115              	.LVL99:
 1116              	.L81:
 1117              	.LCFI17:
 1118              		.cfi_restore_state
 1119              	.LBB2968:
 1120              		.loc 1 454 0
 1121 062c 4CC63182 		crxor 6,6,6
 1122 0630 48000001 		bl snprintf
 1123              	.LVL100:
 1124 0634 4BFFFE2C 		b .L82
 1125              	.LVL101:
 1126              	.L124:
 1127              	.LBB2963:
 1128              	.LBB2915:
 1129              		.loc 1 169 0
 1130 0638 807F0004 		lwz 3,4(31)
 1131 063c 48000001 		bl unzGoToFirstFile
 1132              	.LVL102:
 1133              		.loc 1 170 0
 1134 0640 2F830000 		cmpwi 7,3,0
 1135 0644 40BEFD9C 		bne- 7,.L74
 1136              		.loc 1 173 0
 1137 0648 41B2FDAC 		beq- 4,.L107
 1138 064c 93C10418 		stw 30,1048(1)
 1139 0650 48000014 		b .L77
 1140              	.LVL103:
 1141              	.L129:
 1142 0654 80010418 		lwz 0,1048(1)
 1143 0658 3520FFFF 		addic. 9,0,-1
 1144 065c 91210418 		stw 9,1048(1)
 1145 0660 41A2FD94 		beq- 0,.L107
 1146              	.LVL104:
 1147              	.L77:
 1148              		.loc 1 175 0
 1149 0664 807F0004 		lwz 3,4(31)
 1150 0668 48000001 		bl unzGoToNextFile
 1151 066c 2F830000 		cmpwi 7,3,0
 1152 0670 419EFFE4 		beq+ 7,.L129
 1153 0674 4BFFFD6C 		b .L74
 1154              	.LVL105:
 1155              	.L128:
 1156              	.LBE2915:
 1157              	.LBE2963:
 1158              		.loc 1 503 0
 1159 0678 48000001 		bl free
 1160              	.LVL106:
 1161              		.loc 1 504 0
 1162 067c 7F23CB78 		mr 3,25
 1163 0680 48000001 		bl fclose
 1164              		.loc 1 505 0
 1165 0684 807F0004 		lwz 3,4(31)
 1166              		.loc 1 506 0
 1167 0688 3BA0FFFC 		li 29,-4
 1168              	.LVL107:
 1169              		.loc 1 505 0
 1170 068c 48000001 		bl unzCloseCurrentFile
 1171              		.loc 1 506 0
 1172 0690 4BFFFE24 		b .L102
 1173              	.LVL108:
 1174              	.L108:
 1175              		.loc 1 435 0
 1176 0694 3BA0FFFF 		li 29,-1
 1177 0698 4BFFFE1C 		b .L102
 1178              	.LVL109:
 1179              	.L125:
 1180              	.LBB2964:
 1181              	.LBB2941:
 1182              	.LBB2940:
 1183              	.LBB2939:
 1184              	.LBB2937:
 1185              	.LBB2930:
 1186              	.LBB2931:
 1187              	.LBB2932:
 1188              		.loc 6 66 0
 1189 069c 8169FFFC 		lwz 11,-4(9)
 1190              	.LVL110:
 1191              	.LBE2932:
 1192              	.LBE2931:
 1193              	.LBE2930:
 1194              		.loc 5 240 0
 1195 06a0 2F8B0000 		cmpwi 7,11,0
 1196              	.LBB2935:
 1197              	.LBB2934:
 1198              	.LBB2933:
 1199              		.loc 6 67 0
 1200 06a4 396BFFFF 		addi 11,11,-1
 1201 06a8 9169FFFC 		stw 11,-4(9)
 1202              	.LBE2933:
 1203              	.LBE2934:
 1204              	.LBE2935:
 1205              		.loc 5 240 0
 1206 06ac 419DFE08 		bgt+ 7,.L102
 1207              		.loc 5 244 0
 1208 06b0 38810009 		addi 4,1,9
 1209 06b4 48000001 		bl _ZNSs4_Rep10_M_destroyERKSaIcE
 1210              	.LVL111:
 1211 06b8 4BFFFDFC 		b .L102
 1212              	.LVL112:
 1213              	.L113:
 1214              	.LBE2937:
 1215              	.LBE2939:
 1216              	.LBE2940:
 1217              	.LBE2941:
 1218              	.LBE2964:
 1219              		.loc 1 468 0
 1220 06bc 3BA0FFFE 		li 29,-2
 1221 06c0 4BFFFDF4 		b .L102
 1222              	.LVL113:
 1223              	.L127:
 1224              		.loc 1 489 0
 1225 06c4 807F0004 		lwz 3,4(31)
 1226              	.LVL114:
 1227              		.loc 1 492 0
 1228 06c8 3BA0FFFD 		li 29,-3
 1229              		.loc 1 489 0
 1230 06cc 48000001 		bl unzCloseCurrentFile
 1231              		.loc 1 490 0
 1232 06d0 7F43D378 		mr 3,26
 1233 06d4 48000001 		bl free
 1234              		.loc 1 491 0
 1235 06d8 3C600000 		lis 3,.LC2@ha
 1236 06dc 3863000C 		la 3,.LC2@l(3)
 1237 06e0 48000001 		bl gettext
 1238 06e4 809C0000 		lwz 4,0(28)
 1239 06e8 3CA00000 		lis 5,.LC3@ha
 1240 06ec 38C00000 		li 6,0
 1241 06f0 38A50024 		la 5,.LC3@l(5)
 1242 06f4 38E00000 		li 7,0
 1243 06f8 39000000 		li 8,0
 1244 06fc 48000001 		bl _Z12WindowPromptPKcS0_S0_S0_S0_S0_
 1245              		.loc 1 492 0
 1246 0700 4BFFFDB4 		b .L102
 1247              	.LVL115:
 1248              	.L126:
 1249              	.LBB2965:
 1250              	.LBB2962:
 1251              	.LBB2961:
 1252              	.LBB2960:
 1253              	.LBB2958:
 1254              	.LBB2951:
 1255              	.LBB2952:
 1256              	.LBB2953:
 1257              		.loc 6 66 0
 1258 0704 8169FFFC 		lwz 11,-4(9)
 1259              	.LVL116:
 1260              	.LBE2953:
 1261              	.LBE2952:
 1262              	.LBE2951:
 1263              		.loc 5 240 0
 1264 0708 2F8B0000 		cmpwi 7,11,0
 1265              	.LBB2956:
 1266              	.LBB2955:
 1267              	.LBB2954:
 1268              		.loc 6 67 0
 1269 070c 396BFFFF 		addi 11,11,-1
 1270 0710 9169FFFC 		stw 11,-4(9)
 1271              	.LBE2954:
 1272              	.LBE2955:
 1273              	.LBE2956:
 1274              		.loc 5 240 0
 1275 0714 419DFE40 		bgt+ 7,.L92
 1276              		.loc 5 244 0
 1277 0718 38810008 		addi 4,1,8
 1278 071c 48000001 		bl _ZNSs4_Rep10_M_destroyERKSaIcE
 1279              	.LVL117:
 1280 0720 4BFFFE34 		b .L92
 1281              	.LVL118:
 1282              	.L117:
 1283 0724 7C7F1B78 		mr 31,3
 1284              	.LVL119:
 1285              	.LBE2958:
 1286              	.LBE2960:
 1287              	.LBE2961:
 1288              	.LBE2962:
 1289              	.LBE2965:
 1290              		.loc 1 478 0
 1291 0728 3861000C 		addi 3,1,12
 1292 072c 48000001 		bl _ZNSsD1Ev
 1293 0730 7FE3FB78 		mr 3,31
 1294 0734 48000001 		bl _Unwind_Resume
 1295              	.LVL120:
 1296              	.L116:
 1297 0738 7C7F1B78 		mr 31,3
 1298              	.LVL121:
 1299              		.loc 1 461 0
 1300 073c 38610010 		addi 3,1,16
 1301 0740 48000001 		bl _ZNSsD1Ev
 1302 0744 7FE3FB78 		mr 3,31
 1303 0748 48000001 		bl _Unwind_Resume
 1304              	.LEHE6:
 1305              	.LBE2968:
 1306              		.cfi_endproc
 1307              	.LFE1495:
 1308              		.section	.gcc_except_table
 1309              	.LLSDA1495:
 1310 000e FF       		.byte	0xff
 1311 000f FF       		.byte	0xff
 1312 0010 01       		.byte	0x1
 1313 0011 1C       		.uleb128 .LLSDACSE1495-.LLSDACSB1495
 1314              	.LLSDACSB1495:
 1315 0012 44       		.uleb128 .LEHB2-.LFB1495
 1316 0013 F001     		.uleb128 .LEHE2-.LEHB2
 1317 0015 00       		.uleb128 0
 1318 0016 00       		.uleb128 0
 1319 0017 B802     		.uleb128 .LEHB3-.LFB1495
 1320 0019 04       		.uleb128 .LEHE3-.LEHB3
 1321 001a DC07     		.uleb128 .L116-.LFB1495
 1322 001c 00       		.uleb128 0
 1323 001d 9C03     		.uleb128 .LEHB4-.LFB1495
 1324 001f 3C       		.uleb128 .LEHE4-.LEHB4
 1325 0020 00       		.uleb128 0
 1326 0021 00       		.uleb128 0
 1327 0022 DC03     		.uleb128 .LEHB5-.LFB1495
 1328 0024 04       		.uleb128 .LEHE5-.LEHB5
 1329 0025 C807     		.uleb128 .L117-.LFB1495
 1330 0027 00       		.uleb128 0
 1331 0028 A804     		.uleb128 .LEHB6-.LFB1495
 1332 002a C803     		.uleb128 .LEHE6-.LEHB6
 1333 002c 00       		.uleb128 0
 1334 002d 00       		.uleb128 0
 1335              	.LLSDACSE1495:
 1336              		.section	".text"
 1337              		.size	_ZN7ZipFile11ExtractFileEiPKcb, .-_ZN7ZipFile11ExtractFileEiPKcb
 1338              		.align 2
 1339              		.globl _ZN7ZipFile10ExtractAllEPKcb
 1340              		.type	_ZN7ZipFile10ExtractAllEPKcb, @function
 1341              	_ZN7ZipFile10ExtractAllEPKcb:
 1342              	.LFB1496:
 1343              		.loc 1 524 0
 1344              		.cfi_startproc
 1345              		.cfi_personality 0,__gxx_personality_v0
 1346              		.cfi_lsda 0,.LLSDA1496
 1347              	.LVL122:
 1348 074c 7C0802A6 		mflr 0
 1349 0750 9421F748 		stwu 1,-2232(1)
 1350              	.LCFI18:
 1351              		.cfi_def_cfa_offset 2232
 1352              		.cfi_register 65, 0
 1353 0754 7D800026 		mfcr 12
 1354 0758 9221087C 		stw 17,2172(1)
 1355 075c 7C912378 		mr 17,4
 1356              		.cfi_offset 17, -60
 1357              		.cfi_register 70, 12
 1358 0760 93A108AC 		stw 29,2220(1)
 1359              	.LBB3014:
 1360              		.loc 1 525 0
 1361 0764 38800001 		li 4,1
 1362              	.LVL123:
 1363              	.LBE3014:
 1364              		.loc 1 524 0
 1365 0768 93C108B0 		stw 30,2224(1)
 1366 076c 7CBD2B78 		mr 29,5
 1367              		.cfi_offset 30, -8
 1368              		.cfi_offset 29, -12
 1369 0770 93E108B4 		stw 31,2228(1)
 1370 0774 7C3F0B78 		mr 31,1
 1371              		.cfi_offset 31, -4
 1372              	.LCFI19:
 1373              		.cfi_def_cfa_register 31
 1374 0778 900108BC 		stw 0,2236(1)
 1375 077c 7C7E1B78 		mr 30,3
 1376 0780 92410880 		stw 18,2176(1)
 1377 0784 92610884 		stw 19,2180(1)
 1378 0788 92810888 		stw 20,2184(1)
 1379 078c 92A1088C 		stw 21,2188(1)
 1380 0790 92C10890 		stw 22,2192(1)
 1381 0794 92E10894 		stw 23,2196(1)
 1382 0798 93010898 		stw 24,2200(1)
 1383 079c 9321089C 		stw 25,2204(1)
 1384 07a0 934108A0 		stw 26,2208(1)
 1385 07a4 936108A4 		stw 27,2212(1)
 1386 07a8 938108A8 		stw 28,2216(1)
 1387 07ac 91810878 		stw 12,2168(1)
 1388              	.LEHB7:
 1389              	.LBB3096:
 1390              		.loc 1 525 0
 1391              		.cfi_offset 70, -64
 1392              		.cfi_offset 28, -16
 1393              		.cfi_offset 27, -20
 1394              		.cfi_offset 26, -24
 1395              		.cfi_offset 25, -28
 1396              		.cfi_offset 24, -32
 1397              		.cfi_offset 23, -36
 1398              		.cfi_offset 22, -40
 1399              		.cfi_offset 21, -44
 1400              		.cfi_offset 20, -48
 1401              		.cfi_offset 19, -52
 1402              		.cfi_offset 18, -56
 1403              		.cfi_offset 65, 4
 1404 07b0 48000001 		bl _ZN7ZipFile10SwitchModeEs
 1405              	.LVL124:
 1406 07b4 2F830000 		cmpwi 7,3,0
 1407 07b8 419E046C 		beq- 7,.L178
 1408              	.LVL125:
 1409              		.loc 1 531 0
 1410 07bc 3C600001 		lis 3,0x1
 1411 07c0 60631800 		ori 3,3,6144
 1412 07c4 48000001 		bl malloc
 1413              	.LVL126:
 1414              		.loc 1 533 0
 1415 07c8 7C7B1B79 		mr. 27,3
 1416 07cc 418204A8 		beq- 0,.L179
 1417              		.loc 1 538 0
 1418 07d0 3B5F0470 		addi 26,31,1136
 1419 07d4 38800000 		li 4,0
 1420 07d8 38A00400 		li 5,1024
 1421 07dc 7F43D378 		mr 3,26
 1422              	.LVL127:
 1423 07e0 48000001 		bl memset
 1424              		.loc 1 539 0
 1425 07e4 38800000 		li 4,0
 1426 07e8 38A00400 		li 5,1024
 1427 07ec 387F0070 		addi 3,31,112
 1428 07f0 48000001 		bl memset
 1429              		.loc 1 543 0
 1430 07f4 807E0004 		lwz 3,4(30)
 1431 07f8 48000001 		bl unzGoToFirstFile
 1432              	.LVL128:
 1433              		.loc 1 544 0
 1434 07fc 2F830000 		cmpwi 7,3,0
 1435 0800 409E047C 		bne- 7,.L204
 1436              		.loc 1 550 0
 1437 0804 2E1D0000 		cmpwi 4,29,0
 1438 0808 409203AC 		bne- 4,.L205
 1439              	.LVL129:
 1440              	.L133:
 1441              	.LBE3096:
 1442              		.loc 1 524 0 discriminator 1
 1443 080c 3F800001 		lis 28,0x1
 1444 0810 639C1800 		ori 28,28,6144
 1445              	.LVL130:
 1446              	.L135:
 1447              	.LBB3097:
 1448              	.LBB3015:
 1449              		.loc 1 555 0
 1450 0814 807E0004 		lwz 3,4(30)
 1451 0818 389F0020 		addi 4,31,32
 1452 081c 38BF0070 		addi 5,31,112
 1453 0820 38C00400 		li 6,1024
 1454 0824 38E00000 		li 7,0
 1455 0828 39000000 		li 8,0
 1456 082c 39200000 		li 9,0
 1457 0830 39400000 		li 10,0
 1458 0834 48000001 		bl unzGetCurrentFileInfo
 1459              		.loc 1 557 0
 1460 0838 3BA00001 		li 29,1
 1461              		.loc 1 555 0
 1462 083c 7C791B79 		mr. 25,3
 1463 0840 40820024 		bne- 0,.L137
 1464              	.LVL131:
 1465              	.LBB3016:
 1466              		.loc 1 560 0
 1467 0844 387F0070 		addi 3,31,112
 1468 0848 48000001 		bl strlen
 1469 084c 381F0008 		addi 0,31,8
 1470 0850 7C601A14 		add 3,0,3
 1471 0854 88030067 		lbz 0,103(3)
 1472 0858 2F80002F 		cmpwi 7,0,47
 1473 085c 409E008C 		bne- 7,.L206
 1474 0860 3BA00000 		li 29,0
 1475              	.LVL132:
 1476              	.L137:
 1477              	.LBE3016:
 1478              		.loc 1 614 0
 1479 0864 807E0004 		lwz 3,4(30)
 1480 0868 48000001 		bl unzGoToNextFile
 1481              	.LEHE7:
 1482 086c 2F830000 		cmpwi 7,3,0
 1483 0870 419E006C 		beq- 7,.L207
 1484              	.L168:
 1485              	.LBE3015:
 1486              		.loc 1 620 0
 1487 0874 7F63DB78 		mr 3,27
 1488 0878 48000001 		bl free
 1489              	.LVL133:
 1490              		.loc 1 623 0
 1491 087c 40920304 		bne- 4,.L208
 1492              		.loc 1 629 0
 1493 0880 38600001 		li 3,1
 1494              	.LVL134:
 1495              	.L131:
 1496              	.LBE3097:
 1497              		.loc 1 630 0
 1498 0884 397F08B8 		addi 11,31,2232
 1499 0888 800B0004 		lwz 0,4(11)
 1500 088c 818BFFC0 		lwz 12,-64(11)
 1501 0890 7C0803A6 		mtlr 0
 1502 0894 822BFFC4 		lwz 17,-60(11)
 1503              	.LVL135:
 1504 0898 824BFFC8 		lwz 18,-56(11)
 1505 089c 7D808120 		mtcrf 8,12
 1506 08a0 826BFFCC 		lwz 19,-52(11)
 1507 08a4 828BFFD0 		lwz 20,-48(11)
 1508 08a8 82ABFFD4 		lwz 21,-44(11)
 1509 08ac 82CBFFD8 		lwz 22,-40(11)
 1510 08b0 82EBFFDC 		lwz 23,-36(11)
 1511 08b4 830BFFE0 		lwz 24,-32(11)
 1512 08b8 832BFFE4 		lwz 25,-28(11)
 1513 08bc 834BFFE8 		lwz 26,-24(11)
 1514 08c0 836BFFEC 		lwz 27,-20(11)
 1515 08c4 838BFFF0 		lwz 28,-16(11)
 1516 08c8 83ABFFF4 		lwz 29,-12(11)
 1517 08cc 83CBFFF8 		lwz 30,-8(11)
 1518 08d0 83EBFFFC 		lwz 31,-4(11)
 1519              		.cfi_remember_state
 1520              	.LCFI20:
 1521              		.cfi_def_cfa 11, 0
 1522 08d4 7D615B78 		mr 1,11
 1523              	.LCFI21:
 1524              		.cfi_def_cfa_register 1
 1525              		.cfi_restore 70
 1526              		.cfi_restore 31
 1527              		.cfi_restore 30
 1528              		.cfi_restore 29
 1529              		.cfi_restore 28
 1530              		.cfi_restore 27
 1531              		.cfi_restore 26
 1532              		.cfi_restore 25
 1533              		.cfi_restore 24
 1534              		.cfi_restore 23
 1535              		.cfi_restore 22
 1536              		.cfi_restore 21
 1537              		.cfi_restore 20
 1538              		.cfi_restore 19
 1539              		.cfi_restore 18
 1540              		.cfi_restore 17
 1541 08d8 4E800020 		blr
 1542              	.LVL136:
 1543              	.L207:
 1544              	.LCFI22:
 1545              		.cfi_restore_state
 1546              	.LBB3098:
 1547              		.loc 1 553 0 discriminator 1
 1548 08dc 2F9D0000 		cmpwi 7,29,0
 1549 08e0 419EFF34 		beq+ 7,.L135
 1550 08e4 4BFFFF90 		b .L168
 1551              	.LVL137:
 1552              	.L206:
 1553              	.LBB3075:
 1554              	.LBB3070:
 1555              	.LBB3017:
 1556              		.loc 1 562 0
 1557 08e8 801F003C 		lwz 0,60(31)
 1558              	.LBE3017:
 1559              		.loc 1 560 0
 1560 08ec 7C380B78 		mr 24,1
 1561              	.LBB3065:
 1562              		.loc 1 566 0
 1563 08f0 807E0004 		lwz 3,4(30)
 1564              		.loc 1 562 0
 1565 08f4 901F001C 		stw 0,28(31)
 1566 08f8 933F0018 		stw 25,24(31)
 1567              	.LVL138:
 1568              	.LEHB8:
 1569              		.loc 1 566 0
 1570 08fc 48000001 		bl unzOpenCurrentFile
 1571              		.loc 1 568 0
 1572 0900 3CA00000 		lis 5,.LC0@ha
 1573              		.loc 1 566 0
 1574 0904 7C791B78 		mr 25,3
 1575              	.LVL139:
 1576              		.loc 1 568 0
 1577 0908 38800400 		li 4,1024
 1578 090c 7F43D378 		mr 3,26
 1579              	.LVL140:
 1580 0910 38A50000 		la 5,.LC0@l(5)
 1581 0914 7E268B78 		mr 6,17
 1582 0918 38FF0070 		addi 7,31,112
 1583 091c 4CC63182 		crxor 6,6,6
 1584 0920 48000001 		bl snprintf
 1585              		.loc 1 570 0
 1586 0924 3880002F 		li 4,47
 1587 0928 7F43D378 		mr 3,26
 1588 092c 48000001 		bl strrchr
 1589 0930 7C751B78 		mr 21,3
 1590              	.LVL141:
 1591              		.loc 1 573 0
 1592 0934 7F43D378 		mr 3,26
 1593              	.LVL142:
 1594 0938 48000001 		bl strlen
 1595              	.LVL143:
 1596 093c 81210000 		lwz 9,0(1)
 1597 0940 3803001E 		addi 0,3,30
 1598              		.loc 1 571 0
 1599 0944 7C9AA850 		subf 4,26,21
 1600              		.loc 1 573 0
 1601 0948 54000036 		rlwinm 0,0,0,0,27
 1602              		.loc 1 574 0
 1603 094c 3CA00000 		lis 5,.LC5@ha
 1604              		.loc 1 573 0
 1605 0950 7C0000D0 		neg 0,0
 1606              		.loc 1 574 0
 1607 0954 38840002 		addi 4,4,2
 1608              		.loc 1 573 0
 1609 0958 7D21016E 		stwux 9,1,0
 1610              		.loc 1 574 0
 1611 095c 38A5003C 		la 5,.LC5@l(5)
 1612 0960 7F46D378 		mr 6,26
 1613              		.loc 1 573 0
 1614 0964 3BA10017 		addi 29,1,23
 1615 0968 57BD0036 		rlwinm 29,29,0,0,27
 1616              	.LVL144:
 1617              		.loc 1 574 0
 1618 096c 7FA3EB78 		mr 3,29
 1619              	.LVL145:
 1620 0970 4CC63182 		crxor 6,6,6
 1621 0974 48000001 		bl snprintf
 1622              	.LEHE8:
 1623              		.loc 1 576 0
 1624 0978 387F000C 		addi 3,31,12
 1625 097c 7FA4EB78 		mr 4,29
 1626 0980 38BF0009 		addi 5,31,9
 1627              	.LEHB9:
 1628 0984 48000001 		bl _ZNSsC1EPKcRKSaIcE
 1629              	.LEHE9:
 1630              		.loc 1 576 0 is_stmt 0 discriminator 1
 1631 0988 387F000C 		addi 3,31,12
 1632              	.LEHB10:
 1633 098c 48000001 		bl _Z15CreateSubfolderSs
 1634              	.LEHE10:
 1635              	.LVL146:
 1636              	.LBB3018:
 1637              	.LBB3019:
 1638              	.LBB3020:
 1639              	.LBB3021:
 1640              	.LBB3022:
 1641              	.LBB3023:
 1642              		.loc 5 288 0 is_stmt 1
 1643 0990 813F000C 		lwz 9,12(31)
 1644              	.LBE3023:
 1645              	.LBE3022:
 1646              	.LBE3021:
 1647              	.LBB3024:
 1648              	.LBB3025:
 1649              		.loc 5 235 0
 1650 0994 3D600000 		lis 11,_ZNSs4_Rep20_S_empty_rep_storageE@ha
 1651 0998 380B0000 		la 0,_ZNSs4_Rep20_S_empty_rep_storageE@l(11)
 1652              	.LBE3025:
 1653              	.LBE3024:
 1654              		.loc 5 534 0
 1655 099c 3869FFF4 		addi 3,9,-12
 1656              	.LVL147:
 1657              	.LBB3034:
 1658              	.LBB3032:
 1659              		.loc 5 235 0
 1660 09a0 7F830000 		cmpw 7,3,0
 1661 09a4 409E0300 		bne- 7,.L209
 1662              	.LVL148:
 1663              	.L145:
 1664              	.LBE3032:
 1665              	.LBE3034:
 1666              	.LBE3020:
 1667              	.LBE3019:
 1668              	.LBE3018:
 1669              	.LBB3038:
 1670              		.loc 1 578 0 discriminator 1
 1671 09a8 2F990000 		cmpwi 7,25,0
 1672 09ac 409E00D8 		bne- 7,.L146
 1673              	.LBB3039:
 1674              		.loc 1 580 0
 1675 09b0 3C800000 		lis 4,.LC1@ha
 1676 09b4 7F43D378 		mr 3,26
 1677 09b8 38840008 		la 4,.LC1@l(4)
 1678              	.LEHB11:
 1679 09bc 48000001 		bl fopen
 1680              	.LVL149:
 1681              		.loc 1 581 0
 1682 09c0 7C791B79 		mr. 25,3
 1683              	.LVL150:
 1684 09c4 41820220 		beq- 0,.L210
 1685              		.loc 1 590 0
 1686 09c8 39400000 		li 10,0
 1687 09cc 39600000 		li 11,0
 1688 09d0 915F0010 		stw 10,16(31)
 1689 09d4 917F0014 		stw 11,20(31)
 1690 09d8 409200C0 		bne- 4,.L211
 1691 09dc 39400000 		li 10,0
 1692 09e0 39600000 		li 11,0
 1693              	.LVL151:
 1694              	.L198:
 1695              		.loc 1 596 0
 1696 09e4 811F0018 		lwz 8,24(31)
 1697 09e8 813F001C 		lwz 9,28(31)
 1698 09ec 7CEB4810 		subfc 7,11,9
 1699 09f0 7CCA4110 		subfe 6,10,8
 1700 09f4 2F860000 		cmpwi 7,6,0
 1701 09f8 409E0010 		bne- 7,.L153
 1702 09fc 7F9C3840 		cmplw 7,28,7
 1703 0a00 409D0008 		ble- 7,.L153
 1704              		.loc 1 597 0
 1705 0a04 7F8B4850 		subf 28,11,9
 1706              	.LVL152:
 1707              	.L153:
 1708              		.loc 1 599 0
 1709 0a08 807E0004 		lwz 3,4(30)
 1710 0a0c 7F64DB78 		mr 4,27
 1711 0a10 7F85E378 		mr 5,28
 1712 0a14 48000001 		bl unzReadCurrentFile
 1713              	.LVL153:
 1714              		.loc 1 601 0
 1715 0a18 7C7D1B79 		mr. 29,3
 1716 0a1c 41820058 		beq- 0,.L165
 1717              		.loc 1 604 0
 1718 0a20 7F63DB78 		mr 3,27
 1719              	.LVL154:
 1720 0a24 38800001 		li 4,1
 1721 0a28 7F85E378 		mr 5,28
 1722 0a2c 7F26CB78 		mr 6,25
 1723 0a30 48000001 		bl fwrite
 1724              		.loc 1 606 0
 1725 0a34 815F0010 		lwz 10,16(31)
 1726 0a38 7FB7EB78 		mr 23,29
 1727 0a3c 817F0014 		lwz 11,20(31)
 1728 0a40 7FB6FE70 		srawi 22,29,31
 1729              		.loc 1 591 0
 1730 0a44 801F0018 		lwz 0,24(31)
 1731              		.loc 1 606 0
 1732 0a48 7D6BB814 		addc 11,11,23
 1733 0a4c 7D4AB114 		adde 10,10,22
 1734              		.loc 1 591 0
 1735 0a50 7F805040 		cmplw 7,0,10
 1736              		.loc 1 606 0
 1737 0a54 915F0010 		stw 10,16(31)
 1738 0a58 917F0014 		stw 11,20(31)
 1739              		.loc 1 591 0
 1740 0a5c 419DFF88 		bgt+ 7,.L198
 1741 0a60 7F805000 		cmpw 7,0,10
 1742 0a64 409E0010 		bne- 7,.L165
 1743 0a68 801F001C 		lwz 0,28(31)
 1744 0a6c 7F805840 		cmplw 7,0,11
 1745 0a70 419DFF74 		bgt+ 7,.L198
 1746              	.L165:
 1747              		.loc 1 610 0
 1748 0a74 7F23CB78 		mr 3,25
 1749 0a78 48000001 		bl fclose
 1750              		.loc 1 611 0
 1751 0a7c 807E0004 		lwz 3,4(30)
 1752 0a80 48000001 		bl unzCloseCurrentFile
 1753              	.LVL155:
 1754              	.L146:
 1755 0a84 80010000 		lwz 0,0(1)
 1756              	.LBE3039:
 1757              	.LBE3038:
 1758 0a88 3BA00000 		li 29,0
 1759              	.LBB3059:
 1760              	.LBB3054:
 1761 0a8c 90180000 		stw 0,0(24)
 1762 0a90 7F01C378 		mr 1,24
 1763              	.LVL156:
 1764 0a94 4BFFFDD0 		b .L137
 1765              	.LVL157:
 1766              	.L211:
 1767 0a98 3E800000 		lis 20,_ZN14ProgressWindow8instanceE@ha
 1768 0a9c 3A940000 		la 20,_ZN14ProgressWindow8instanceE@l(20)
 1769              	.LVL158:
 1770              	.L199:
 1771              	.LBB3040:
 1772              	.LBB3041:
 1773              		.file 7 "d:/Projects/SaveGameManager/savegame-manager-gx/trunk/source/ArchiveOperations/../Prompts
 1774              		.loc 7 26 0
 1775 0aa0 83B40000 		lwz 29,0(20)
 1776 0aa4 2F9D0000 		cmpwi 7,29,0
 1777 0aa8 419E00B8 		beq- 7,.L212
 1778              	.L159:
 1779              	.LBE3041:
 1780              	.LBE3040:
 1781              		.loc 1 594 0
 1782 0aac 7FA3EB78 		mr 3,29
 1783 0ab0 389F0010 		addi 4,31,16
 1784 0ab4 38BF0018 		addi 5,31,24
 1785 0ab8 38D50001 		addi 6,21,1
 1786 0abc 48000001 		bl _ZN14ProgressWindow12ShowProgressERKyS1_PKc
 1787 0ac0 815F0010 		lwz 10,16(31)
 1788 0ac4 817F0014 		lwz 11,20(31)
 1789              		.loc 1 596 0
 1790 0ac8 811F0018 		lwz 8,24(31)
 1791 0acc 813F001C 		lwz 9,28(31)
 1792 0ad0 7CEB4810 		subfc 7,11,9
 1793 0ad4 7CCA4110 		subfe 6,10,8
 1794 0ad8 2F860000 		cmpwi 7,6,0
 1795 0adc 409E000C 		bne- 7,.L162
 1796 0ae0 7F9C3840 		cmplw 7,28,7
 1797 0ae4 419D0094 		bgt- 7,.L160
 1798              	.L162:
 1799              		.loc 1 599 0
 1800 0ae8 807E0004 		lwz 3,4(30)
 1801 0aec 7F64DB78 		mr 4,27
 1802 0af0 7F85E378 		mr 5,28
 1803 0af4 48000001 		bl unzReadCurrentFile
 1804              	.LVL159:
 1805              		.loc 1 601 0
 1806 0af8 7C7D1B79 		mr. 29,3
 1807 0afc 41A2FF78 		beq- 0,.L165
 1808              		.loc 1 604 0
 1809 0b00 7F63DB78 		mr 3,27
 1810              	.LVL160:
 1811 0b04 38800001 		li 4,1
 1812 0b08 7F85E378 		mr 5,28
 1813 0b0c 7F26CB78 		mr 6,25
 1814 0b10 48000001 		bl fwrite
 1815              		.loc 1 606 0
 1816 0b14 815F0010 		lwz 10,16(31)
 1817 0b18 7FB3EB78 		mr 19,29
 1818 0b1c 817F0014 		lwz 11,20(31)
 1819 0b20 7FB2FE70 		srawi 18,29,31
 1820              		.loc 1 591 0
 1821 0b24 801F0018 		lwz 0,24(31)
 1822              		.loc 1 606 0
 1823 0b28 7D6B9814 		addc 11,11,19
 1824 0b2c 7D4A9114 		adde 10,10,18
 1825              	.LVL161:
 1826              		.loc 1 591 0
 1827 0b30 7F805040 		cmplw 7,0,10
 1828              		.loc 1 606 0
 1829 0b34 915F0010 		stw 10,16(31)
 1830 0b38 917F0014 		stw 11,20(31)
 1831              		.loc 1 591 0
 1832 0b3c 419DFF64 		bgt+ 7,.L199
 1833 0b40 7F805000 		cmpw 7,0,10
 1834 0b44 40BEFF30 		bne- 7,.L165
 1835 0b48 801F001C 		lwz 0,28(31)
 1836 0b4c 7F805840 		cmplw 7,0,11
 1837 0b50 40BDFF24 		ble- 7,.L165
 1838              	.LBB3044:
 1839              	.LBB3042:
 1840              		.loc 7 26 0
 1841 0b54 83B40000 		lwz 29,0(20)
 1842              	.LVL162:
 1843 0b58 2F9D0000 		cmpwi 7,29,0
 1844 0b5c 409EFF50 		bne+ 7,.L159
 1845              	.LVL163:
 1846              	.L212:
 1847 0b60 386001B8 		li 3,440
 1848 0b64 48000001 		bl _Znwj
 1849              	.LEHE11:
 1850              	.LVL164:
 1851 0b68 7C7D1B78 		mr 29,3
 1852              	.LEHB12:
 1853 0b6c 48000001 		bl _ZN14ProgressWindowC1Ev
 1854              	.LEHE12:
 1855 0b70 93B40000 		stw 29,0(20)
 1856 0b74 4BFFFF38 		b .L159
 1857              	.L160:
 1858              	.LBE3042:
 1859              	.LBE3044:
 1860              		.loc 1 597 0
 1861 0b78 7F8B4850 		subf 28,11,9
 1862              	.LVL165:
 1863 0b7c 4BFFFF6C 		b .L162
 1864              	.LVL166:
 1865              	.L208:
 1866              	.LBE3054:
 1867              	.LBE3059:
 1868              	.LBE3065:
 1869              	.LBE3070:
 1870              	.LBE3075:
 1871              	.LBB3076:
 1872              	.LBB3077:
 1873              		.loc 7 26 0
 1874 0b80 3E800000 		lis 20,_ZN14ProgressWindow8instanceE@ha
 1875 0b84 83D40000 		lwz 30,_ZN14ProgressWindow8instanceE@l(20)
 1876              	.LVL167:
 1877 0b88 2F9E0000 		cmpwi 7,30,0
 1878 0b8c 419E00B8 		beq- 7,.L213
 1879              	.L169:
 1880              	.LBE3077:
 1881              	.LBE3076:
 1882              		.loc 1 625 0
 1883 0b90 7FC3F378 		mr 3,30
 1884              	.LEHB13:
 1885 0b94 48000001 		bl _ZN14ProgressWindow14FinishProgressEv
 1886              	.LBB3079:
 1887              	.LBB3080:
 1888              		.loc 7 26 0
 1889 0b98 83D40000 		lwz 30,_ZN14ProgressWindow8instanceE@l(20)
 1890 0b9c 2F9E0000 		cmpwi 7,30,0
 1891 0ba0 419E008C 		beq- 7,.L214
 1892              	.L171:
 1893              	.LBE3080:
 1894              	.LBE3079:
 1895              		.loc 1 626 0
 1896 0ba4 7FC3F378 		mr 3,30
 1897 0ba8 48000001 		bl _ZN14ProgressWindow12StopProgressEv
 1898              		.loc 1 629 0
 1899 0bac 38600001 		li 3,1
 1900 0bb0 4BFFFCD4 		b .L131
 1901              	.LVL168:
 1902              	.L205:
 1903              	.LBB3083:
 1904              	.LBB3084:
 1905              		.loc 7 26 0
 1906 0bb4 3E800000 		lis 20,_ZN14ProgressWindow8instanceE@ha
 1907 0bb8 83B40000 		lwz 29,_ZN14ProgressWindow8instanceE@l(20)
 1908 0bbc 2F9D0000 		cmpwi 7,29,0
 1909 0bc0 419E009C 		beq- 7,.L215
 1910              	.LVL169:
 1911              	.L134:
 1912              	.LBE3084:
 1913              	.LBE3083:
 1914              		.loc 1 551 0
 1915 0bc4 3C600000 		lis 3,.LC4@ha
 1916 0bc8 38630028 		la 3,.LC4@l(3)
 1917 0bcc 48000001 		bl gettext
 1918 0bd0 38A00000 		li 5,0
 1919 0bd4 7C641B78 		mr 4,3
 1920 0bd8 7FA3EB78 		mr 3,29
 1921 0bdc 48000001 		bl _ZN14ProgressWindow13StartProgressEPKcS1_
 1922              	.LEHE13:
 1923 0be0 4BFFFC2C 		b .L133
 1924              	.LVL170:
 1925              	.L210:
 1926              	.LBB3087:
 1927              	.LBB3071:
 1928              	.LBB3066:
 1929              	.LBB3060:
 1930              	.LBB3055:
 1931              		.loc 1 583 0
 1932 0be4 7F63DB78 		mr 3,27
 1933              	.LVL171:
 1934 0be8 48000001 		bl free
 1935              		.loc 1 584 0
 1936 0bec 807E0004 		lwz 3,4(30)
 1937              	.LEHB14:
 1938 0bf0 48000001 		bl unzCloseCurrentFile
 1939              		.loc 1 585 0
 1940 0bf4 4192001C 		beq- 4,.L148
 1941              	.LBB3045:
 1942              	.LBB3046:
 1943              		.loc 7 26 0
 1944 0bf8 3E800000 		lis 20,_ZN14ProgressWindow8instanceE@ha
 1945 0bfc 83D40000 		lwz 30,_ZN14ProgressWindow8instanceE@l(20)
 1946              	.LVL172:
 1947 0c00 2F9E0000 		cmpwi 7,30,0
 1948 0c04 419E0088 		beq- 7,.L216
 1949              	.L149:
 1950              	.LBE3046:
 1951              	.LBE3045:
 1952              		.loc 1 586 0
 1953 0c08 7FC3F378 		mr 3,30
 1954 0c0c 48000001 		bl _ZN14ProgressWindow12StopProgressEv
 1955              	.LEHE14:
 1956              	.L148:
 1957              	.LBB3050:
 1958              	.LBB3047:
 1959              		.loc 7 26 0
 1960 0c10 80010000 		lwz 0,0(1)
 1961              	.LBE3047:
 1962              	.LBE3050:
 1963              	.LBE3055:
 1964              	.LBE3060:
 1965              		.loc 1 587 0
 1966 0c14 3860FFF8 		li 3,-8
 1967              	.LBB3061:
 1968              	.LBB3056:
 1969              	.LBB3051:
 1970              	.LBB3048:
 1971              		.loc 7 26 0
 1972 0c18 90180000 		stw 0,0(24)
 1973 0c1c 7F01C378 		mr 1,24
 1974 0c20 4BFFFC64 		b .L131
 1975              	.LVL173:
 1976              	.L178:
 1977              	.LBE3048:
 1978              	.LBE3051:
 1979              	.LBE3056:
 1980              	.LBE3061:
 1981              	.LBE3066:
 1982              	.LBE3071:
 1983              	.LBE3087:
 1984              		.loc 1 526 0
 1985 0c24 3860FFFF 		li 3,-1
 1986 0c28 4BFFFC5C 		b .L131
 1987              	.LVL174:
 1988              	.L214:
 1989              	.LBB3088:
 1990              	.LBB3081:
 1991              		.loc 7 26 0
 1992 0c2c 386001B8 		li 3,440
 1993              	.LEHB15:
 1994 0c30 48000001 		bl _Znwj
 1995              	.LEHE15:
 1996 0c34 7C7E1B78 		mr 30,3
 1997              	.LEHB16:
 1998 0c38 48000001 		bl _ZN14ProgressWindowC1Ev
 1999              	.LEHE16:
 2000 0c3c 93D40000 		stw 30,_ZN14ProgressWindow8instanceE@l(20)
 2001 0c40 4BFFFF64 		b .L171
 2002              	.L213:
 2003              	.LBE3081:
 2004              	.LBE3088:
 2005              	.LBB3089:
 2006              	.LBB3078:
 2007 0c44 386001B8 		li 3,440
 2008              	.LEHB17:
 2009 0c48 48000001 		bl _Znwj
 2010              	.LEHE17:
 2011 0c4c 7C7E1B78 		mr 30,3
 2012              	.LEHB18:
 2013 0c50 48000001 		bl _ZN14ProgressWindowC1Ev
 2014              	.LEHE18:
 2015 0c54 93D40000 		stw 30,_ZN14ProgressWindow8instanceE@l(20)
 2016 0c58 4BFFFF38 		b .L169
 2017              	.LVL175:
 2018              	.L215:
 2019              	.LBE3078:
 2020              	.LBE3089:
 2021              	.LBB3090:
 2022              	.LBB3085:
 2023 0c5c 386001B8 		li 3,440
 2024              	.LVL176:
 2025              	.LEHB19:
 2026 0c60 48000001 		bl _Znwj
 2027              	.LEHE19:
 2028 0c64 7C7D1B78 		mr 29,3
 2029              	.LEHB20:
 2030 0c68 48000001 		bl _ZN14ProgressWindowC1Ev
 2031              	.LEHE20:
 2032 0c6c 93B40000 		stw 29,_ZN14ProgressWindow8instanceE@l(20)
 2033 0c70 4BFFFF54 		b .L134
 2034              	.L179:
 2035              	.LBE3085:
 2036              	.LBE3090:
 2037              		.loc 1 534 0
 2038 0c74 3860FFFB 		li 3,-5
 2039 0c78 4BFFFC0C 		b .L131
 2040              	.LVL177:
 2041              	.L204:
 2042              		.loc 1 546 0
 2043 0c7c 7F63DB78 		mr 3,27
 2044              	.LVL178:
 2045 0c80 48000001 		bl free
 2046              		.loc 1 547 0
 2047 0c84 3860FFFA 		li 3,-6
 2048 0c88 4BFFFBFC 		b .L131
 2049              	.LVL179:
 2050              	.L216:
 2051              	.LBB3091:
 2052              	.LBB3072:
 2053              	.LBB3067:
 2054              	.LBB3062:
 2055              	.LBB3057:
 2056              	.LBB3052:
 2057              	.LBB3049:
 2058              		.loc 7 26 0
 2059 0c8c 386001B8 		li 3,440
 2060              	.LEHB21:
 2061 0c90 48000001 		bl _Znwj
 2062              	.LEHE21:
 2063 0c94 7C7E1B78 		mr 30,3
 2064              	.LEHB22:
 2065 0c98 48000001 		bl _ZN14ProgressWindowC1Ev
 2066              	.LEHE22:
 2067 0c9c 93D40000 		stw 30,_ZN14ProgressWindow8instanceE@l(20)
 2068 0ca0 4BFFFF68 		b .L149
 2069              	.LVL180:
 2070              	.L209:
 2071              	.LBE3049:
 2072              	.LBE3052:
 2073              	.LBE3057:
 2074              	.LBE3062:
 2075              	.LBB3063:
 2076              	.LBB3037:
 2077              	.LBB3036:
 2078              	.LBB3035:
 2079              	.LBB3033:
 2080              	.LBB3026:
 2081              	.LBB3027:
 2082              	.LBB3028:
 2083              		.loc 6 66 0
 2084 0ca4 8169FFFC 		lwz 11,-4(9)
 2085              	.LVL181:
 2086              	.LBE3028:
 2087              	.LBE3027:
 2088              	.LBE3026:
 2089              		.loc 5 240 0
 2090 0ca8 2F8B0000 		cmpwi 7,11,0
 2091              	.LBB3031:
 2092              	.LBB3030:
 2093              	.LBB3029:
 2094              		.loc 6 67 0
 2095 0cac 396BFFFF 		addi 11,11,-1
 2096 0cb0 9169FFFC 		stw 11,-4(9)
 2097              	.LBE3029:
 2098              	.LBE3030:
 2099              	.LBE3031:
 2100              		.loc 5 240 0
 2101 0cb4 419DFCF4 		bgt+ 7,.L145
 2102              		.loc 5 244 0
 2103 0cb8 389F0008 		addi 4,31,8
 2104              	.LVL182:
 2105 0cbc 48000001 		bl _ZNSs4_Rep10_M_destroyERKSaIcE
 2106              	.LVL183:
 2107 0cc0 4BFFFCE8 		b .L145
 2108              	.LVL184:
 2109              	.L186:
 2110 0cc4 7C7E1B78 		mr 30,3
 2111              	.LVL185:
 2112              	.LBE3033:
 2113              	.LBE3035:
 2114              	.LBE3036:
 2115              	.LBE3037:
 2116              	.LBE3063:
 2117              	.LBE3067:
 2118              	.LBE3072:
 2119              	.LBE3091:
 2120              	.LBB3092:
 2121              	.LBB3086:
 2122              		.loc 7 26 0
 2123 0cc8 7FA3EB78 		mr 3,29
 2124 0ccc 48000001 		bl _ZdlPv
 2125 0cd0 7FC3F378 		mr 3,30
 2126              	.LEHB23:
 2127 0cd4 48000001 		bl _Unwind_Resume
 2128              	.LVL186:
 2129              	.L185:
 2130 0cd8 7C7E1B78 		mr 30,3
 2131              	.LVL187:
 2132              	.LBE3086:
 2133              	.LBE3092:
 2134              	.LBB3093:
 2135              	.LBB3073:
 2136              	.LBB3068:
 2137              		.loc 1 576 0
 2138 0cdc 387F000C 		addi 3,31,12
 2139 0ce0 48000001 		bl _ZNSsD1Ev
 2140 0ce4 7FC3F378 		mr 3,30
 2141              	.LVL188:
 2142              	.L202:
 2143              	.LBE3068:
 2144              	.LBE3073:
 2145              	.LBE3093:
 2146              	.LBB3094:
 2147              	.LBB3082:
 2148              		.loc 7 26 0
 2149 0ce8 48000001 		bl _Unwind_Resume
 2150              	.LEHE23:
 2151              	.LVL189:
 2152              	.L190:
 2153              	.L201:
 2154 0cec 7C7D1B78 		mr 29,3
 2155 0cf0 7FC3F378 		mr 3,30
 2156 0cf4 48000001 		bl _ZdlPv
 2157 0cf8 7FA3EB78 		mr 3,29
 2158 0cfc 4BFFFFEC 		b .L202
 2159              	.LVL190:
 2160              	.L189:
 2161 0d00 4BFFFFEC 		b .L201
 2162              	.LVL191:
 2163              	.L184:
 2164 0d04 4BFFFFE4 		b .L202
 2165              	.LVL192:
 2166              	.L183:
 2167 0d08 4BFFFFE0 		b .L202
 2168              	.LVL193:
 2169              	.L188:
 2170 0d0c 7C7E1B78 		mr 30,3
 2171              	.LVL194:
 2172              	.LBE3082:
 2173              	.LBE3094:
 2174              	.LBB3095:
 2175              	.LBB3074:
 2176              	.LBB3069:
 2177              	.LBB3064:
 2178              	.LBB3058:
 2179              	.LBB3053:
 2180              	.LBB3043:
 2181 0d10 7FA3EB78 		mr 3,29
 2182 0d14 48000001 		bl _ZdlPv
 2183 0d18 7FC3F378 		mr 3,30
 2184 0d1c 4BFFFFCC 		b .L202
 2185              	.LVL195:
 2186              	.L187:
 2187 0d20 4BFFFFCC 		b .L201
 2188              	.LBE3043:
 2189              	.LBE3053:
 2190              	.LBE3058:
 2191              	.LBE3064:
 2192              	.LBE3069:
 2193              	.LBE3074:
 2194              	.LBE3095:
 2195              	.LBE3098:
 2196              		.cfi_endproc
 2197              	.LFE1496:
 2198              		.section	.gcc_except_table
 2199              	.LLSDA1496:
 2200 002e FF       		.byte	0xff
 2201 002f FF       		.byte	0xff
 2202 0030 01       		.byte	0x1
 2203 0031 61       		.uleb128 .LLSDACSE1496-.LLSDACSB1496
 2204              	.LLSDACSB1496:
 2205 0032 64       		.uleb128 .LEHB7-.LFB1496
 2206 0033 BC01     		.uleb128 .LEHE7-.LEHB7
 2207 0035 00       		.uleb128 0
 2208 0036 00       		.uleb128 0
 2209 0037 B003     		.uleb128 .LEHB8-.LFB1496
 2210 0039 7C       		.uleb128 .LEHE8-.LEHB8
 2211 003a BC0B     		.uleb128 .L183-.LFB1496
 2212 003c 00       		.uleb128 0
 2213 003d B804     		.uleb128 .LEHB9-.LFB1496
 2214 003f 04       		.uleb128 .LEHE9-.LEHB9
 2215 0040 B80B     		.uleb128 .L184-.LFB1496
 2216 0042 00       		.uleb128 0
 2217 0043 C004     		.uleb128 .LEHB10-.LFB1496
 2218 0045 04       		.uleb128 .LEHE10-.LEHB10
 2219 0046 8C0B     		.uleb128 .L185-.LFB1496
 2220 0048 00       		.uleb128 0
 2221 0049 F004     		.uleb128 .LEHB11-.LFB1496
 2222 004b AC03     		.uleb128 .LEHE11-.LEHB11
 2223 004d BC0B     		.uleb128 .L183-.LFB1496
 2224 004f 00       		.uleb128 0
 2225 0050 A008     		.uleb128 .LEHB12-.LFB1496
 2226 0052 04       		.uleb128 .LEHE12-.LEHB12
 2227 0053 C00B     		.uleb128 .L188-.LFB1496
 2228 0055 00       		.uleb128 0
 2229 0056 C808     		.uleb128 .LEHB13-.LFB1496
 2230 0058 4C       		.uleb128 .LEHE13-.LEHB13
 2231 0059 00       		.uleb128 0
 2232 005a 00       		.uleb128 0
 2233 005b A409     		.uleb128 .LEHB14-.LFB1496
 2234 005d 20       		.uleb128 .LEHE14-.LEHB14
 2235 005e BC0B     		.uleb128 .L183-.LFB1496
 2236 0060 00       		.uleb128 0
 2237 0061 E409     		.uleb128 .LEHB15-.LFB1496
 2238 0063 04       		.uleb128 .LEHE15-.LEHB15
 2239 0064 00       		.uleb128 0
 2240 0065 00       		.uleb128 0
 2241 0066 EC09     		.uleb128 .LEHB16-.LFB1496
 2242 0068 04       		.uleb128 .LEHE16-.LEHB16
 2243 0069 A00B     		.uleb128 .L190-.LFB1496
 2244 006b 00       		.uleb128 0
 2245 006c FC09     		.uleb128 .LEHB17-.LFB1496
 2246 006e 04       		.uleb128 .LEHE17-.LEHB17
 2247 006f 00       		.uleb128 0
 2248 0070 00       		.uleb128 0
 2249 0071 840A     		.uleb128 .LEHB18-.LFB1496
 2250 0073 04       		.uleb128 .LEHE18-.LEHB18
 2251 0074 B40B     		.uleb128 .L189-.LFB1496
 2252 0076 00       		.uleb128 0
 2253 0077 940A     		.uleb128 .LEHB19-.LFB1496
 2254 0079 04       		.uleb128 .LEHE19-.LEHB19
 2255 007a 00       		.uleb128 0
 2256 007b 00       		.uleb128 0
 2257 007c 9C0A     		.uleb128 .LEHB20-.LFB1496
 2258 007e 04       		.uleb128 .LEHE20-.LEHB20
 2259 007f F80A     		.uleb128 .L186-.LFB1496
 2260 0081 00       		.uleb128 0
 2261 0082 C40A     		.uleb128 .LEHB21-.LFB1496
 2262 0084 04       		.uleb128 .LEHE21-.LEHB21
 2263 0085 BC0B     		.uleb128 .L183-.LFB1496
 2264 0087 00       		.uleb128 0
 2265 0088 CC0A     		.uleb128 .LEHB22-.LFB1496
 2266 008a 04       		.uleb128 .LEHE22-.LEHB22
 2267 008b D40B     		.uleb128 .L187-.LFB1496
 2268 008d 00       		.uleb128 0
 2269 008e 880B     		.uleb128 .LEHB23-.LFB1496
 2270 0090 18       		.uleb128 .LEHE23-.LEHB23
 2271 0091 00       		.uleb128 0
 2272 0092 00       		.uleb128 0
 2273              	.LLSDACSE1496:
 2274              		.section	".text"
 2275              		.size	_ZN7ZipFile10ExtractAllEPKcb, .-_ZN7ZipFile10ExtractAllEPKcb
 2276              		.align 2
 2277              		.globl _ZN7ZipFile8FindFileEPKc
 2278              		.type	_ZN7ZipFile8FindFileEPKc, @function
 2279              	_ZN7ZipFile8FindFileEPKc:
 2280              	.LFB1497:
 2281              		.loc 1 633 0
 2282              		.cfi_startproc
 2283              	.LVL196:
 2284 0d24 7C0802A6 		mflr 0
 2285 0d28 9421FB98 		stwu 1,-1128(1)
 2286              	.LCFI23:
 2287              		.cfi_def_cfa_offset 1128
 2288              		.cfi_register 65, 0
 2289 0d2c 93A1045C 		stw 29,1116(1)
 2290              	.LBB3099:
 2291              		.loc 1 634 0
 2292 0d30 3BA00000 		li 29,0
 2293              		.cfi_offset 29, -12
 2294              	.LBE3099:
 2295              		.loc 1 633 0
 2296 0d34 9001046C 		stw 0,1132(1)
 2297 0d38 93C10460 		stw 30,1120(1)
 2298 0d3c 7C9E2378 		mr 30,4
 2299              		.cfi_offset 30, -8
 2300              		.cfi_offset 65, 4
 2301              	.LBB3102:
 2302              		.loc 1 634 0
 2303 0d40 80030004 		lwz 0,4(3)
 2304              	.LBE3102:
 2305              		.loc 1 633 0
 2306 0d44 93E10464 		stw 31,1124(1)
 2307              		.loc 1 633 0
 2308 0d48 7C7F1B78 		mr 31,3
 2309              		.cfi_offset 31, -4
 2310              	.LBB3103:
 2311              		.loc 1 634 0
 2312 0d4c 2F800000 		cmpwi 7,0,0
 2313 0d50 419E0084 		beq- 7,.L218
 2314              		.loc 1 638 0
 2315 0d54 7C030378 		mr 3,0
 2316              	.LVL197:
 2317 0d58 48000001 		bl unzGoToFirstFile
 2318              	.LVL198:
 2319              		.loc 1 639 0
 2320 0d5c 2F830000 		cmpwi 7,3,0
 2321 0d60 409E0074 		bne- 7,.L218
 2322              	.LVL199:
 2323              	.L221:
 2324              	.LBB3100:
 2325              		.loc 1 645 0
 2326 0d64 807F0004 		lwz 3,4(31)
 2327 0d68 38810008 		addi 4,1,8
 2328 0d6c 38A10058 		addi 5,1,88
 2329 0d70 38C00400 		li 6,1024
 2330 0d74 38E00000 		li 7,0
 2331 0d78 39000000 		li 8,0
 2332 0d7c 39200000 		li 9,0
 2333 0d80 39400000 		li 10,0
 2334 0d84 48000001 		bl unzGetCurrentFileInfo
 2335              		.loc 1 648 0
 2336 0d88 3880002F 		li 4,47
 2337              		.loc 1 645 0
 2338 0d8c 2F830000 		cmpwi 7,3,0
 2339              		.loc 1 648 0
 2340 0d90 38610058 		addi 3,1,88
 2341              		.loc 1 645 0
 2342 0d94 409E002C 		bne- 7,.L219
 2343              		.loc 1 648 0
 2344 0d98 48000001 		bl strrchr
 2345              	.LVL200:
 2346              		.loc 1 649 0
 2347 0d9c 2C030000 		cmpwi 0,3,0
 2348 0da0 41820054 		beq- 0,.L225
 2349              		.loc 1 649 0 is_stmt 0 discriminator 1
 2350 0da4 88030000 		lbz 0,0(3)
 2351 0da8 2F800000 		cmpwi 7,0,0
 2352 0dac 419E0048 		beq- 7,.L225
 2353              	.LVL201:
 2354              	.L220:
 2355              		.loc 1 652 0 is_stmt 1
 2356 0db0 7FC4F378 		mr 4,30
 2357 0db4 48000001 		bl strcasecmp
 2358              	.LVL202:
 2359 0db8 2F830000 		cmpwi 7,3,0
 2360 0dbc 419E0040 		beq- 7,.L226
 2361              	.L219:
 2362              	.LBE3100:
 2363              		.loc 1 655 0
 2364 0dc0 807F0004 		lwz 3,4(31)
 2365 0dc4 48000001 		bl unzGoToNextFile
 2366              		.loc 1 643 0
 2367 0dc8 2F830000 		cmpwi 7,3,0
 2368 0dcc 419EFF98 		beq+ 7,.L221
 2369              		.loc 1 657 0
 2370 0dd0 3BA00000 		li 29,0
 2371              	.L218:
 2372              	.LBE3103:
 2373              		.loc 1 658 0
 2374 0dd4 8001046C 		lwz 0,1132(1)
 2375 0dd8 7FA3EB78 		mr 3,29
 2376 0ddc 83C10460 		lwz 30,1120(1)
 2377              	.LVL203:
 2378 0de0 7C0803A6 		mtlr 0
 2379 0de4 83A1045C 		lwz 29,1116(1)
 2380 0de8 83E10464 		lwz 31,1124(1)
 2381              	.LVL204:
 2382 0dec 38210468 		addi 1,1,1128
 2383              		.cfi_remember_state
 2384              	.LCFI24:
 2385              		.cfi_def_cfa_offset 0
 2386              		.cfi_restore 31
 2387              		.cfi_restore 30
 2388              		.cfi_restore 29
 2389 0df0 4E800020 		blr
 2390              	.LVL205:
 2391              	.L225:
 2392              	.LCFI25:
 2393              		.cfi_restore_state
 2394              	.LBB3104:
 2395              	.LBB3101:
 2396              		.loc 1 650 0
 2397 0df4 38610058 		addi 3,1,88
 2398              	.LVL206:
 2399 0df8 4BFFFFB8 		b .L220
 2400              	.L226:
 2401              		.loc 1 653 0
 2402 0dfc 3BA00001 		li 29,1
 2403 0e00 4BFFFFD4 		b .L218
 2404              	.LBE3101:
 2405              	.LBE3104:
 2406              		.cfi_endproc
 2407              	.LFE1497:
 2408              		.size	_ZN7ZipFile8FindFileEPKc, .-_ZN7ZipFile8FindFileEPKc
 2409              		.align 2
 2410              		.globl _ZN7ZipFile12FindFilePartEPKcRSs
 2411              		.type	_ZN7ZipFile12FindFilePartEPKcRSs, @function
 2412              	_ZN7ZipFile12FindFilePartEPKcRSs:
 2413              	.LFB1498:
 2414              		.loc 1 661 0
 2415              		.cfi_startproc
 2416              	.LVL207:
 2417 0e04 7C0802A6 		mflr 0
 2418 0e08 9421FB98 		stwu 1,-1128(1)
 2419              	.LCFI26:
 2420              		.cfi_def_cfa_offset 1128
 2421              		.cfi_register 65, 0
 2422 0e0c 93810458 		stw 28,1112(1)
 2423              	.LBB3112:
 2424              		.loc 1 662 0
 2425 0e10 3B800000 		li 28,0
 2426              		.cfi_offset 28, -16
 2427              	.LBE3112:
 2428              		.loc 1 661 0
 2429 0e14 9001046C 		stw 0,1132(1)
 2430 0e18 93A1045C 		stw 29,1116(1)
 2431 0e1c 7CBD2B78 		mr 29,5
 2432              		.cfi_offset 29, -12
 2433              		.cfi_offset 65, 4
 2434              	.LBB3122:
 2435              		.loc 1 662 0
 2436 0e20 80030004 		lwz 0,4(3)
 2437              	.LBE3122:
 2438              		.loc 1 661 0
 2439 0e24 93C10460 		stw 30,1120(1)
 2440 0e28 7C9E2378 		mr 30,4
 2441              		.cfi_offset 30, -8
 2442              	.LBB3123:
 2443              		.loc 1 662 0
 2444 0e2c 2F800000 		cmpwi 7,0,0
 2445              	.LBE3123:
 2446              		.loc 1 661 0
 2447 0e30 93E10464 		stw 31,1124(1)
 2448              		.loc 1 661 0
 2449 0e34 7C7F1B78 		mr 31,3
 2450              		.cfi_offset 31, -4
 2451              	.LBB3124:
 2452              		.loc 1 662 0
 2453 0e38 419E0014 		beq- 7,.L229
 2454              		.loc 1 666 0
 2455 0e3c 7C030378 		mr 3,0
 2456              	.LVL208:
 2457 0e40 48000001 		bl unzGoToFirstFile
 2458              	.LVL209:
 2459              		.loc 1 667 0
 2460 0e44 2F830000 		cmpwi 7,3,0
 2461 0e48 41BE004C 		beq+ 7,.L231
 2462              	.LVL210:
 2463              	.L229:
 2464              	.LBE3124:
 2465              		.loc 1 685 0
 2466 0e4c 8001046C 		lwz 0,1132(1)
 2467 0e50 7F83E378 		mr 3,28
 2468 0e54 83A1045C 		lwz 29,1116(1)
 2469              	.LVL211:
 2470 0e58 7C0803A6 		mtlr 0
 2471 0e5c 83810458 		lwz 28,1112(1)
 2472 0e60 83C10460 		lwz 30,1120(1)
 2473              	.LVL212:
 2474 0e64 83E10464 		lwz 31,1124(1)
 2475              	.LVL213:
 2476 0e68 38210468 		addi 1,1,1128
 2477              		.cfi_remember_state
 2478              	.LCFI27:
 2479              		.cfi_def_cfa_offset 0
 2480              		.cfi_restore 31
 2481              		.cfi_restore 30
 2482              		.cfi_restore 29
 2483              		.cfi_restore 28
 2484 0e6c 4E800020 		blr
 2485              	.LVL214:
 2486              	.L238:
 2487              	.LCFI28:
 2488              		.cfi_restore_state
 2489              	.LBB3125:
 2490              		.loc 1 676 0
 2491 0e70 7FC4F378 		mr 4,30
 2492 0e74 38610058 		addi 3,1,88
 2493 0e78 48000001 		bl strcasestr
 2494 0e7c 2F830000 		cmpwi 7,3,0
 2495 0e80 409E0078 		bne- 7,.L236
 2496              		.loc 1 682 0
 2497 0e84 807F0004 		lwz 3,4(31)
 2498 0e88 48000001 		bl unzGoToNextFile
 2499              		.loc 1 671 0
 2500 0e8c 2F830000 		cmpwi 7,3,0
 2501 0e90 409E0040 		bne- 7,.L237
 2502              	.L231:
 2503              		.loc 1 673 0
 2504 0e94 807F0004 		lwz 3,4(31)
 2505 0e98 38810008 		addi 4,1,8
 2506 0e9c 38A10058 		addi 5,1,88
 2507 0ea0 38C00400 		li 6,1024
 2508 0ea4 38E00000 		li 7,0
 2509 0ea8 39000000 		li 8,0
 2510 0eac 39200000 		li 9,0
 2511 0eb0 39400000 		li 10,0
 2512 0eb4 48000001 		bl unzGetCurrentFileInfo
 2513 0eb8 2F830000 		cmpwi 7,3,0
 2514 0ebc 41BEFFB4 		beq- 7,.L238
 2515              		.loc 1 682 0
 2516 0ec0 807F0004 		lwz 3,4(31)
 2517 0ec4 48000001 		bl unzGoToNextFile
 2518              		.loc 1 671 0
 2519 0ec8 2F830000 		cmpwi 7,3,0
 2520 0ecc 419EFFC8 		beq+ 7,.L231
 2521              	.L237:
 2522              	.LBE3125:
 2523              		.loc 1 685 0
 2524 0ed0 8001046C 		lwz 0,1132(1)
 2525              	.LBB3126:
 2526              		.loc 1 684 0
 2527 0ed4 3B800000 		li 28,0
 2528              	.LBE3126:
 2529              		.loc 1 685 0
 2530 0ed8 7F83E378 		mr 3,28
 2531 0edc 83A1045C 		lwz 29,1116(1)
 2532              	.LVL215:
 2533 0ee0 7C0803A6 		mtlr 0
 2534 0ee4 83810458 		lwz 28,1112(1)
 2535 0ee8 83C10460 		lwz 30,1120(1)
 2536              	.LVL216:
 2537 0eec 83E10464 		lwz 31,1124(1)
 2538              	.LVL217:
 2539 0ef0 38210468 		addi 1,1,1128
 2540              		.cfi_remember_state
 2541              		.cfi_restore 28
 2542              		.cfi_restore 29
 2543              		.cfi_restore 30
 2544              		.cfi_restore 31
 2545              	.LCFI29:
 2546              		.cfi_def_cfa_offset 0
 2547 0ef4 4E800020 		blr
 2548              	.LVL218:
 2549              	.L236:
 2550              	.LCFI30:
 2551              		.cfi_restore_state
 2552              	.LBB3127:
 2553              	.LBB3113:
 2554              	.LBB3114:
 2555              	.LBB3115:
 2556              	.LBB3116:
 2557              	.LBB3117:
 2558              		.file 8 "d:\\devkitpro\\devkitppc\\bin\\../lib/gcc/powerpc-eabi/4.6.3/../../../../powerpc-eabi/inc
 2559              		.loc 8 261 0
 2560 0ef8 38610058 		addi 3,1,88
 2561              	.LVL219:
 2562              	.LBE3117:
 2563              	.LBE3116:
 2564              		.loc 1 679 0
 2565 0efc 3B800001 		li 28,1
 2566              	.LBB3120:
 2567              	.LBB3118:
 2568              		.loc 8 261 0
 2569 0f00 48000001 		bl strlen
 2570              	.LVL220:
 2571              	.LBE3118:
 2572              	.LBE3120:
 2573              		.loc 5 1121 0
 2574 0f04 38810058 		addi 4,1,88
 2575              	.LVL221:
 2576              	.LBB3121:
 2577              	.LBB3119:
 2578              		.loc 8 261 0
 2579 0f08 7C651B78 		mr 5,3
 2580              	.LBE3119:
 2581              	.LBE3121:
 2582              		.loc 5 1121 0
 2583 0f0c 7FA3EB78 		mr 3,29
 2584 0f10 48000001 		bl _ZNSs6assignEPKcj
 2585              	.LVL222:
 2586 0f14 4BFFFF38 		b .L229
 2587              	.LBE3115:
 2588              	.LBE3114:
 2589              	.LBE3113:
 2590              	.LBE3127:
 2591              		.cfi_endproc
 2592              	.LFE1498:
 2593              		.size	_ZN7ZipFile12FindFilePartEPKcRSs, .-_ZN7ZipFile12FindFilePartEPKcRSs
 2594              		.section	.text._ZNSt6vectorIP17ArchiveFileStructSaIS1_EE13_M_insert_auxEN9__gnu_cxx17__normal_iter
 2595              		.align 2
 2596              		.weak	_ZNSt6vectorIP17ArchiveFileStructSaIS1_EE13_M_insert_auxEN9__gnu_cxx17__normal_iteratorIPS1_
 2597              		.type	_ZNSt6vectorIP17ArchiveFileStructSaIS1_EE13_M_insert_auxEN9__gnu_cxx17__normal_iteratorIPS1_
 2598              	_ZNSt6vectorIP17ArchiveFileStructSaIS1_EE13_M_insert_auxEN9__gnu_cxx17__normal_iteratorIPS1_S3_EERK
 2599              	.LFB1629:
 2600              		.file 9 "d:\\devkitpro\\devkitppc\\bin\\../lib/gcc/powerpc-eabi/4.6.3/../../../../powerpc-eabi/inc
 2601              		.loc 9 300 0
 2602              		.cfi_startproc
 2603              	.LVL223:
 2604 0000 7C0802A6 		mflr 0
 2605 0004 9421FFD8 		stwu 1,-40(1)
 2606              	.LCFI31:
 2607              		.cfi_def_cfa_offset 40
 2608              		.cfi_register 65, 0
 2609 0008 93810018 		stw 28,24(1)
 2610 000c 9001002C 		stw 0,44(1)
 2611 0010 93C10020 		stw 30,32(1)
 2612              	.LBB3128:
 2613              		.loc 9 304 0
 2614 0014 83830004 		lwz 28,4(3)
 2615              		.cfi_offset 30, -8
 2616              		.cfi_offset 65, 4
 2617              		.cfi_offset 28, -16
 2618 0018 80030008 		lwz 0,8(3)
 2619              	.LBE3128:
 2620              		.loc 9 300 0
 2621 001c 93E10024 		stw 31,36(1)
 2622 0020 7C7F1B78 		mr 31,3
 2623              		.cfi_offset 31, -4
 2624              	.LBB3275:
 2625              		.loc 9 304 0
 2626 0024 7F9C0000 		cmpw 7,28,0
 2627              	.LBE3275:
 2628              		.loc 9 300 0
 2629 0028 93410010 		stw 26,16(1)
 2630 002c 93610014 		stw 27,20(1)
 2631 0030 93A1001C 		stw 29,28(1)
 2632              		.loc 9 300 0
 2633 0034 83C40000 		lwz 30,0(4)
 2634              	.LVL224:
 2635              	.LBB3276:
 2636              		.loc 9 304 0
 2637 0038 419E0078 		beq- 7,.L240
 2638              		.cfi_offset 29, -12
 2639              		.cfi_offset 27, -20
 2640              		.cfi_offset 26, -24
 2641              	.LVL225:
 2642              	.LBB3129:
 2643              	.LBB3130:
 2644              	.LBB3131:
 2645              		.loc 4 108 0
 2646 003c 2F9C0000 		cmpwi 7,28,0
 2647 0040 38600000 		li 3,0
 2648              	.LVL226:
 2649 0044 419E0010 		beq- 7,.L241
 2650 0048 801CFFFC 		lwz 0,-4(28)
 2651 004c 901C0000 		stw 0,0(28)
 2652 0050 807F0004 		lwz 3,4(31)
 2653              	.L241:
 2654              	.LBE3131:
 2655              	.LBE3130:
 2656              		.loc 9 313 0
 2657 0054 3803FFFC 		addi 0,3,-4
 2658              		.loc 9 309 0
 2659 0058 39230004 		addi 9,3,4
 2660              	.LBB3132:
 2661              	.LBB3133:
 2662              	.LBB3134:
 2663              	.LBB3135:
 2664              	.LBB3136:
 2665              	.LBB3137:
 2666              		.file 10 "d:\\devkitpro\\devkitppc\\bin\\../lib/gcc/powerpc-eabi/4.6.3/../../../../powerpc-eabi/in
 2667              		.loc 10 559 0
 2668 005c 7C1E0050 		subf 0,30,0
 2669              	.LBE3137:
 2670              	.LBE3136:
 2671              	.LBE3135:
 2672              	.LBE3134:
 2673              	.LBE3133:
 2674              	.LBE3132:
 2675              		.loc 9 309 0
 2676 0060 913F0004 		stw 9,4(31)
 2677              	.LBB3153:
 2678              	.LBB3150:
 2679              	.LBB3147:
 2680              	.LBB3144:
 2681              	.LBB3141:
 2682              	.LBB3138:
 2683              		.loc 10 560 0
 2684 0064 7C001671 		srawi. 0,0,2
 2685              	.LBE3138:
 2686              	.LBE3141:
 2687              	.LBE3144:
 2688              	.LBE3147:
 2689              	.LBE3150:
 2690              	.LBE3153:
 2691              		.loc 9 311 0
 2692 0068 83E50000 		lwz 31,0(5)
 2693              	.LVL227:
 2694              	.LBB3154:
 2695              	.LBB3151:
 2696              	.LBB3148:
 2697              	.LBB3145:
 2698              	.LBB3142:
 2699              	.LBB3139:
 2700              		.loc 10 560 0
 2701 006c 40820030 		bne- 0,.L256
 2702              	.LVL228:
 2703              	.L242:
 2704              	.LBE3139:
 2705              	.LBE3142:
 2706              	.LBE3145:
 2707              	.LBE3148:
 2708              	.LBE3151:
 2709              	.LBE3154:
 2710              	.LBE3129:
 2711              	.LBE3276:
 2712              		.loc 9 373 0
 2713 0070 8001002C 		lwz 0,44(1)
 2714              	.LBB3277:
 2715              	.LBB3156:
 2716              		.loc 9 317 0
 2717 0074 93FE0000 		stw 31,0(30)
 2718              	.LBE3156:
 2719              	.LBE3277:
 2720              		.loc 9 373 0
 2721 0078 7C0803A6 		mtlr 0
 2722 007c 83410010 		lwz 26,16(1)
 2723 0080 83610014 		lwz 27,20(1)
 2724 0084 83810018 		lwz 28,24(1)
 2725              	.LVL229:
 2726 0088 83A1001C 		lwz 29,28(1)
 2727 008c 83C10020 		lwz 30,32(1)
 2728              	.LVL230:
 2729 0090 83E10024 		lwz 31,36(1)
 2730              	.LVL231:
 2731 0094 38210028 		addi 1,1,40
 2732              		.cfi_remember_state
 2733              	.LCFI32:
 2734              		.cfi_def_cfa_offset 0
 2735              		.cfi_restore 31
 2736              		.cfi_restore 30
 2737              		.cfi_restore 29
 2738              		.cfi_restore 28
 2739              		.cfi_restore 27
 2740              		.cfi_restore 26
 2741 0098 4E800020 		blr
 2742              	.LVL232:
 2743              	.L256:
 2744              	.LCFI33:
 2745              		.cfi_restore_state
 2746              	.LBB3278:
 2747              	.LBB3157:
 2748              	.LBB3155:
 2749              	.LBB3152:
 2750              	.LBB3149:
 2751              	.LBB3146:
 2752              	.LBB3143:
 2753              	.LBB3140:
 2754              		.loc 10 561 0
 2755 009c 5405103A 		slwi 5,0,2
 2756              	.LVL233:
 2757 00a0 7FC4F378 		mr 4,30
 2758 00a4 7C651850 		subf 3,5,3
 2759              	.LVL234:
 2760 00a8 48000001 		bl memmove
 2761              	.LVL235:
 2762 00ac 4BFFFFC4 		b .L242
 2763              	.LVL236:
 2764              	.L240:
 2765              	.LBE3140:
 2766              	.LBE3143:
 2767              	.LBE3146:
 2768              	.LBE3149:
 2769              	.LBE3152:
 2770              	.LBE3155:
 2771              	.LBE3157:
 2772              	.LBB3158:
 2773              	.LBB3159:
 2774              	.LBB3160:
 2775              	.LBB3161:
 2776              	.LBB3162:
 2777              		.loc 2 571 0
 2778 00b0 83630000 		lwz 27,0(3)
 2779 00b4 7F9BE050 		subf 28,27,28
 2780              	.LBE3162:
 2781              	.LBE3161:
 2782              	.LBB3163:
 2783              	.LBB3164:
 2784              		.loc 10 215 0
 2785 00b8 7F9C1671 		srawi. 28,28,2
 2786 00bc 418200C4 		beq- 0,.L244
 2787              	.LBE3164:
 2788              	.LBE3163:
 2789              		.loc 2 1244 0
 2790 00c0 5780083C 		slwi 0,28,1
 2791              	.LVL237:
 2792              		.loc 2 1245 0
 2793 00c4 7F9C0040 		cmplw 7,28,0
 2794 00c8 409D00F4 		ble- 7,.L257
 2795              	.L245:
 2796              	.LVL238:
 2797              	.LBE3160:
 2798              	.LBE3159:
 2799              	.LBB3167:
 2800              	.LBB3168:
 2801              		.file 11 "d:\\devkitpro\\devkitppc\\bin\\../lib/gcc/powerpc-eabi/4.6.3/../../../../powerpc-eabi/in
 2802              		.loc 11 892 0
 2803 00cc 7F7BF050 		subf 27,27,30
 2804              	.LBE3168:
 2805              	.LBE3167:
 2806              		.loc 9 326 0
 2807 00d0 3B80FFFC 		li 28,-4
 2808              	.LBB3174:
 2809              	.LBB3169:
 2810              		.loc 11 892 0
 2811 00d4 7F7B1670 		srawi 27,27,2
 2812              	.LVL239:
 2813              	.L251:
 2814              	.LBE3169:
 2815              	.LBE3174:
 2816              	.LBB3175:
 2817              	.LBB3176:
 2818              	.LBB3177:
 2819              	.LBB3178:
 2820              		.loc 4 92 0
 2821 00d8 7F83E378 		mr 3,28
 2822              	.LVL240:
 2823 00dc 90A10008 		stw 5,8(1)
 2824 00e0 48000001 		bl _Znwj
 2825              	.LVL241:
 2826 00e4 80A10008 		lwz 5,8(1)
 2827 00e8 7C7D1B78 		mr 29,3
 2828              	.L246:
 2829              	.LVL242:
 2830              	.LBE3178:
 2831              	.LBE3177:
 2832              	.LBE3176:
 2833              	.LBE3175:
 2834              		.loc 9 335 0
 2835 00ec 577B103A 		slwi 27,27,2
 2836              	.LVL243:
 2837 00f0 7C1DDA14 		add 0,29,27
 2838              	.LVL244:
 2839              	.LBB3181:
 2840              	.LBB3182:
 2841              		.loc 4 108 0
 2842 00f4 2F800000 		cmpwi 7,0,0
 2843 00f8 419E000C 		beq- 7,.L247
 2844 00fc 80050000 		lwz 0,0(5)
 2845              	.LVL245:
 2846 0100 7C1DD92E 		stwx 0,29,27
 2847              	.L247:
 2848              	.LVL246:
 2849              	.LBE3182:
 2850              	.LBE3181:
 2851              		.loc 9 343 0
 2852 0104 809F0000 		lwz 4,0(31)
 2853              	.LVL247:
 2854              	.LBB3183:
 2855              	.LBB3184:
 2856              	.LBB3185:
 2857              	.LBB3186:
 2858              	.LBB3187:
 2859              	.LBB3188:
 2860              	.LBB3189:
 2861              	.LBB3190:
 2862              	.LBB3191:
 2863              	.LBB3192:
 2864              	.LBB3193:
 2865              		.loc 10 365 0
 2866 0108 3B600000 		li 27,0
 2867              		.loc 10 364 0
 2868 010c 7C04F050 		subf 0,4,30
 2869              	.LVL248:
 2870              		.loc 10 365 0
 2871 0110 7C001671 		srawi. 0,0,2
 2872              	.LVL249:
 2873 0114 4082007C 		bne- 0,.L258
 2874              	.LVL250:
 2875              	.L248:
 2876              	.LBE3193:
 2877              	.LBE3192:
 2878              	.LBE3191:
 2879              	.LBE3190:
 2880              	.LBE3189:
 2881              	.LBE3188:
 2882              	.LBE3187:
 2883              	.LBE3186:
 2884              	.LBE3185:
 2885              	.LBE3184:
 2886              	.LBE3183:
 2887              	.LBB3214:
 2888              	.LBB3215:
 2889              	.LBB3216:
 2890              	.LBB3217:
 2891              	.LBB3218:
 2892              	.LBB3219:
 2893              	.LBB3220:
 2894              	.LBB3221:
 2895              	.LBB3222:
 2896              	.LBB3223:
 2897              	.LBB3224:
 2898              		.loc 10 364 0
 2899 0118 801F0004 		lwz 0,4(31)
 2900              	.LBE3224:
 2901              	.LBE3223:
 2902              	.LBE3222:
 2903              	.LBE3221:
 2904              	.LBE3220:
 2905              	.LBE3219:
 2906              	.LBE3218:
 2907              	.LBE3217:
 2908              	.LBE3216:
 2909              	.LBE3215:
 2910              	.LBE3214:
 2911              	.LBB3255:
 2912              	.LBB3212:
 2913              	.LBB3210:
 2914              	.LBB3208:
 2915              	.LBB3206:
 2916              	.LBB3204:
 2917              	.LBB3202:
 2918              	.LBB3200:
 2919              	.LBB3198:
 2920              	.LBB3196:
 2921              	.LBB3194:
 2922              		.loc 10 367 0
 2923 011c 7F7DDA14 		add 27,29,27
 2924              	.LVL251:
 2925              	.LBE3194:
 2926              	.LBE3196:
 2927              	.LBE3198:
 2928              	.LBE3200:
 2929              	.LBE3202:
 2930              	.LBE3204:
 2931              	.LBE3206:
 2932              	.LBE3208:
 2933              	.LBE3210:
 2934              	.LBE3212:
 2935              	.LBE3255:
 2936              		.loc 9 347 0
 2937 0120 3B5B0004 		addi 26,27,4
 2938              	.LBB3256:
 2939              	.LBB3252:
 2940              	.LBB3249:
 2941              	.LBB3246:
 2942              	.LBB3243:
 2943              	.LBB3240:
 2944              	.LBB3237:
 2945              	.LBB3234:
 2946              	.LBB3231:
 2947              	.LBB3228:
 2948              	.LBB3225:
 2949              		.loc 10 365 0
 2950 0124 3B600000 		li 27,0
 2951              	.LVL252:
 2952              		.loc 10 364 0
 2953 0128 7C1E0050 		subf 0,30,0
 2954              	.LVL253:
 2955              		.loc 10 365 0
 2956 012c 7C001671 		srawi. 0,0,2
 2957              	.LVL254:
 2958 0130 40820074 		bne- 0,.L259
 2959              	.LVL255:
 2960              	.L249:
 2961              	.LBE3225:
 2962              	.LBE3228:
 2963              	.LBE3231:
 2964              	.LBE3234:
 2965              	.LBE3237:
 2966              	.LBE3240:
 2967              	.LBE3243:
 2968              	.LBE3246:
 2969              	.LBE3249:
 2970              	.LBE3252:
 2971              	.LBE3256:
 2972              		.loc 9 366 0
 2973 0134 807F0000 		lwz 3,0(31)
 2974              	.LBB3257:
 2975              	.LBB3253:
 2976              	.LBB3250:
 2977              	.LBB3247:
 2978              	.LBB3244:
 2979              	.LBB3241:
 2980              	.LBB3238:
 2981              	.LBB3235:
 2982              	.LBB3232:
 2983              	.LBB3229:
 2984              	.LBB3226:
 2985              		.loc 10 367 0
 2986 0138 7F7ADA14 		add 27,26,27
 2987              	.LVL256:
 2988              	.LBE3226:
 2989              	.LBE3229:
 2990              	.LBE3232:
 2991              	.LBE3235:
 2992              	.LBE3238:
 2993              	.LBE3241:
 2994              	.LBE3244:
 2995              	.LBE3247:
 2996              	.LBE3250:
 2997              	.LBE3253:
 2998              	.LBE3257:
 2999              	.LBB3258:
 3000              	.LBB3259:
 3001              		.loc 2 155 0
 3002 013c 2F830000 		cmpwi 7,3,0
 3003 0140 419E0008 		beq- 7,.L250
 3004              	.LVL257:
 3005              	.LBB3260:
 3006              	.LBB3261:
 3007              		.loc 4 98 0
 3008 0144 48000001 		bl _ZdlPv
 3009              	.LVL258:
 3010              	.L250:
 3011              	.LBE3261:
 3012              	.LBE3260:
 3013              	.LBE3259:
 3014              	.LBE3258:
 3015              	.LBE3158:
 3016              	.LBE3278:
 3017              		.loc 9 373 0
 3018 0148 8001002C 		lwz 0,44(1)
 3019              	.LBB3279:
 3020              	.LBB3272:
 3021              		.loc 9 371 0
 3022 014c 7F9DE214 		add 28,29,28
 3023              		.loc 9 369 0
 3024 0150 93BF0000 		stw 29,0(31)
 3025              	.LBE3272:
 3026              	.LBE3279:
 3027              		.loc 9 373 0
 3028 0154 7C0803A6 		mtlr 0
 3029              	.LBB3280:
 3030              	.LBB3273:
 3031              		.loc 9 370 0
 3032 0158 937F0004 		stw 27,4(31)
 3033              		.loc 9 371 0
 3034 015c 939F0008 		stw 28,8(31)
 3035              	.LBE3273:
 3036              	.LBE3280:
 3037              		.loc 9 373 0
 3038 0160 83410010 		lwz 26,16(1)
 3039              	.LVL259:
 3040 0164 83610014 		lwz 27,20(1)
 3041              	.LVL260:
 3042 0168 83810018 		lwz 28,24(1)
 3043 016c 83A1001C 		lwz 29,28(1)
 3044              	.LVL261:
 3045 0170 83C10020 		lwz 30,32(1)
 3046              	.LVL262:
 3047 0174 83E10024 		lwz 31,36(1)
 3048              	.LVL263:
 3049 0178 38210028 		addi 1,1,40
 3050              		.cfi_remember_state
 3051              		.cfi_restore 26
 3052              		.cfi_restore 27
 3053              		.cfi_restore 28
 3054              		.cfi_restore 29
 3055              		.cfi_restore 30
 3056              		.cfi_restore 31
 3057              	.LCFI34:
 3058              		.cfi_def_cfa_offset 0
 3059 017c 4E800020 		blr
 3060              	.LVL264:
 3061              	.L244:
 3062              	.LCFI35:
 3063              		.cfi_restore_state
 3064              	.LBB3281:
 3065              	.LBB3274:
 3066              	.LBB3262:
 3067              	.LBB3170:
 3068              		.loc 11 892 0
 3069 0180 7F7BF050 		subf 27,27,30
 3070              	.LBE3170:
 3071              	.LBE3262:
 3072              		.loc 9 326 0
 3073 0184 3B800004 		li 28,4
 3074              	.LBB3263:
 3075              	.LBB3171:
 3076              		.loc 11 892 0
 3077 0188 7F7B1670 		srawi 27,27,2
 3078              	.LVL265:
 3079 018c 4BFFFF4C 		b .L251
 3080              	.LVL266:
 3081              	.L258:
 3082              	.LBE3171:
 3083              	.LBE3263:
 3084              	.LBB3264:
 3085              	.LBB3213:
 3086              	.LBB3211:
 3087              	.LBB3209:
 3088              	.LBB3207:
 3089              	.LBB3205:
 3090              	.LBB3203:
 3091              	.LBB3201:
 3092              	.LBB3199:
 3093              	.LBB3197:
 3094              	.LBB3195:
 3095              		.loc 10 366 0
 3096 0190 541B103A 		slwi 27,0,2
 3097 0194 7FA3EB78 		mr 3,29
 3098 0198 7F65DB78 		mr 5,27
 3099              	.LVL267:
 3100 019c 48000001 		bl memmove
 3101              	.LVL268:
 3102 01a0 4BFFFF78 		b .L248
 3103              	.LVL269:
 3104              	.L259:
 3105              	.LBE3195:
 3106              	.LBE3197:
 3107              	.LBE3199:
 3108              	.LBE3201:
 3109              	.LBE3203:
 3110              	.LBE3205:
 3111              	.LBE3207:
 3112              	.LBE3209:
 3113              	.LBE3211:
 3114              	.LBE3213:
 3115              	.LBE3264:
 3116              	.LBB3265:
 3117              	.LBB3254:
 3118              	.LBB3251:
 3119              	.LBB3248:
 3120              	.LBB3245:
 3121              	.LBB3242:
 3122              	.LBB3239:
 3123              	.LBB3236:
 3124              	.LBB3233:
 3125              	.LBB3230:
 3126              	.LBB3227:
 3127 01a4 541B103A 		slwi 27,0,2
 3128 01a8 7F43D378 		mr 3,26
 3129 01ac 7FC4F378 		mr 4,30
 3130 01b0 7F65DB78 		mr 5,27
 3131 01b4 48000001 		bl memmove
 3132              	.LVL270:
 3133 01b8 4BFFFF7C 		b .L249
 3134              	.LVL271:
 3135              	.L257:
 3136              	.LBE3227:
 3137              	.LBE3230:
 3138              	.LBE3233:
 3139              	.LBE3236:
 3140              	.LBE3239:
 3141              	.LBE3242:
 3142              	.LBE3245:
 3143              	.LBE3248:
 3144              	.LBE3251:
 3145              	.LBE3254:
 3146              	.LBE3265:
 3147              	.LBB3266:
 3148              	.LBB3165:
 3149              		.loc 2 1245 0
 3150 01bc 3D203FFF 		lis 9,0x3fff
 3151 01c0 6129FFFF 		ori 9,9,65535
 3152 01c4 7F804840 		cmplw 7,0,9
 3153 01c8 419DFF04 		bgt+ 7,.L245
 3154              	.LBE3165:
 3155              	.LBE3266:
 3156              	.LBB3267:
 3157              	.LBB3179:
 3158              		.loc 2 150 0
 3159 01cc 2F800000 		cmpwi 7,0,0
 3160              	.LBE3179:
 3161              	.LBE3267:
 3162              	.LBB3268:
 3163              	.LBB3172:
 3164              		.loc 11 892 0
 3165 01d0 7F7BF050 		subf 27,27,30
 3166              	.LBE3172:
 3167              	.LBE3268:
 3168              	.LBB3269:
 3169              	.LBB3166:
 3170              		.loc 2 1245 0
 3171 01d4 579C1838 		slwi 28,28,3
 3172              	.LVL272:
 3173              	.LBE3166:
 3174              	.LBE3269:
 3175              	.LBB3270:
 3176              	.LBB3173:
 3177              		.loc 11 892 0
 3178 01d8 7F7B1670 		srawi 27,27,2
 3179              	.LVL273:
 3180              	.LBE3173:
 3181              	.LBE3270:
 3182              	.LBB3271:
 3183              	.LBB3180:
 3184              		.loc 2 150 0
 3185 01dc 3BA00000 		li 29,0
 3186 01e0 419EFF0C 		beq+ 7,.L246
 3187 01e4 4BFFFEF4 		b .L251
 3188              	.LBE3180:
 3189              	.LBE3271:
 3190              	.LBE3274:
 3191              	.LBE3281:
 3192              		.cfi_endproc
 3193              	.LFE1629:
 3194              		.size	_ZNSt6vectorIP17ArchiveFileStructSaIS1_EE13_M_insert_auxEN9__gnu_cxx17__normal_iteratorIPS1_
 3195              		.section	".text"
 3196              		.align 2
 3197              		.globl _ZN7ZipFile16CheckMissingPathEPKc
 3198              		.type	_ZN7ZipFile16CheckMissingPathEPKc, @function
 3199              	_ZN7ZipFile16CheckMissingPathEPKc:
 3200              	.LFB1491:
 3201              		.loc 1 185 0
 3202              		.cfi_startproc
 3203              	.LVL274:
 3204 0f18 9421FFC8 		stwu 1,-56(1)
 3205              	.LCFI36:
 3206              		.cfi_def_cfa_offset 56
 3207 0f1c 7C0802A6 		mflr 0
 3208 0f20 93A1002C 		stw 29,44(1)
 3209              	.LBB3303:
 3210              		.loc 1 186 0
 3211 0f24 7C9D2379 		mr. 29,4
 3212              		.cfi_offset 29, -12
 3213              		.cfi_register 65, 0
 3214              	.LBE3303:
 3215              		.loc 1 185 0
 3216 0f28 93610024 		stw 27,36(1)
 3217 0f2c 7C7B1B78 		mr 27,3
 3218              		.cfi_offset 27, -20
 3219 0f30 9001003C 		stw 0,60(1)
 3220 0f34 93810028 		stw 28,40(1)
 3221 0f38 93C10030 		stw 30,48(1)
 3222 0f3c 93E10034 		stw 31,52(1)
 3223              	.LBB3335:
 3224              		.loc 1 186 0
 3225 0f40 41820050 		beq- 0,.L260
 3226              		.cfi_offset 31, -4
 3227              		.cfi_offset 30, -8
 3228              		.cfi_offset 28, -16
 3229              		.cfi_offset 65, 4
 3230              	.LVL275:
 3231              		.loc 1 685 0 discriminator 1
 3232 0f44 83C30014 		lwz 30,20(3)
 3233              	.LBB3304:
 3234              	.LBB3305:
 3235              		.loc 2 571 0 discriminator 1
 3236 0f48 83830018 		lwz 28,24(3)
 3237 0f4c 7F9EE050 		subf 28,30,28
 3238              	.LBE3305:
 3239              	.LBE3304:
 3240              		.loc 1 190 0 discriminator 1
 3241 0f50 7F9C1671 		srawi. 28,28,2
 3242 0f54 41820060 		beq- 0,.L262
 3243              		.loc 1 190 0 is_stmt 0
 3244 0f58 3BE00000 		li 31,0
 3245 0f5c 48000010 		b .L264
 3246              	.LVL276:
 3247              	.L269:
 3248 0f60 3BFF0001 		addi 31,31,1
 3249              	.LVL277:
 3250 0f64 7F9FE000 		cmpw 7,31,28
 3251 0f68 419E004C 		beq- 7,.L262
 3252              	.LVL278:
 3253              	.L264:
 3254              		.loc 1 192 0 is_stmt 1
 3255 0f6c 57E0103A 		slwi 0,31,2
 3256 0f70 7FA4EB78 		mr 4,29
 3257 0f74 7D3E002E 		lwzx 9,30,0
 3258 0f78 80690000 		lwz 3,0(9)
 3259 0f7c 48000001 		bl strcasecmp
 3260 0f80 2F830000 		cmpwi 7,3,0
 3261 0f84 409EFFDC 		bne+ 7,.L269
 3262              	.LBB3306:
 3263              		.loc 1 196 0
 3264 0f88 7F9CF800 		cmpw 7,28,31
 3265 0f8c 419E0028 		beq- 7,.L262
 3266              	.LVL279:
 3267              	.L260:
 3268              	.LBE3306:
 3269              	.LBE3335:
 3270              		.loc 1 211 0
 3271 0f90 8001003C 		lwz 0,60(1)
 3272 0f94 83610024 		lwz 27,36(1)
 3273              	.LVL280:
 3274 0f98 7C0803A6 		mtlr 0
 3275 0f9c 83810028 		lwz 28,40(1)
 3276 0fa0 83A1002C 		lwz 29,44(1)
 3277              	.LVL281:
 3278 0fa4 83C10030 		lwz 30,48(1)
 3279 0fa8 83E10034 		lwz 31,52(1)
 3280 0fac 38210038 		addi 1,1,56
 3281              		.cfi_remember_state
 3282              	.LCFI37:
 3283              		.cfi_def_cfa_offset 0
 3284              		.cfi_restore 31
 3285              		.cfi_restore 30
 3286              		.cfi_restore 29
 3287              		.cfi_restore 28
 3288              		.cfi_restore 27
 3289 0fb0 4E800020 		blr
 3290              	.LVL282:
 3291              	.L262:
 3292              	.LCFI38:
 3293              		.cfi_restore_state
 3294              	.LBB3336:
 3295              	.LBB3332:
 3296              	.LBB3307:
 3297              		.loc 1 198 0
 3298 0fb4 7FA3EB78 		mr 3,29
 3299 0fb8 48000001 		bl strlen
 3300 0fbc 7C7E1B78 		mr 30,3
 3301              	.LVL283:
 3302              		.loc 1 199 0
 3303 0fc0 38600028 		li 3,40
 3304              	.LVL284:
 3305 0fc4 48000001 		bl _Znwj
 3306 0fc8 7C7F1B78 		mr 31,3
 3307              		.loc 1 200 0
 3308 0fcc 387E0001 		addi 3,30,1
 3309              		.loc 1 199 0
 3310 0fd0 93E10008 		stw 31,8(1)
 3311              	.LVL285:
 3312              		.loc 1 200 0
 3313 0fd4 48000001 		bl _Znaj
 3314 0fd8 907F0000 		stw 3,0(31)
 3315              		.loc 1 201 0
 3316 0fdc 7FA4EB78 		mr 4,29
 3317 0fe0 81210008 		lwz 9,8(1)
 3318 0fe4 80690000 		lwz 3,0(9)
 3319 0fe8 48000001 		bl strcpy
 3320              		.loc 1 202 0
 3321 0fec 81210008 		lwz 9,8(1)
 3322              		.loc 1 207 0
 3323 0ff0 39400002 		li 10,2
 3324              	.LBB3308:
 3325              	.LBB3309:
 3326              		.loc 2 571 0
 3327 0ff4 801B0014 		lwz 0,20(27)
 3328 0ff8 817B0018 		lwz 11,24(27)
 3329              	.LBE3309:
 3330              	.LBE3308:
 3331              		.loc 1 207 0
 3332 0ffc 99490020 		stb 10,32(9)
 3333              	.LVL286:
 3334              	.LBB3312:
 3335              	.LBB3310:
 3336              		.loc 2 571 0
 3337 1000 7D605850 		subf 11,0,11
 3338              	.LBE3310:
 3339              	.LBE3312:
 3340              		.loc 1 202 0
 3341 1004 38000000 		li 0,0
 3342              	.LBB3313:
 3343              	.LBB3314:
 3344              		.loc 2 828 0
 3345 1008 815B001C 		lwz 10,28(27)
 3346              	.LBE3314:
 3347              	.LBE3313:
 3348              	.LBB3324:
 3349              	.LBB3311:
 3350              		.loc 2 571 0
 3351 100c 7D6B1670 		srawi 11,11,2
 3352              	.LBE3311:
 3353              	.LBE3324:
 3354              	.LBB3325:
 3355              	.LBB3319:
 3356              		.loc 2 828 0
 3357 1010 811B0018 		lwz 8,24(27)
 3358              	.LBE3319:
 3359              	.LBE3325:
 3360              		.loc 1 202 0
 3361 1014 90090004 		stw 0,4(9)
 3362              	.LBB3326:
 3363              	.LBB3320:
 3364              		.loc 2 828 0
 3365 1018 7F885000 		cmpw 7,8,10
 3366              	.LBE3320:
 3367              	.LBE3326:
 3368              		.loc 1 203 0
 3369 101c 90090008 		stw 0,8(9)
 3370              		.loc 1 205 0
 3371 1020 91690010 		stw 11,16(9)
 3372              		.loc 1 204 0
 3373 1024 38000001 		li 0,1
 3374              		.loc 1 206 0
 3375 1028 39400000 		li 10,0
 3376 102c 39600000 		li 11,0
 3377              		.loc 1 204 0
 3378 1030 9809000C 		stb 0,12(9)
 3379              		.loc 1 206 0
 3380 1034 91490018 		stw 10,24(9)
 3381 1038 9169001C 		stw 11,28(9)
 3382              	.LBB3327:
 3383              	.LBB3321:
 3384              		.loc 2 828 0
 3385 103c 419E0044 		beq- 7,.L265
 3386              	.LVL287:
 3387              	.LBB3315:
 3388              	.LBB3316:
 3389              		.loc 4 108 0
 3390 1040 2F880000 		cmpwi 7,8,0
 3391 1044 39600000 		li 11,0
 3392 1048 419E000C 		beq- 7,.L266
 3393 104c 91280000 		stw 9,0(8)
 3394 1050 817B0018 		lwz 11,24(27)
 3395              	.L266:
 3396              	.LBE3316:
 3397              	.LBE3315:
 3398              	.LBE3321:
 3399              	.LBE3327:
 3400              	.LBE3307:
 3401              	.LBE3332:
 3402              	.LBE3336:
 3403              		.loc 1 211 0
 3404 1054 8001003C 		lwz 0,60(1)
 3405              	.LBB3337:
 3406              	.LBB3333:
 3407              	.LBB3330:
 3408              	.LBB3328:
 3409              	.LBB3322:
 3410              		.loc 2 831 0
 3411 1058 396B0004 		addi 11,11,4
 3412 105c 917B0018 		stw 11,24(27)
 3413              	.LBE3322:
 3414              	.LBE3328:
 3415              	.LBE3330:
 3416              	.LBE3333:
 3417              	.LBE3337:
 3418              		.loc 1 211 0
 3419 1060 7C0803A6 		mtlr 0
 3420 1064 83610024 		lwz 27,36(1)
 3421              	.LVL288:
 3422 1068 83810028 		lwz 28,40(1)
 3423 106c 83A1002C 		lwz 29,44(1)
 3424              	.LVL289:
 3425 1070 83C10030 		lwz 30,48(1)
 3426              	.LVL290:
 3427 1074 83E10034 		lwz 31,52(1)
 3428              	.LVL291:
 3429 1078 38210038 		addi 1,1,56
 3430              		.cfi_remember_state
 3431              		.cfi_restore 27
 3432              		.cfi_restore 28
 3433              		.cfi_restore 29
 3434              		.cfi_restore 30
 3435              		.cfi_restore 31
 3436              	.LCFI39:
 3437              		.cfi_def_cfa_offset 0
 3438 107c 4E800020 		blr
 3439              	.LVL292:
 3440              	.L265:
 3441              	.LCFI40:
 3442              		.cfi_restore_state
 3443              	.LBB3338:
 3444              	.LBB3334:
 3445              	.LBB3331:
 3446              	.LBB3329:
 3447              	.LBB3323:
 3448              	.LBB3317:
 3449              	.LBB3318:
 3450              		.loc 2 834 0
 3451 1080 7C240B78 		mr 4,1
 3452 1084 387B0014 		addi 3,27,20
 3453 1088 95040018 		stwu 8,24(4)
 3454 108c 38A10008 		addi 5,1,8
 3455 1090 48000001 		bl _ZNSt6vectorIP17ArchiveFileStructSaIS1_EE13_M_insert_auxEN9__gnu_cxx17__normal_iteratorIPS1_S3_
 3456 1094 4BFFFEFC 		b .L260
 3457              	.LBE3318:
 3458              	.LBE3317:
 3459              	.LBE3323:
 3460              	.LBE3329:
 3461              	.LBE3331:
 3462              	.LBE3334:
 3463              	.LBE3338:
 3464              		.cfi_endproc
 3465              	.LFE1491:
 3466              		.size	_ZN7ZipFile16CheckMissingPathEPKc, .-_ZN7ZipFile16CheckMissingPathEPKc
 3467              		.align 2
 3468              		.globl _ZN7ZipFile11PathControlEv
 3469              		.type	_ZN7ZipFile11PathControlEv, @function
 3470              	_ZN7ZipFile11PathControlEv:
 3471              	.LFB1492:
 3472              		.loc 1 214 0
 3473              		.cfi_startproc
 3474              	.LVL293:
 3475 1098 7C0802A6 		mflr 0
 3476 109c 9421FBE0 		stwu 1,-1056(1)
 3477              	.LCFI41:
 3478              		.cfi_def_cfa_offset 1056
 3479              		.cfi_register 65, 0
 3480 10a0 93C10418 		stw 30,1048(1)
 3481 10a4 90010424 		stw 0,1060(1)
 3482 10a8 93410408 		stw 26,1032(1)
 3483              	.LBB3347:
 3484              	.LBB3348:
 3485              		.loc 1 217 0
 3486 10ac 3B400000 		li 26,0
 3487              		.cfi_offset 26, -24
 3488              		.cfi_offset 65, 4
 3489              		.cfi_offset 30, -8
 3490              	.LBB3349:
 3491              	.LBB3350:
 3492              		.loc 1 685 0
 3493 10b0 81230014 		lwz 9,20(3)
 3494 10b4 83C30018 		lwz 30,24(3)
 3495              	.LBE3350:
 3496              	.LBE3349:
 3497              	.LBE3348:
 3498              	.LBE3347:
 3499              		.loc 1 214 0
 3500 10b8 9361040C 		stw 27,1036(1)
 3501 10bc 7C7B1B78 		mr 27,3
 3502              		.cfi_offset 27, -20
 3503              	.LBB3362:
 3504              	.LBB3359:
 3505              	.LBB3352:
 3506              	.LBB3353:
 3507              		.loc 2 571 0
 3508 10c0 7C09F050 		subf 0,9,30
 3509              	.LBE3353:
 3510              	.LBE3352:
 3511              	.LBE3359:
 3512              	.LBE3362:
 3513              		.loc 1 214 0
 3514 10c4 93E1041C 		stw 31,1052(1)
 3515              	.LBB3363:
 3516              	.LBB3360:
 3517              		.loc 1 217 0
 3518 10c8 540BF0BF 		srwi. 11,0,2
 3519              	.LBE3360:
 3520              	.LBE3363:
 3521              		.loc 1 214 0
 3522 10cc 93810410 		stw 28,1040(1)
 3523 10d0 93A10414 		stw 29,1044(1)
 3524              	.LBB3364:
 3525              	.LBB3361:
 3526              		.loc 1 217 0
 3527 10d4 7D3F4B78 		mr 31,9
 3528              		.cfi_offset 29, -12
 3529              		.cfi_offset 28, -16
 3530              		.cfi_offset 31, -4
 3531 10d8 4182009C 		beq- 0,.L270
 3532              	.LVL294:
 3533              	.L275:
 3534              	.LBB3356:
 3535              		.loc 1 219 0
 3536 10dc 5740103A 		slwi 0,26,2
 3537 10e0 7D29002E 		lwzx 9,9,0
 3538 10e4 83A90000 		lwz 29,0(9)
 3539              	.LVL295:
 3540              		.loc 1 220 0
 3541 10e8 7FA3EB78 		mr 3,29
 3542 10ec 48000001 		bl strlen
 3543              	.LVL296:
 3544              	.LBB3351:
 3545              		.loc 1 222 0
 3546 10f0 7C7C1B79 		mr. 28,3
 3547 10f4 40810064 		ble- 0,.L272
 3548 10f8 3BE00000 		li 31,0
 3549 10fc 3BC10008 		addi 30,1,8
 3550 1100 4800001C 		b .L274
 3551              	.LVL297:
 3552              	.L273:
 3553              		.loc 1 227 0
 3554 1104 7C1EF9AE 		stbx 0,30,31
 3555              		.loc 1 228 0
 3556 1108 3BFF0001 		addi 31,31,1
 3557              		.loc 1 222 0
 3558 110c 7F9CF800 		cmpw 7,28,31
 3559              		.loc 1 228 0
 3560 1110 38000000 		li 0,0
 3561 1114 7C1EF9AE 		stbx 0,30,31
 3562              	.LVL298:
 3563              		.loc 1 222 0
 3564 1118 419E0038 		beq- 7,.L278
 3565              	.LVL299:
 3566              	.L274:
 3567              		.loc 1 224 0
 3568 111c 7C1DF8AE 		lbzx 0,29,31
 3569 1120 2F80002F 		cmpwi 7,0,47
 3570 1124 409EFFE0 		bne+ 7,.L273
 3571              		.loc 1 225 0
 3572 1128 7F63DB78 		mr 3,27
 3573 112c 7FC4F378 		mr 4,30
 3574 1130 48000001 		bl _ZN7ZipFile16CheckMissingPathEPKc
 3575 1134 7C1DF8AE 		lbzx 0,29,31
 3576              		.loc 1 227 0
 3577 1138 7C1EF9AE 		stbx 0,30,31
 3578              		.loc 1 228 0
 3579 113c 3BFF0001 		addi 31,31,1
 3580              		.loc 1 222 0
 3581 1140 7F9CF800 		cmpw 7,28,31
 3582              		.loc 1 228 0
 3583 1144 38000000 		li 0,0
 3584 1148 7C1EF9AE 		stbx 0,30,31
 3585              	.LVL300:
 3586              		.loc 1 222 0
 3587 114c 409EFFD0 		bne+ 7,.L274
 3588              	.L278:
 3589 1150 83FB0014 		lwz 31,20(27)
 3590              	.LVL301:
 3591 1154 83DB0018 		lwz 30,24(27)
 3592              	.L272:
 3593              	.LBE3351:
 3594              	.LBE3356:
 3595              	.LBB3357:
 3596              	.LBB3354:
 3597              		.loc 2 571 0
 3598 1158 7C1FF050 		subf 0,31,30
 3599              	.LBE3354:
 3600              	.LBE3357:
 3601              		.loc 1 217 0
 3602 115c 3B5A0001 		addi 26,26,1
 3603              	.LVL302:
 3604              	.LBB3358:
 3605              	.LBB3355:
 3606              		.loc 2 571 0
 3607 1160 7C001670 		srawi 0,0,2
 3608              	.LBE3355:
 3609              	.LBE3358:
 3610              		.loc 1 217 0
 3611 1164 7F9A0040 		cmplw 7,26,0
 3612 1168 409C000C 		bge- 7,.L270
 3613              		.loc 1 685 0
 3614 116c 7FE9FB78 		mr 9,31
 3615 1170 4BFFFF6C 		b .L275
 3616              	.LVL303:
 3617              	.L270:
 3618              	.LBE3361:
 3619              	.LBE3364:
 3620              		.loc 1 231 0
 3621 1174 80010424 		lwz 0,1060(1)
 3622 1178 83410408 		lwz 26,1032(1)
 3623 117c 7C0803A6 		mtlr 0
 3624 1180 8361040C 		lwz 27,1036(1)
 3625              	.LVL304:
 3626 1184 83810410 		lwz 28,1040(1)
 3627 1188 83A10414 		lwz 29,1044(1)
 3628 118c 83C10418 		lwz 30,1048(1)
 3629 1190 83E1041C 		lwz 31,1052(1)
 3630 1194 38210420 		addi 1,1,1056
 3631              	.LCFI42:
 3632              		.cfi_def_cfa_offset 0
 3633              		.cfi_restore 31
 3634              		.cfi_restore 30
 3635              		.cfi_restore 29
 3636              		.cfi_restore 28
 3637              		.cfi_restore 27
 3638              		.cfi_restore 26
 3639 1198 4E800020 		blr
 3640              		.cfi_endproc
 3641              	.LFE1492:
 3642              		.size	_ZN7ZipFile11PathControlEv, .-_ZN7ZipFile11PathControlEv
 3643              		.align 2
 3644              		.type	_ZN7ZipFile8LoadListEv.part.108, @function
 3645              	_ZN7ZipFile8LoadListEv.part.108:
 3646              	.LFB2083:
 3647              		.loc 1 104 0
 3648              		.cfi_startproc
 3649              	.LVL305:
 3650 119c 7C0802A6 		mflr 0
 3651 11a0 9421F778 		stwu 1,-2184(1)
 3652              	.LCFI43:
 3653              		.cfi_def_cfa_offset 2184
 3654              		.cfi_register 65, 0
 3655 11a4 93E10884 		stw 31,2180(1)
 3656 11a8 7C7F1B78 		mr 31,3
 3657              		.cfi_offset 31, -4
 3658 11ac 9001088C 		stw 0,2188(1)
 3659              	.LBB3389:
 3660              		.loc 1 117 0
 3661 11b0 38000000 		li 0,0
 3662              		.cfi_offset 65, 4
 3663              	.LBE3389:
 3664              		.loc 1 104 0
 3665 11b4 93410870 		stw 26,2160(1)
 3666 11b8 93610874 		stw 27,2164(1)
 3667 11bc 93810878 		stw 28,2168(1)
 3668 11c0 93A1087C 		stw 29,2172(1)
 3669 11c4 93C10880 		stw 30,2176(1)
 3670              	.LBB3426:
 3671              		.loc 1 117 0
 3672 11c8 9003000C 		stw 0,12(3)
 3673 11cc 480000B0 		b .L284
 3674              		.cfi_offset 30, -8
 3675              		.cfi_offset 29, -12
 3676              		.cfi_offset 28, -16
 3677              		.cfi_offset 27, -20
 3678              		.cfi_offset 26, -24
 3679              	.LVL306:
 3680              	.L281:
 3681              	.LBB3390:
 3682              	.LBB3391:
 3683              	.LBB3392:
 3684              		.loc 1 132 0
 3685 11d0 38600028 		li 3,40
 3686 11d4 48000001 		bl _Znwj
 3687 11d8 7C7C1B78 		mr 28,3
 3688              	.LVL307:
 3689              		.loc 1 133 0
 3690 11dc 387D0001 		addi 3,29,1
 3691              		.loc 1 132 0
 3692 11e0 93810008 		stw 28,8(1)
 3693              	.LVL308:
 3694              		.loc 1 133 0
 3695 11e4 48000001 		bl _Znaj
 3696 11e8 907C0000 		stw 3,0(28)
 3697              		.loc 1 134 0
 3698 11ec 3881045C 		addi 4,1,1116
 3699 11f0 81210008 		lwz 9,8(1)
 3700 11f4 80690000 		lwz 3,0(9)
 3701 11f8 48000001 		bl strcpy
 3702              		.loc 1 135 0
 3703 11fc 81210008 		lwz 9,8(1)
 3704              		.loc 1 140 0
 3705 1200 39600002 		li 11,2
 3706              		.loc 1 138 0
 3707 1204 801F000C 		lwz 0,12(31)
 3708              		.loc 1 140 0
 3709 1208 99690020 		stb 11,32(9)
 3710              	.LVL309:
 3711              	.LBB3393:
 3712              	.LBB3394:
 3713              		.loc 2 828 0
 3714 120c 817F0018 		lwz 11,24(31)
 3715 1210 815F001C 		lwz 10,28(31)
 3716              	.LBB3395:
 3717              	.LBB3396:
 3718              		.loc 4 108 0
 3719 1214 2F8B0000 		cmpwi 7,11,0
 3720              	.LBE3396:
 3721              	.LBE3395:
 3722              		.loc 2 828 0
 3723 1218 7F0B5000 		cmpw 6,11,10
 3724              	.LBE3394:
 3725              	.LBE3393:
 3726              		.loc 1 135 0
 3727 121c 81410028 		lwz 10,40(1)
 3728 1220 91490004 		stw 10,4(9)
 3729              		.loc 1 136 0
 3730 1224 81410024 		lwz 10,36(1)
 3731              		.loc 1 138 0
 3732 1228 90090010 		stw 0,16(9)
 3733              		.loc 1 139 0
 3734 122c 8001001C 		lwz 0,28(1)
 3735              		.loc 1 136 0
 3736 1230 91490008 		stw 10,8(9)
 3737              		.loc 1 139 0
 3738 1234 9009001C 		stw 0,28(9)
 3739 1238 38000000 		li 0,0
 3740              		.loc 1 137 0
 3741 123c 9BC9000C 		stb 30,12(9)
 3742              		.loc 1 139 0
 3743 1240 90090018 		stw 0,24(9)
 3744              	.LBB3403:
 3745              	.LBB3401:
 3746              		.loc 2 828 0
 3747 1244 419A0184 		beq- 6,.L282
 3748              	.LVL310:
 3749              	.LBB3398:
 3750              	.LBB3397:
 3751              		.loc 4 108 0
 3752 1248 39400000 		li 10,0
 3753 124c 419E000C 		beq- 7,.L283
 3754 1250 912B0000 		stw 9,0(11)
 3755 1254 815F0018 		lwz 10,24(31)
 3756              	.L283:
 3757              	.LBE3397:
 3758              	.LBE3398:
 3759              		.loc 2 831 0
 3760 1258 394A0004 		addi 10,10,4
 3761 125c 915F0018 		stw 10,24(31)
 3762              	.LVL311:
 3763              	.L280:
 3764              	.LBE3401:
 3765              	.LBE3403:
 3766              	.LBE3392:
 3767              	.LBE3391:
 3768              		.loc 1 144 0
 3769 1260 813F000C 		lwz 9,12(31)
 3770              	.LBE3390:
 3771              		.loc 1 146 0
 3772 1264 807F0004 		lwz 3,4(31)
 3773              	.LBB3410:
 3774              		.loc 1 144 0
 3775 1268 38090001 		addi 0,9,1
 3776 126c 901F000C 		stw 0,12(31)
 3777              	.LBE3410:
 3778              		.loc 1 146 0
 3779 1270 48000001 		bl unzGoToNextFile
 3780              		.loc 1 119 0
 3781 1274 2F830000 		cmpwi 7,3,0
 3782 1278 409E0070 		bne- 7,.L295
 3783              	.L284:
 3784              	.LBB3411:
 3785              	.LBB3408:
 3786              		.loc 1 121 0
 3787 127c 807F0004 		lwz 3,4(31)
 3788 1280 38A1045C 		addi 5,1,1116
 3789 1284 38C00400 		li 6,1024
 3790 1288 38E00000 		li 7,0
 3791 128c 39000000 		li 8,0
 3792 1290 39200000 		li 9,0
 3793 1294 39400000 		li 10,0
 3794 1298 3881000C 		addi 4,1,12
 3795 129c 48000001 		bl unzGetCurrentFileInfo
 3796 12a0 2F830000 		cmpwi 7,3,0
 3797              	.LBB3405:
 3798              		.loc 1 124 0
 3799 12a4 3861045C 		addi 3,1,1116
 3800              	.LBE3405:
 3801              		.loc 1 121 0
 3802 12a8 40BEFFB8 		bne- 7,.L280
 3803              	.LVL312:
 3804              	.LBB3406:
 3805              		.loc 1 124 0
 3806 12ac 48000001 		bl strlen
 3807 12b0 38010008 		addi 0,1,8
 3808 12b4 3923FFFF 		addi 9,3,-1
 3809 12b8 7C7D1B78 		mr 29,3
 3810 12bc 7D204A14 		add 9,0,9
 3811              		.loc 1 123 0
 3812 12c0 3BC00000 		li 30,0
 3813              		.loc 1 124 0
 3814 12c4 88090454 		lbz 0,1108(9)
 3815 12c8 2F80002F 		cmpwi 7,0,47
 3816 12cc 409EFF04 		bne+ 7,.L281
 3817              	.LVL313:
 3818              		.loc 1 127 0
 3819 12d0 9BC90454 		stb 30,1108(9)
 3820              		.loc 1 104 0
 3821 12d4 3861045C 		addi 3,1,1116
 3822              		.loc 1 126 0
 3823 12d8 3BC00001 		li 30,1
 3824              		.loc 1 104 0
 3825 12dc 48000001 		bl strlen
 3826 12e0 7C7D1B78 		mr 29,3
 3827 12e4 4BFFFEEC 		b .L281
 3828              	.LVL314:
 3829              	.L295:
 3830              	.LBE3406:
 3831              	.LBE3408:
 3832              	.LBE3411:
 3833              	.LBB3412:
 3834              		.loc 1 685 0
 3835 12e8 813F0014 		lwz 9,20(31)
 3836              	.LBB3413:
 3837              	.LBB3414:
 3838              		.loc 1 217 0
 3839 12ec 3B400000 		li 26,0
 3840              	.LBE3414:
 3841              	.LBE3413:
 3842              		.loc 1 685 0
 3843 12f0 83BF0018 		lwz 29,24(31)
 3844              	.LBB3424:
 3845              	.LBB3423:
 3846              		.loc 1 217 0
 3847 12f4 7D3E4B78 		mr 30,9
 3848              	.LBB3415:
 3849              	.LBB3416:
 3850              		.loc 2 571 0
 3851 12f8 7C09E850 		subf 0,9,29
 3852              	.LBE3416:
 3853              	.LBE3415:
 3854              		.loc 1 217 0
 3855 12fc 540BF0BF 		srwi. 11,0,2
 3856 1300 4182009C 		beq- 0,.L285
 3857              	.LVL315:
 3858              	.L289:
 3859              	.LBB3419:
 3860              		.loc 1 219 0
 3861 1304 5740103A 		slwi 0,26,2
 3862 1308 7D29002E 		lwzx 9,9,0
 3863 130c 83890000 		lwz 28,0(9)
 3864              	.LVL316:
 3865              		.loc 1 220 0
 3866 1310 7F83E378 		mr 3,28
 3867 1314 48000001 		bl strlen
 3868              	.LVL317:
 3869              	.LBB3420:
 3870              		.loc 1 222 0
 3871 1318 7C7B1B79 		mr. 27,3
 3872 131c 40810064 		ble- 0,.L286
 3873 1320 3BC00000 		li 30,0
 3874 1324 3BA1005C 		addi 29,1,92
 3875 1328 4800001C 		b .L288
 3876              	.LVL318:
 3877              	.L287:
 3878              		.loc 1 227 0
 3879 132c 7C1DF1AE 		stbx 0,29,30
 3880              		.loc 1 228 0
 3881 1330 3BDE0001 		addi 30,30,1
 3882              		.loc 1 222 0
 3883 1334 7F9BF000 		cmpw 7,27,30
 3884              		.loc 1 228 0
 3885 1338 38000000 		li 0,0
 3886 133c 7C1DF1AE 		stbx 0,29,30
 3887              	.LVL319:
 3888              		.loc 1 222 0
 3889 1340 419E0038 		beq- 7,.L296
 3890              	.LVL320:
 3891              	.L288:
 3892              		.loc 1 224 0
 3893 1344 7C1CF0AE 		lbzx 0,28,30
 3894 1348 2F80002F 		cmpwi 7,0,47
 3895 134c 409EFFE0 		bne+ 7,.L287
 3896              		.loc 1 225 0
 3897 1350 7FE3FB78 		mr 3,31
 3898 1354 7FA4EB78 		mr 4,29
 3899 1358 48000001 		bl _ZN7ZipFile16CheckMissingPathEPKc
 3900 135c 7C1CF0AE 		lbzx 0,28,30
 3901              		.loc 1 227 0
 3902 1360 7C1DF1AE 		stbx 0,29,30
 3903              		.loc 1 228 0
 3904 1364 3BDE0001 		addi 30,30,1
 3905              		.loc 1 222 0
 3906 1368 7F9BF000 		cmpw 7,27,30
 3907              		.loc 1 228 0
 3908 136c 38000000 		li 0,0
 3909 1370 7C1DF1AE 		stbx 0,29,30
 3910              	.LVL321:
 3911              		.loc 1 222 0
 3912 1374 409EFFD0 		bne+ 7,.L288
 3913              	.L296:
 3914 1378 83DF0014 		lwz 30,20(31)
 3915              	.LVL322:
 3916 137c 83BF0018 		lwz 29,24(31)
 3917              	.L286:
 3918              	.LBE3420:
 3919              	.LBE3419:
 3920              	.LBB3421:
 3921              	.LBB3417:
 3922              		.loc 2 571 0
 3923 1380 7C1EE850 		subf 0,30,29
 3924              	.LBE3417:
 3925              	.LBE3421:
 3926              		.loc 1 217 0
 3927 1384 3B5A0001 		addi 26,26,1
 3928              	.LVL323:
 3929              	.LBB3422:
 3930              	.LBB3418:
 3931              		.loc 2 571 0
 3932 1388 7C001670 		srawi 0,0,2
 3933              	.LBE3418:
 3934              	.LBE3422:
 3935              		.loc 1 217 0
 3936 138c 7F9A0040 		cmplw 7,26,0
 3937 1390 409C000C 		bge- 7,.L285
 3938              		.loc 1 685 0
 3939 1394 7FC9F378 		mr 9,30
 3940 1398 4BFFFF6C 		b .L289
 3941              	.LVL324:
 3942              	.L285:
 3943              	.LBE3423:
 3944              	.LBE3424:
 3945              	.LBE3412:
 3946              	.LBE3426:
 3947              		.loc 1 151 0
 3948 139c 8001088C 		lwz 0,2188(1)
 3949 13a0 38600001 		li 3,1
 3950 13a4 83410870 		lwz 26,2160(1)
 3951 13a8 7C0803A6 		mtlr 0
 3952 13ac 83610874 		lwz 27,2164(1)
 3953 13b0 83810878 		lwz 28,2168(1)
 3954 13b4 83A1087C 		lwz 29,2172(1)
 3955 13b8 83C10880 		lwz 30,2176(1)
 3956 13bc 83E10884 		lwz 31,2180(1)
 3957              	.LVL325:
 3958 13c0 38210888 		addi 1,1,2184
 3959              		.cfi_remember_state
 3960              	.LCFI44:
 3961              		.cfi_def_cfa_offset 0
 3962              		.cfi_restore 31
 3963              		.cfi_restore 30
 3964              		.cfi_restore 29
 3965              		.cfi_restore 28
 3966              		.cfi_restore 27
 3967              		.cfi_restore 26
 3968 13c4 4E800020 		blr
 3969              	.LVL326:
 3970              	.L282:
 3971              	.LCFI45:
 3972              		.cfi_restore_state
 3973              	.LBB3427:
 3974              	.LBB3425:
 3975              	.LBB3409:
 3976              	.LBB3407:
 3977              	.LBB3404:
 3978              	.LBB3402:
 3979              	.LBB3399:
 3980              	.LBB3400:
 3981              		.loc 2 834 0
 3982 13c8 7C240B78 		mr 4,1
 3983 13cc 387F0014 		addi 3,31,20
 3984 13d0 95640868 		stwu 11,2152(4)
 3985 13d4 38A10008 		addi 5,1,8
 3986 13d8 48000001 		bl _ZNSt6vectorIP17ArchiveFileStructSaIS1_EE13_M_insert_auxEN9__gnu_cxx17__normal_iteratorIPS1_S3_
 3987 13dc 4BFFFE84 		b .L280
 3988              	.LBE3400:
 3989              	.LBE3399:
 3990              	.LBE3402:
 3991              	.LBE3404:
 3992              	.LBE3407:
 3993              	.LBE3409:
 3994              	.LBE3425:
 3995              	.LBE3427:
 3996              		.cfi_endproc
 3997              	.LFE2083:
 3998              		.size	_ZN7ZipFile8LoadListEv.part.108, .-_ZN7ZipFile8LoadListEv.part.108
 3999              		.align 2
 4000              		.globl _ZN7ZipFile8LoadListEv
 4001              		.type	_ZN7ZipFile8LoadListEv, @function
 4002              	_ZN7ZipFile8LoadListEv:
 4003              	.LFB1488:
 4004              		.loc 1 105 0
 4005              		.cfi_startproc
 4006              	.LVL327:
 4007 13e0 9421FFF0 		stwu 1,-16(1)
 4008              	.LCFI46:
 4009              		.cfi_def_cfa_offset 16
 4010 13e4 7C0802A6 		mflr 0
 4011 13e8 93E1000C 		stw 31,12(1)
 4012 13ec 7C7F1B78 		mr 31,3
 4013              		.cfi_offset 31, -4
 4014              		.cfi_register 65, 0
 4015 13f0 90010014 		stw 0,20(1)
 4016              	.LBB3429:
 4017              		.loc 1 106 0
 4018              		.cfi_offset 65, 4
 4019 13f4 48000001 		bl _ZN7ZipFile9ClearListEv
 4020              	.LVL328:
 4021              		.loc 1 108 0
 4022 13f8 7FE3FB78 		mr 3,31
 4023 13fc 38800001 		li 4,1
 4024 1400 48000001 		bl _ZN7ZipFile10SwitchModeEs
 4025 1404 2F830000 		cmpwi 7,3,0
 4026 1408 409E001C 		bne- 7,.L301
 4027              	.L298:
 4028              	.LBE3429:
 4029              		.loc 1 151 0
 4030 140c 80010014 		lwz 0,20(1)
 4031 1410 38600000 		li 3,0
 4032 1414 83E1000C 		lwz 31,12(1)
 4033              	.LVL329:
 4034 1418 7C0803A6 		mtlr 0
 4035 141c 38210010 		addi 1,1,16
 4036              		.cfi_remember_state
 4037              	.LCFI47:
 4038              		.cfi_def_cfa_offset 0
 4039              		.cfi_restore 31
 4040 1420 4E800020 		blr
 4041              	.LVL330:
 4042              	.L301:
 4043              	.LCFI48:
 4044              		.cfi_restore_state
 4045              	.LBB3430:
 4046              		.loc 1 111 0
 4047 1424 807F0004 		lwz 3,4(31)
 4048 1428 48000001 		bl unzGoToFirstFile
 4049              	.LVL331:
 4050              		.loc 1 112 0
 4051 142c 2F830000 		cmpwi 7,3,0
 4052 1430 40BEFFDC 		bne- 7,.L298
 4053              	.LBE3430:
 4054              		.loc 1 151 0
 4055 1434 80010014 		lwz 0,20(1)
 4056              	.LBB3431:
 4057              		.loc 1 112 0
 4058 1438 7FE3FB78 		mr 3,31
 4059              	.LVL332:
 4060              	.LBE3431:
 4061              		.loc 1 151 0
 4062 143c 83E1000C 		lwz 31,12(1)
 4063              	.LVL333:
 4064 1440 7C0803A6 		mtlr 0
 4065 1444 38210010 		addi 1,1,16
 4066              	.LCFI49:
 4067              		.cfi_def_cfa_offset 0
 4068              		.cfi_restore 31
 4069              	.LBB3432:
 4070              		.loc 1 112 0
 4071 1448 4BFFFD54 		b _ZN7ZipFile8LoadListEv.part.108
 4072              	.LVL334:
 4073              	.LBE3432:
 4074              		.cfi_endproc
 4075              	.LFE1488:
 4076              		.size	_ZN7ZipFile8LoadListEv, .-_ZN7ZipFile8LoadListEv
 4077              		.align 2
 4078              		.globl _ZN7ZipFile12AddDirectoryEPKcS1_i
 4079              		.type	_ZN7ZipFile12AddDirectoryEPKcS1_i, @function
 4080              	_ZN7ZipFile12AddDirectoryEPKcS1_i:
 4081              	.LFB1494:
 4082              		.loc 1 338 0
 4083              		.cfi_startproc
 4084              		.cfi_personality 0,__gxx_personality_v0
 4085              		.cfi_lsda 0,.LLSDA1494
 4086              	.LVL335:
 4087 144c 9421FEF8 		stwu 1,-264(1)
 4088              	.LCFI50:
 4089              		.cfi_def_cfa_offset 264
 4090 1450 7D800026 		mfcr 12
 4091 1454 7C0802A6 		mflr 0
 4092 1458 930100E8 		stw 24,232(1)
 4093              	.LBB4264:
 4094              		.loc 1 339 0
 4095 145c 7C982379 		mr. 24,4
 4096              		.cfi_offset 24, -32
 4097              		.cfi_register 65, 0
 4098              		.cfi_register 70, 12
 4099              	.LBE4264:
 4100              		.loc 1 338 0
 4101 1460 91E100C4 		stw 15,196(1)
 4102 1464 7CCF3378 		mr 15,6
 4103              		.cfi_offset 15, -68
 4104 1468 926100D4 		stw 19,212(1)
 4105 146c 7C731B78 		mr 19,3
 4106              		.cfi_offset 19, -52
 4107 1470 936100F4 		stw 27,244(1)
 4108 1474 7CBB2B78 		mr 27,5
 4109              		.cfi_offset 27, -20
 4110 1478 9001010C 		stw 0,268(1)
 4111 147c 91C100C0 		stw 14,192(1)
 4112 1480 920100C8 		stw 16,200(1)
 4113 1484 922100CC 		stw 17,204(1)
 4114 1488 924100D0 		stw 18,208(1)
 4115 148c 928100D8 		stw 20,216(1)
 4116 1490 92A100DC 		stw 21,220(1)
 4117 1494 92C100E0 		stw 22,224(1)
 4118 1498 92E100E4 		stw 23,228(1)
 4119 149c 932100EC 		stw 25,236(1)
 4120 14a0 934100F0 		stw 26,240(1)
 4121 14a4 938100F8 		stw 28,248(1)
 4122 14a8 93A100FC 		stw 29,252(1)
 4123 14ac 93C10100 		stw 30,256(1)
 4124 14b0 93E10104 		stw 31,260(1)
 4125 14b4 918100BC 		stw 12,188(1)
 4126              	.LBB5008:
 4127              		.loc 1 339 0
 4128 14b8 41820E74 		beq- 0,.L499
 4129              		.cfi_offset 70, -76
 4130              		.cfi_offset 31, -4
 4131              		.cfi_offset 30, -8
 4132              		.cfi_offset 29, -12
 4133              		.cfi_offset 28, -16
 4134              		.cfi_offset 26, -24
 4135              		.cfi_offset 25, -28
 4136              		.cfi_offset 23, -36
 4137              		.cfi_offset 22, -40
 4138              		.cfi_offset 21, -44
 4139              		.cfi_offset 20, -48
 4140              		.cfi_offset 18, -56
 4141              		.cfi_offset 17, -60
 4142              		.cfi_offset 16, -64
 4143              		.cfi_offset 14, -72
 4144              		.cfi_offset 65, 4
 4145              		.loc 1 339 0 is_stmt 0 discriminator 1
 4146 14bc 2F850000 		cmpwi 7,5,0
 4147 14c0 419E0E6C 		beq- 7,.L499
 4148              	.LVL336:
 4149              		.loc 1 347 0 is_stmt 1
 4150 14c4 38610030 		addi 3,1,48
 4151              	.LVL337:
 4152 14c8 38A10022 		addi 5,1,34
 4153              	.LVL338:
 4154              	.LEHB24:
 4155 14cc 48000001 		bl _ZNSsC1EPKcRKSaIcE
 4156              	.LEHE24:
 4157              	.LVL339:
 4158 14d0 48000024 		b .L553
 4159              	.LVL340:
 4160              	.L314:
 4161              	.LBB4265:
 4162              	.LBB4266:
 4163              		.loc 5 711 0
 4164 14d4 8129FFF4 		lwz 9,-12(9)
 4165              	.LBE4266:
 4166              	.LBE4265:
 4167              		.loc 1 350 0
 4168 14d8 3889FFFF 		addi 4,9,-1
 4169              	.LVL341:
 4170              	.LBB4267:
 4171              	.LBB4268:
 4172              	.LBB4269:
 4173              	.LBB4270:
 4174              		.loc 5 318 0
 4175 14dc 7F844840 		cmplw 7,4,9
 4176 14e0 419D0E60 		bgt- 7,.L564
 4177              	.LVL342:
 4178              	.LBE4270:
 4179              	.LBE4269:
 4180              		.loc 5 1349 0
 4181 14e4 38610030 		addi 3,1,48
 4182              	.LVL343:
 4183 14e8 38A00001 		li 5,1
 4184 14ec 38C00000 		li 6,0
 4185              	.LEHB25:
 4186 14f0 48000001 		bl _ZNSs9_M_mutateEjjj
 4187              	.LEHE25:
 4188              	.LVL344:
 4189              	.L553:
 4190              	.LBE4268:
 4191              	.LBE4267:
 4192              	.LBB4275:
 4193              	.LBB4276:
 4194              	.LBB4277:
 4195              	.LBB4278:
 4196              	.LBB4279:
 4197              		.loc 5 288 0 discriminator 1
 4198 14f4 81210030 		lwz 9,48(1)
 4199              	.LBE4279:
 4200              	.LBE4278:
 4201              	.LBE4277:
 4202              	.LBE4276:
 4203              	.LBE4275:
 4204              	.LBB4281:
 4205              	.LBB4282:
 4206              	.LBB4283:
 4207              	.LBB4284:
 4208              		.loc 5 311 0 discriminator 1
 4209 14f8 8009FFFC 		lwz 0,-4(9)
 4210              	.LBE4284:
 4211              	.LBE4283:
 4212              	.LBE4282:
 4213              	.LBE4281:
 4214              	.LBB4288:
 4215              	.LBB4280:
 4216              		.loc 5 711 0 discriminator 1
 4217 14fc 83E9FFF4 		lwz 31,-12(9)
 4218              	.LVL345:
 4219              	.LBE4280:
 4220              	.LBE4288:
 4221              	.LBB4289:
 4222              	.LBB4287:
 4223              	.LBB4286:
 4224              	.LBB4285:
 4225              		.loc 5 311 0 discriminator 1
 4226 1500 2F800000 		cmpwi 7,0,0
 4227 1504 419C0010 		blt- 7,.L311
 4228              		.loc 5 312 0
 4229 1508 38610030 		addi 3,1,48
 4230              	.LVL346:
 4231              	.LEHB26:
 4232 150c 48000001 		bl _ZNSs12_M_leak_hardEv
 4233              	.LEHE26:
 4234              	.LVL347:
 4235 1510 81210030 		lwz 9,48(1)
 4236              	.L311:
 4237              	.LVL348:
 4238              	.LBE4285:
 4239              	.LBE4286:
 4240              	.LBE4287:
 4241              	.LBE4289:
 4242              		.loc 1 349 0
 4243 1514 7FE9FA14 		add 31,9,31
 4244              	.LVL349:
 4245 1518 881FFFFF 		lbz 0,-1(31)
 4246 151c 2F80002F 		cmpwi 7,0,47
 4247 1520 419EFFB4 		beq+ 7,.L314
 4248              		.loc 1 352 0
 4249 1524 38610030 		addi 3,1,48
 4250              	.LVL350:
 4251 1528 3880002F 		li 4,47
 4252 152c 38A00000 		li 5,0
 4253              	.LEHB27:
 4254 1530 48000001 		bl _ZNKSs4findEcj
 4255              	.LEHE27:
 4256              	.LVL351:
 4257 1534 38630001 		addi 3,3,1
 4258 1538 7C630034 		cntlzw 3,3
 4259 153c 5463D97E 		srwi 3,3,5
 4260              		.loc 1 353 0
 4261 1540 2E030000 		cmpwi 4,3,0
 4262 1544 419201E4 		beq- 4,.L561
 4263              	.LVL352:
 4264              	.LBB4290:
 4265              	.LBB4291:
 4266              	.LBB4292:
 4267              	.LBB4293:
 4268              	.LBB4294:
 4269              	.LBB4295:
 4270              	.LBB4296:
 4271              	.LBB4297:
 4272              		.loc 5 288 0
 4273 1548 81210030 		lwz 9,48(1)
 4274              	.LBE4297:
 4275              	.LBE4296:
 4276              	.LBE4295:
 4277              		.loc 5 711 0
 4278 154c 8169FFF4 		lwz 11,-12(9)
 4279              	.LBE4294:
 4280              	.LBE4293:
 4281              		.loc 5 1046 0
 4282 1550 8009FFF8 		lwz 0,-8(9)
 4283              		.loc 5 1045 0
 4284 1554 3BEB0001 		addi 31,11,1
 4285              	.LVL353:
 4286              		.loc 5 1046 0
 4287 1558 7F9F0040 		cmplw 7,31,0
 4288 155c 419D0010 		bgt- 7,.L319
 4289              	.LVL354:
 4290 1560 8009FFFC 		lwz 0,-4(9)
 4291 1564 2F800000 		cmpwi 7,0,0
 4292 1568 409D0018 		ble- 7,.L320
 4293              	.LVL355:
 4294              	.L319:
 4295              		.loc 5 1047 0
 4296 156c 38610030 		addi 3,1,48
 4297              	.LVL356:
 4298 1570 7FE4FB78 		mr 4,31
 4299              	.LEHB28:
 4300 1574 48000001 		bl _ZNSs7reserveEj
 4301              	.LEHE28:
 4302              	.LVL357:
 4303 1578 81210030 		lwz 9,48(1)
 4304 157c 8169FFF4 		lwz 11,-12(9)
 4305              	.L320:
 4306              	.LVL358:
 4307              	.LBB4298:
 4308              	.LBB4299:
 4309              		.loc 8 245 0
 4310 1580 3800002F 		li 0,47
 4311              	.LBE4299:
 4312              	.LBE4298:
 4313              	.LBB4301:
 4314              	.LBB4302:
 4315              		.loc 5 205 0
 4316 1584 3E800000 		lis 20,_ZNSs4_Rep20_S_empty_rep_storageE@ha
 4317              	.LBE4302:
 4318              	.LBE4301:
 4319              	.LBB4312:
 4320              	.LBB4300:
 4321              		.loc 8 245 0
 4322 1588 7C0959AE 		stbx 0,9,11
 4323              	.LVL359:
 4324              	.LBE4300:
 4325              	.LBE4312:
 4326              	.LBB4313:
 4327              	.LBB4309:
 4328              		.loc 5 205 0
 4329 158c 3A940000 		la 20,_ZNSs4_Rep20_S_empty_rep_storageE@l(20)
 4330              	.LBE4309:
 4331              	.LBE4313:
 4332              	.LBB4314:
 4333              	.LBB4315:
 4334              	.LBB4316:
 4335              		.loc 5 288 0
 4336 1590 80610030 		lwz 3,48(1)
 4337              	.LVL360:
 4338              	.LBE4316:
 4339              	.LBE4315:
 4340              	.LBE4314:
 4341              		.loc 5 1049 0
 4342 1594 3803FFF4 		addi 0,3,-12
 4343              	.LBB4317:
 4344              	.LBB4310:
 4345              		.loc 5 205 0
 4346 1598 7F80A000 		cmpw 7,0,20
 4347 159c 409E017C 		bne- 7,.L565
 4348              	.LVL361:
 4349              	.L318:
 4350              	.LEHB29:
 4351              	.LBE4310:
 4352              	.LBE4317:
 4353              	.LBE4292:
 4354              	.LBE4291:
 4355              	.LBE4290:
 4356              		.loc 1 356 0
 4357 15a0 48000001 		bl opendir
 4358              	.LEHE29:
 4359              	.LVL362:
 4360              		.loc 1 357 0
 4361 15a4 7C6E1B79 		mr. 14,3
 4362 15a8 41820950 		beq- 0,.L566
 4363              		.loc 1 360 0
 4364 15ac 3FE00000 		lis 31,_ZSt7nothrow@ha
 4365 15b0 38600400 		li 3,1024
 4366              	.LVL363:
 4367 15b4 3BFF0000 		la 31,_ZSt7nothrow@l(31)
 4368 15b8 7FE4FB78 		mr 4,31
 4369 15bc 48000001 		bl _ZnajRKSt9nothrow_t
 4370              		.loc 1 361 0
 4371 15c0 7FE4FB78 		mr 4,31
 4372              		.loc 1 360 0
 4373 15c4 7C771B78 		mr 23,3
 4374              	.LVL364:
 4375              		.loc 1 361 0
 4376 15c8 38600048 		li 3,72
 4377              	.LVL365:
 4378 15cc 48000001 		bl _ZnwjRKSt9nothrow_t
 4379              		.loc 1 362 0
 4380 15d0 2F970000 		cmpwi 7,23,0
 4381              		.loc 1 361 0
 4382 15d4 7C721B78 		mr 18,3
 4383              	.LVL366:
 4384              		.loc 1 362 0
 4385 15d8 419E08F8 		beq- 7,.L326
 4386              		.loc 1 362 0 is_stmt 0 discriminator 1
 4387 15dc 2F830000 		cmpwi 7,3,0
 4388 15e0 419E08E8 		beq- 7,.L567
 4389              		.loc 1 362 0
 4390 15e4 39400000 		li 10,0
 4391 15e8 3AC00000 		li 22,0
 4392 15ec 914100AC 		stw 10,172(1)
 4393 15f0 3BA00000 		li 29,0
 4394              	.LVL367:
 4395              	.L552:
 4396              		.loc 1 370 0 is_stmt 1 discriminator 1
 4397 15f4 7DC37378 		mr 3,14
 4398              	.LEHB30:
 4399 15f8 48000001 		bl readdir
 4400              	.LVL368:
 4401 15fc 7C7F1B79 		mr. 31,3
 4402 1600 418204BC 		beq- 0,.L568
 4403              	.LBB4321:
 4404              		.loc 1 372 0
 4405 1604 3BFF0005 		addi 31,31,5
 4406              		.loc 1 375 0
 4407 1608 41920128 		beq- 4,.L503
 4408 160c 3CA00000 		lis 5,.LC6@ha
 4409 1610 38A50040 		la 5,.LC6@l(5)
 4410              	.L329:
 4411              	.LVL369:
 4412              		.loc 1 375 0 is_stmt 0 discriminator 3
 4413 1614 80C10030 		lwz 6,48(1)
 4414 1618 7EE3BB78 		mr 3,23
 4415              	.LVL370:
 4416 161c 38800400 		li 4,1024
 4417 1620 7FE7FB78 		mr 7,31
 4418 1624 4CC63182 		crxor 6,6,6
 4419 1628 48000001 		bl snprintf
 4420              		.loc 1 377 0 is_stmt 1
 4421 162c 7EE3BB78 		mr 3,23
 4422 1630 7E449378 		mr 4,18
 4423 1634 48000001 		bl stat
 4424 1638 2F830000 		cmpwi 7,3,0
 4425 163c 409EFFB8 		bne+ 7,.L552
 4426              		.loc 1 380 0
 4427 1640 7EE3BB78 		mr 3,23
 4428 1644 38800400 		li 4,1024
 4429 1648 7FE5FB78 		mr 5,31
 4430 164c 4CC63182 		crxor 6,6,6
 4431 1650 48000001 		bl snprintf
 4432              	.LEHE30:
 4433              	.LBB4322:
 4434              		.loc 1 382 0
 4435 1654 80120008 		lwz 0,8(18)
 4436 1658 70094000 		andi. 9,0,16384
 4437 165c 418200E0 		beq- 0,.L331
 4438              		.loc 1 384 0
 4439 1660 3C800000 		lis 4,.LC8@ha
 4440 1664 7EE3BB78 		mr 3,23
 4441 1668 3884005C 		la 4,.LC8@l(4)
 4442 166c 48000001 		bl strcmp
 4443 1670 2F830000 		cmpwi 7,3,0
 4444 1674 41BEFF80 		beq- 7,.L552
 4445              		.loc 1 384 0 is_stmt 0 discriminator 1
 4446 1678 3C800000 		lis 4,.LC9@ha
 4447 167c 7EE3BB78 		mr 3,23
 4448 1680 38840060 		la 4,.LC9@l(4)
 4449 1684 48000001 		bl strcmp
 4450 1688 2F830000 		cmpwi 7,3,0
 4451 168c 41BEFF68 		beq- 7,.L552
 4452              	.LBB4323:
 4453              	.LBB4324:
 4454              		.loc 2 652 0 is_stmt 1
 4455 1690 814100AC 		lwz 10,172(1)
 4456              	.LBE4324:
 4457              	.LBE4323:
 4458              	.LBB4326:
 4459              	.LBB4327:
 4460              		.loc 2 571 0
 4461 1694 7C1DB050 		subf 0,29,22
 4462 1698 7C001670 		srawi 0,0,2
 4463              	.LBE4327:
 4464              	.LBE4326:
 4465              	.LBB4328:
 4466              	.LBB4325:
 4467              		.loc 2 652 0
 4468 169c 7F5D5050 		subf 26,29,10
 4469 16a0 7F5A1670 		srawi 26,26,2
 4470              	.LBE4325:
 4471              	.LBE4328:
 4472              		.loc 1 386 0
 4473 16a4 7F9A0000 		cmpw 7,26,0
 4474 16a8 419E0724 		beq- 7,.L569
 4475              	.LVL371:
 4476              	.L332:
 4477              		.loc 1 388 0
 4478 16ac 3861002C 		addi 3,1,44
 4479 16b0 7EE4BB78 		mr 4,23
 4480 16b4 38A10021 		addi 5,1,33
 4481              	.LEHB31:
 4482 16b8 48000001 		bl _ZNSsC1EPKcRKSaIcE
 4483              	.LEHE31:
 4484              	.LVL372:
 4485              	.LBB4329:
 4486              	.LBB4330:
 4487              		.loc 2 828 0
 4488 16bc 800100AC 		lwz 0,172(1)
 4489 16c0 7F80B000 		cmpw 7,0,22
 4490 16c4 419E0850 		beq- 7,.L354
 4491              	.LVL373:
 4492              	.LBB4331:
 4493              	.LBB4332:
 4494              		.loc 4 108 0
 4495 16c8 2F960000 		cmpwi 7,22,0
 4496 16cc 419E0010 		beq- 7,.L355
 4497 16d0 7EC3B378 		mr 3,22
 4498 16d4 3881002C 		addi 4,1,44
 4499              	.LVL374:
 4500              	.LEHB32:
 4501 16d8 48000001 		bl _ZNSsC1ERKSs
 4502              	.LEHE32:
 4503              	.LVL375:
 4504              	.L355:
 4505 16dc 3E800000 		lis 20,_ZNSs4_Rep20_S_empty_rep_storageE@ha
 4506              	.LBE4332:
 4507              	.LBE4331:
 4508              		.loc 2 831 0
 4509 16e0 3AD60004 		addi 22,22,4
 4510              	.LVL376:
 4511 16e4 3A940000 		la 20,_ZNSs4_Rep20_S_empty_rep_storageE@l(20)
 4512              	.LVL377:
 4513              	.L385:
 4514              	.LBE4330:
 4515              	.LBE4329:
 4516              	.LBB4421:
 4517              	.LBB4422:
 4518              	.LBB4423:
 4519              	.LBB4424:
 4520              	.LBB4425:
 4521              		.loc 5 288 0 discriminator 1
 4522 16e8 8121002C 		lwz 9,44(1)
 4523              	.LBE4425:
 4524              	.LBE4424:
 4525              	.LBE4423:
 4526              		.loc 5 534 0 discriminator 1
 4527 16ec 3869FFF4 		addi 3,9,-12
 4528              	.LVL378:
 4529              	.LBB4426:
 4530              	.LBB4427:
 4531              		.loc 5 235 0 discriminator 1
 4532 16f0 7F83A000 		cmpw 7,3,20
 4533 16f4 419EFF00 		beq+ 7,.L552
 4534              	.LVL379:
 4535              	.LBB4428:
 4536              	.LBB4429:
 4537              	.LBB4430:
 4538              		.loc 6 66 0
 4539 16f8 8169FFFC 		lwz 11,-4(9)
 4540              	.LVL380:
 4541              	.LBE4430:
 4542              	.LBE4429:
 4543              	.LBE4428:
 4544              		.loc 5 240 0
 4545 16fc 2F8B0000 		cmpwi 7,11,0
 4546              	.LBB4433:
 4547              	.LBB4432:
 4548              	.LBB4431:
 4549              		.loc 6 67 0
 4550 1700 396BFFFF 		addi 11,11,-1
 4551 1704 9169FFFC 		stw 11,-4(9)
 4552              	.LBE4431:
 4553              	.LBE4432:
 4554              	.LBE4433:
 4555              		.loc 5 240 0
 4556 1708 419DFEEC 		bgt+ 7,.L552
 4557              		.loc 5 244 0
 4558 170c 3881001A 		addi 4,1,26
 4559 1710 48000001 		bl _ZNSs4_Rep10_M_destroyERKSaIcE
 4560              	.LVL381:
 4561 1714 4BFFFEE0 		b .L552
 4562              	.LVL382:
 4563              	.L565:
 4564              	.LBE4427:
 4565              	.LBE4426:
 4566              	.LBE4422:
 4567              	.LBE4421:
 4568              	.LBE4322:
 4569              	.LBE4321:
 4570              	.LBB4734:
 4571              	.LBB4320:
 4572              	.LBB4319:
 4573              	.LBB4318:
 4574              	.LBB4311:
 4575              	.LBB4303:
 4576              	.LBB4304:
 4577              		.loc 5 199 0
 4578 1718 38000000 		li 0,0
 4579              	.LVL383:
 4580              	.LBE4304:
 4581              	.LBE4303:
 4582              		.loc 5 209 0
 4583 171c 93E3FFF4 		stw 31,-12(3)
 4584              	.LVL384:
 4585              	.LBB4306:
 4586              	.LBB4305:
 4587              		.loc 5 199 0
 4588 1720 9003FFFC 		stw 0,-4(3)
 4589              	.LBE4305:
 4590              	.LBE4306:
 4591              	.LBB4307:
 4592              	.LBB4308:
 4593              		.loc 8 245 0
 4594 1724 7C03F9AE 		stbx 0,3,31
 4595              	.LVL385:
 4596              	.L561:
 4597 1728 80610030 		lwz 3,48(1)
 4598 172c 4BFFFE74 		b .L318
 4599              	.LVL386:
 4600              	.L503:
 4601              	.LBE4308:
 4602              	.LBE4307:
 4603              	.LBE4311:
 4604              	.LBE4318:
 4605              	.LBE4319:
 4606              	.LBE4320:
 4607              	.LBE4734:
 4608              	.LBB4735:
 4609              		.loc 1 375 0
 4610 1730 3CA00000 		lis 5,.LC0@ha
 4611 1734 38A50000 		la 5,.LC0@l(5)
 4612 1738 4BFFFEDC 		b .L329
 4613              	.LVL387:
 4614              	.L331:
 4615              	.LBB4724:
 4616              	.LBB4434:
 4617              		.loc 1 393 0
 4618 173c 3B810028 		addi 28,1,40
 4619 1740 7F04C378 		mr 4,24
 4620 1744 7F83E378 		mr 3,28
 4621 1748 38A10020 		addi 5,1,32
 4622              	.LEHB33:
 4623 174c 48000001 		bl _ZNSsC1EPKcRKSaIcE
 4624              	.LEHE33:
 4625              		.loc 1 394 0 discriminator 1
 4626 1750 7F03C378 		mr 3,24
 4627 1754 48000001 		bl strlen
 4628 1758 7C781A14 		add 3,24,3
 4629 175c 8803FFFF 		lbz 0,-1(3)
 4630 1760 2F80002F 		cmpwi 7,0,47
 4631 1764 419E005C 		beq- 7,.L388
 4632              	.LVL388:
 4633              	.LBB4435:
 4634              	.LBB4436:
 4635              	.LBB4437:
 4636              	.LBB4438:
 4637              	.LBB4439:
 4638              	.LBB4440:
 4639              	.LBB4441:
 4640              	.LBB4442:
 4641              		.loc 5 288 0
 4642 1768 81210028 		lwz 9,40(1)
 4643              	.LBE4442:
 4644              	.LBE4441:
 4645              	.LBE4440:
 4646              		.loc 5 711 0
 4647 176c 8169FFF4 		lwz 11,-12(9)
 4648              	.LBE4439:
 4649              	.LBE4438:
 4650              		.loc 5 1046 0
 4651 1770 8009FFF8 		lwz 0,-8(9)
 4652              		.loc 5 1045 0
 4653 1774 3BEB0001 		addi 31,11,1
 4654              	.LVL389:
 4655              		.loc 5 1046 0
 4656 1778 7F9F0040 		cmplw 7,31,0
 4657 177c 419D0010 		bgt- 7,.L389
 4658              	.LVL390:
 4659 1780 8009FFFC 		lwz 0,-4(9)
 4660 1784 2F800000 		cmpwi 7,0,0
 4661 1788 409D0018 		ble- 7,.L390
 4662              	.LVL391:
 4663              	.L389:
 4664              		.loc 5 1047 0
 4665 178c 7F83E378 		mr 3,28
 4666 1790 7FE4FB78 		mr 4,31
 4667              	.LEHB34:
 4668 1794 48000001 		bl _ZNSs7reserveEj
 4669 1798 81210028 		lwz 9,40(1)
 4670 179c 8169FFF4 		lwz 11,-12(9)
 4671              	.L390:
 4672              	.LVL392:
 4673              	.LBB4443:
 4674              	.LBB4444:
 4675              		.loc 8 245 0
 4676 17a0 3800002F 		li 0,47
 4677              	.LBE4444:
 4678              	.LBE4443:
 4679              	.LBB4446:
 4680              	.LBB4447:
 4681              		.loc 5 205 0
 4682 17a4 3E800000 		lis 20,_ZNSs4_Rep20_S_empty_rep_storageE@ha
 4683              	.LBE4447:
 4684              	.LBE4446:
 4685              	.LBB4457:
 4686              	.LBB4445:
 4687              		.loc 8 245 0
 4688 17a8 7C0959AE 		stbx 0,9,11
 4689              	.LVL393:
 4690              	.LBE4445:
 4691              	.LBE4457:
 4692              	.LBB4458:
 4693              	.LBB4454:
 4694              		.loc 5 205 0
 4695 17ac 3A940000 		la 20,_ZNSs4_Rep20_S_empty_rep_storageE@l(20)
 4696              	.LBE4454:
 4697              	.LBE4458:
 4698              	.LBB4459:
 4699              	.LBB4460:
 4700              	.LBB4461:
 4701              		.loc 5 288 0
 4702 17b0 81210028 		lwz 9,40(1)
 4703              	.LVL394:
 4704              	.LBE4461:
 4705              	.LBE4460:
 4706              	.LBE4459:
 4707              		.loc 5 1049 0
 4708 17b4 3809FFF4 		addi 0,9,-12
 4709              	.LBB4462:
 4710              	.LBB4455:
 4711              		.loc 5 205 0
 4712 17b8 7F80A000 		cmpw 7,0,20
 4713 17bc 409E0A88 		bne- 7,.L570
 4714              	.LVL395:
 4715              	.L388:
 4716              	.LBE4455:
 4717              	.LBE4462:
 4718              	.LBE4437:
 4719              	.LBE4436:
 4720              	.LBE4435:
 4721              	.LBB4466:
 4722              	.LBB4467:
 4723              	.LBB4468:
 4724              	.LBB4469:
 4725              	.LBB4470:
 4726              		.loc 8 261 0
 4727 17c0 7EE3BB78 		mr 3,23
 4728 17c4 48000001 		bl strlen
 4729              	.LBE4470:
 4730              	.LBE4469:
 4731              		.loc 5 1000 0
 4732 17c8 7EE4BB78 		mr 4,23
 4733              	.LBB4472:
 4734              	.LBB4471:
 4735              		.loc 8 261 0
 4736 17cc 7C651B78 		mr 5,3
 4737              	.LBE4471:
 4738              	.LBE4472:
 4739              		.loc 5 1000 0
 4740 17d0 7F83E378 		mr 3,28
 4741 17d4 48000001 		bl _ZNSs6appendEPKcj
 4742              	.LBE4468:
 4743              	.LBE4467:
 4744              	.LBE4466:
 4745              		.loc 1 398 0
 4746 17d8 3B410024 		addi 26,1,36
 4747 17dc 7F64DB78 		mr 4,27
 4748 17e0 7F43D378 		mr 3,26
 4749 17e4 38A1001F 		addi 5,1,31
 4750 17e8 48000001 		bl _ZNSsC1EPKcRKSaIcE
 4751              	.LEHE34:
 4752              		.loc 1 399 0 discriminator 1
 4753 17ec 7F63DB78 		mr 3,27
 4754 17f0 48000001 		bl strlen
 4755 17f4 7C7B1A14 		add 3,27,3
 4756 17f8 8803FFFF 		lbz 0,-1(3)
 4757 17fc 2F80002F 		cmpwi 7,0,47
 4758 1800 419E005C 		beq- 7,.L393
 4759              	.LVL396:
 4760              	.LBB4473:
 4761              	.LBB4474:
 4762              	.LBB4475:
 4763              	.LBB4476:
 4764              	.LBB4477:
 4765              	.LBB4478:
 4766              	.LBB4479:
 4767              	.LBB4480:
 4768              		.loc 5 288 0
 4769 1804 81210024 		lwz 9,36(1)
 4770              	.LBE4480:
 4771              	.LBE4479:
 4772              	.LBE4478:
 4773              		.loc 5 711 0
 4774 1808 8169FFF4 		lwz 11,-12(9)
 4775              	.LBE4477:
 4776              	.LBE4476:
 4777              		.loc 5 1046 0
 4778 180c 8009FFF8 		lwz 0,-8(9)
 4779              		.loc 5 1045 0
 4780 1810 3BEB0001 		addi 31,11,1
 4781              	.LVL397:
 4782              		.loc 5 1046 0
 4783 1814 7F9F0040 		cmplw 7,31,0
 4784 1818 419D0010 		bgt- 7,.L394
 4785              	.LVL398:
 4786 181c 8009FFFC 		lwz 0,-4(9)
 4787 1820 2F800000 		cmpwi 7,0,0
 4788 1824 409D0018 		ble- 7,.L395
 4789              	.LVL399:
 4790              	.L394:
 4791              		.loc 5 1047 0
 4792 1828 7F43D378 		mr 3,26
 4793 182c 7FE4FB78 		mr 4,31
 4794              	.LEHB35:
 4795 1830 48000001 		bl _ZNSs7reserveEj
 4796 1834 81210024 		lwz 9,36(1)
 4797 1838 8169FFF4 		lwz 11,-12(9)
 4798              	.L395:
 4799              	.LVL400:
 4800              	.LBB4481:
 4801              	.LBB4482:
 4802              		.loc 8 245 0
 4803 183c 3800002F 		li 0,47
 4804              	.LBE4482:
 4805              	.LBE4481:
 4806              	.LBB4484:
 4807              	.LBB4485:
 4808              		.loc 5 205 0
 4809 1840 3E800000 		lis 20,_ZNSs4_Rep20_S_empty_rep_storageE@ha
 4810              	.LBE4485:
 4811              	.LBE4484:
 4812              	.LBB4495:
 4813              	.LBB4483:
 4814              		.loc 8 245 0
 4815 1844 7C0959AE 		stbx 0,9,11
 4816              	.LVL401:
 4817              	.LBE4483:
 4818              	.LBE4495:
 4819              	.LBB4496:
 4820              	.LBB4492:
 4821              		.loc 5 205 0
 4822 1848 3A940000 		la 20,_ZNSs4_Rep20_S_empty_rep_storageE@l(20)
 4823              	.LBE4492:
 4824              	.LBE4496:
 4825              	.LBB4497:
 4826              	.LBB4498:
 4827              	.LBB4499:
 4828              		.loc 5 288 0
 4829 184c 81210024 		lwz 9,36(1)
 4830              	.LVL402:
 4831              	.LBE4499:
 4832              	.LBE4498:
 4833              	.LBE4497:
 4834              		.loc 5 1049 0
 4835 1850 3809FFF4 		addi 0,9,-12
 4836              	.LBB4500:
 4837              	.LBB4493:
 4838              		.loc 5 205 0
 4839 1854 7F80A000 		cmpw 7,0,20
 4840 1858 409E0A10 		bne- 7,.L571
 4841              	.LVL403:
 4842              	.L393:
 4843              	.LBE4493:
 4844              	.LBE4500:
 4845              	.LBE4475:
 4846              	.LBE4474:
 4847              	.LBE4473:
 4848              	.LBB4504:
 4849              	.LBB4505:
 4850              	.LBB4506:
 4851              	.LBB4507:
 4852              	.LBB4508:
 4853              		.loc 8 261 0
 4854 185c 7EE3BB78 		mr 3,23
 4855 1860 48000001 		bl strlen
 4856              	.LBE4508:
 4857              	.LBE4507:
 4858              		.loc 5 1000 0
 4859 1864 7EE4BB78 		mr 4,23
 4860              	.LBB4510:
 4861              	.LBB4509:
 4862              		.loc 8 261 0
 4863 1868 7C651B78 		mr 5,3
 4864              	.LBE4509:
 4865              	.LBE4510:
 4866              		.loc 5 1000 0
 4867 186c 7F43D378 		mr 3,26
 4868 1870 48000001 		bl _ZNSs6appendEPKcj
 4869              	.LVL404:
 4870              	.LBE4506:
 4871              	.LBE4505:
 4872              	.LBE4504:
 4873              	.LBB4511:
 4874              	.LBB4512:
 4875              	.LBB4513:
 4876              		.loc 5 288 0
 4877 1874 83E10024 		lwz 31,36(1)
 4878              	.LBE4513:
 4879              	.LBE4512:
 4880              	.LBE4511:
 4881              	.LBB4514:
 4882              	.LBB4515:
 4883              	.LBB4516:
 4884 1878 83C10028 		lwz 30,40(1)
 4885              	.LVL405:
 4886              	.LBE4516:
 4887              	.LBE4515:
 4888              	.LBE4514:
 4889              	.LBB4517:
 4890              	.LBB4518:
 4891              	.LBB4519:
 4892              		.loc 1 235 0
 4893 187c 2F9F0000 		cmpwi 7,31,0
 4894 1880 419E0950 		beq- 7,.L508
 4895              		.loc 1 238 0
 4896 1884 A8930008 		lha 4,8(19)
 4897              		.loc 1 240 0
 4898 1888 7E639B78 		mr 3,19
 4899              		.loc 1 238 0
 4900 188c 2F840001 		cmpwi 7,4,1
 4901 1890 419E0210 		beq- 7,.L572
 4902              		.loc 1 243 0
 4903 1894 48000001 		bl _ZN7ZipFile10SwitchModeEs
 4904              	.LVL406:
 4905 1898 2F830000 		cmpwi 7,3,0
 4906 189c 419E066C 		beq- 7,.L573
 4907              	.L398:
 4908              		.loc 1 247 0
 4909 18a0 38800000 		li 4,0
 4910 18a4 38A00024 		li 5,36
 4911 18a8 38610034 		addi 3,1,52
 4912 18ac 48000001 		bl memset
 4913              	.LBB4520:
 4914              		.loc 1 249 0
 4915 18b0 7FE3FB78 		mr 3,31
 4916 18b4 48000001 		bl strlen
 4917 18b8 7C7F1A14 		add 3,31,3
 4918 18bc 8803FFFF 		lbz 0,-1(3)
 4919 18c0 2F80002F 		cmpwi 7,0,47
 4920 18c4 419E05C0 		beq- 7,.L574
 4921              	.LBE4520:
 4922              		.loc 1 259 0
 4923 18c8 2F9E0000 		cmpwi 7,30,0
 4924 18cc 419E0A24 		beq- 7,.L575
 4925              		.loc 1 263 0
 4926 18d0 38800000 		li 4,0
 4927 18d4 38610058 		addi 3,1,88
 4928 18d8 38A00048 		li 5,72
 4929 18dc 48000001 		bl memset
 4930              		.loc 1 264 0
 4931 18e0 7FC3F378 		mr 3,30
 4932 18e4 38810058 		addi 4,1,88
 4933 18e8 48000001 		bl stat
 4934              		.loc 1 269 0
 4935 18ec 38610080 		addi 3,1,128
 4936              		.loc 1 266 0
 4937 18f0 82810070 		lwz 20,112(1)
 4938 18f4 82A10074 		lwz 21,116(1)
 4939              	.LVL407:
 4940              		.loc 1 269 0
 4941 18f8 48000001 		bl localtime
 4942              	.LVL408:
 4943              		.loc 1 270 0
 4944 18fc 81030000 		lwz 8,0(3)
 4945              		.loc 1 277 0
 4946 1900 3C800000 		lis 4,.LC11@ha
 4947              		.loc 1 271 0
 4948 1904 81430004 		lwz 10,4(3)
 4949              		.loc 1 277 0
 4950 1908 38840074 		la 4,.LC11@l(4)
 4951              		.loc 1 272 0
 4952 190c 81630008 		lwz 11,8(3)
 4953              		.loc 1 273 0
 4954 1910 8123000C 		lwz 9,12(3)
 4955              		.loc 1 274 0
 4956 1914 80030010 		lwz 0,16(3)
 4957              		.loc 1 275 0
 4958 1918 80E30014 		lwz 7,20(3)
 4959              		.loc 1 277 0
 4960 191c 7FC3F378 		mr 3,30
 4961              	.LVL409:
 4962              		.loc 1 270 0
 4963 1920 91010034 		stw 8,52(1)
 4964              		.loc 1 271 0
 4965 1924 91410038 		stw 10,56(1)
 4966              		.loc 1 272 0
 4967 1928 9161003C 		stw 11,60(1)
 4968              		.loc 1 273 0
 4969 192c 91210040 		stw 9,64(1)
 4970              		.loc 1 274 0
 4971 1930 90010044 		stw 0,68(1)
 4972              		.loc 1 275 0
 4973 1934 90E10048 		stw 7,72(1)
 4974              		.loc 1 277 0
 4975 1938 48000001 		bl fopen
 4976              	.LVL410:
 4977              		.loc 1 278 0
 4978 193c 7C6A1B79 		mr. 10,3
 4979 1940 914100A8 		stw 10,168(1)
 4980 1944 41820988 		beq- 0,.L576
 4981              	.LVL411:
 4982              		.loc 1 282 0
 4983 1948 3C600001 		lis 3,0x1
 4984              	.LVL412:
 4985 194c 60631800 		ori 3,3,6144
 4986 1950 48000001 		bl malloc
 4987              	.LVL413:
 4988              		.loc 1 283 0
 4989 1954 7C791B79 		mr. 25,3
 4990 1958 41820980 		beq- 0,.L577
 4991              		.loc 1 289 0
 4992 195c 80730000 		lwz 3,0(19)
 4993              	.LVL414:
 4994 1960 38000008 		li 0,8
 4995 1964 7FE4FB78 		mr 4,31
 4996 1968 38A10034 		addi 5,1,52
 4997 196c 38C00000 		li 6,0
 4998 1970 38E00000 		li 7,0
 4999 1974 39000000 		li 8,0
 5000 1978 39200000 		li 9,0
 5001 197c 39400000 		li 10,0
 5002 1980 90010008 		stw 0,8(1)
 5003 1984 91E1000C 		stw 15,12(1)
 5004 1988 48000001 		bl zipOpenNewFileInZip
 5005              	.LVL415:
 5006              		.loc 1 290 0
 5007 198c 7C641B79 		mr. 4,3
 5008 1990 40820970 		bne- 0,.L405
 5009              		.loc 1 307 0
 5010 1994 7E80AB79 		or. 0,20,21
 5011 1998 3FC00001 		lis 30,0x1
 5012              	.LVL416:
 5013              		.loc 1 266 0
 5014 199c 7E90A378 		mr 16,20
 5015 19a0 7EB1AB78 		mr 17,21
 5016              	.LVL417:
 5017              		.loc 1 307 0
 5018 19a4 63DE1800 		ori 30,30,6144
 5019 19a8 3A800000 		li 20,0
 5020              	.LVL418:
 5021 19ac 3AA00000 		li 21,0
 5022              	.LVL419:
 5023 19b0 40A20044 		bne+ 0,.L551
 5024 19b4 48000078 		b .L407
 5025              	.LVL420:
 5026              	.L579:
 5027              		.loc 1 316 0
 5028 19b8 80730000 		lwz 3,0(19)
 5029              	.LVL421:
 5030 19bc 7F24CB78 		mr 4,25
 5031 19c0 7FE5FB78 		mr 5,31
 5032 19c4 48000001 		bl zipWriteInFileInZip
 5033              	.LVL422:
 5034              		.loc 1 317 0
 5035 19c8 2F830000 		cmpwi 7,3,0
 5036 19cc 409E0060 		bne- 7,.L407
 5037              		.loc 1 320 0
 5038 19d0 93E100A4 		stw 31,164(1)
 5039 19d4 7FFFFE70 		srawi 31,31,31
 5040              	.LVL423:
 5041 19d8 93E100A0 		stw 31,160(1)
 5042 19dc 814100A4 		lwz 10,164(1)
 5043 19e0 812100A0 		lwz 9,160(1)
 5044 19e4 7EB55014 		addc 21,21,10
 5045 19e8 7E944914 		adde 20,20,9
 5046              	.LVL424:
 5047              		.loc 1 307 0
 5048 19ec 7F90A040 		cmplw 7,16,20
 5049 19f0 409D0378 		ble- 7,.L578
 5050              	.LVL425:
 5051              	.L551:
 5052              		.loc 1 309 0
 5053 19f4 7D758810 		subfc 11,21,17
 5054 19f8 7D548110 		subfe 10,20,16
 5055 19fc 2F8A0000 		cmpwi 7,10,0
 5056 1a00 409E0010 		bne- 7,.L408
 5057 1a04 7F9E5840 		cmplw 7,30,11
 5058 1a08 409D0008 		ble- 7,.L408
 5059              		.loc 1 310 0
 5060 1a0c 7FD58850 		subf 30,21,17
 5061              	.LVL426:
 5062              	.L408:
 5063              		.loc 1 312 0
 5064 1a10 80C100A8 		lwz 6,168(1)
 5065 1a14 7F23CB78 		mr 3,25
 5066 1a18 38800001 		li 4,1
 5067 1a1c 7FC5F378 		mr 5,30
 5068 1a20 48000001 		bl fread
 5069              	.LVL427:
 5070              		.loc 1 313 0
 5071 1a24 7C7F1B79 		mr. 31,3
 5072 1a28 4181FF90 		bgt+ 0,.L579
 5073              	.LVL428:
 5074              	.L407:
 5075              		.loc 1 323 0
 5076 1a2c 7F23CB78 		mr 3,25
 5077 1a30 48000001 		bl free
 5078              		.loc 1 324 0
 5079 1a34 806100A8 		lwz 3,168(1)
 5080 1a38 48000001 		bl fclose
 5081              		.loc 1 325 0
 5082 1a3c 80730000 		lwz 3,0(19)
 5083 1a40 48000001 		bl zipCloseFileInZip
 5084              		.loc 1 333 0
 5085 1a44 7F90A000 		cmpw 7,16,20
 5086              		.loc 1 331 0
 5087 1a48 38000002 		li 0,2
 5088 1a4c B0130008 		sth 0,8(19)
 5089              		.loc 1 333 0
 5090 1a50 419E032C 		beq- 7,.L580
 5091              	.L537:
 5092 1a54 81210024 		lwz 9,36(1)
 5093 1a58 3B20FFF4 		li 25,-12
 5094              	.LVL429:
 5095              	.L396:
 5096              	.LBE4519:
 5097              	.LBE4518:
 5098              	.LBE4517:
 5099              	.LBB4537:
 5100              	.LBB4538:
 5101              	.LBB4539:
 5102              	.LBB4540:
 5103              	.LBB4541:
 5104              		.loc 5 235 0
 5105 1a5c 3E800000 		lis 20,_ZNSs4_Rep20_S_empty_rep_storageE@ha
 5106              	.LBE4541:
 5107              	.LBE4540:
 5108              		.loc 5 534 0
 5109 1a60 3869FFF4 		addi 3,9,-12
 5110              	.LVL430:
 5111              	.LBB4550:
 5112              	.LBB4548:
 5113              		.loc 5 235 0
 5114 1a64 3A940000 		la 20,_ZNSs4_Rep20_S_empty_rep_storageE@l(20)
 5115 1a68 7F83A000 		cmpw 7,3,20
 5116 1a6c 409E0818 		bne- 7,.L581
 5117              	.LVL431:
 5118              	.L424:
 5119              	.LBE4548:
 5120              	.LBE4550:
 5121              	.LBE4539:
 5122              	.LBE4538:
 5123              	.LBE4537:
 5124              	.LBB4554:
 5125              	.LBB4555:
 5126              	.LBB4556:
 5127              	.LBB4557:
 5128              	.LBB4558:
 5129              	.LBB4559:
 5130              		.loc 5 288 0
 5131 1a70 81210028 		lwz 9,40(1)
 5132              	.LBE4559:
 5133              	.LBE4558:
 5134              	.LBE4557:
 5135              		.loc 5 534 0
 5136 1a74 3869FFF4 		addi 3,9,-12
 5137              	.LVL432:
 5138              	.LBB4560:
 5139              	.LBB4561:
 5140              		.loc 5 235 0
 5141 1a78 7F83A000 		cmpw 7,3,20
 5142 1a7c 41BE0044 		beq+ 7,.L431
 5143              	.LVL433:
 5144              	.LBB4562:
 5145              	.LBB4563:
 5146              	.LBB4564:
 5147              		.loc 6 66 0
 5148 1a80 8169FFFC 		lwz 11,-4(9)
 5149              	.LVL434:
 5150              	.LBE4564:
 5151              	.LBE4563:
 5152              	.LBE4562:
 5153              		.loc 5 240 0
 5154 1a84 2F8B0000 		cmpwi 7,11,0
 5155              	.LBB4567:
 5156              	.LBB4566:
 5157              	.LBB4565:
 5158              		.loc 6 67 0
 5159 1a88 396BFFFF 		addi 11,11,-1
 5160 1a8c 9169FFFC 		stw 11,-4(9)
 5161              	.LBE4565:
 5162              	.LBE4566:
 5163              	.LBE4567:
 5164              		.loc 5 240 0
 5165 1a90 41BD0030 		bgt+ 7,.L431
 5166              		.loc 5 244 0
 5167 1a94 38810016 		addi 4,1,22
 5168 1a98 48000001 		bl _ZNSs4_Rep10_M_destroyERKSaIcE
 5169              	.LVL435:
 5170 1a9c 48000024 		b .L431
 5171              	.LVL436:
 5172              	.L572:
 5173              	.LBE4561:
 5174              	.LBE4560:
 5175              	.LBE4556:
 5176              	.LBE4555:
 5177              	.LBE4554:
 5178              	.LBB4568:
 5179              	.LBB4531:
 5180              	.LBB4525:
 5181              		.loc 1 240 0
 5182 1aa0 38800002 		li 4,2
 5183 1aa4 48000001 		bl _ZN7ZipFile10SwitchModeEs
 5184              	.LEHE35:
 5185 1aa8 2F830000 		cmpwi 7,3,0
 5186 1aac 409EFDF4 		bne+ 7,.L398
 5187 1ab0 81210024 		lwz 9,36(1)
 5188              		.loc 1 241 0
 5189 1ab4 3B20FFFE 		li 25,-2
 5190 1ab8 4BFFFFA4 		b .L396
 5191              	.LVL437:
 5192              	.L568:
 5193              	.LBE4525:
 5194              	.LBE4531:
 5195              	.LBE4568:
 5196              	.LBE4434:
 5197              	.LBE4724:
 5198              	.LBE4735:
 5199              		.loc 1 370 0
 5200 1abc 3B200001 		li 25,1
 5201              	.LVL438:
 5202              	.L431:
 5203              		.loc 1 408 0
 5204 1ac0 7DC37378 		mr 3,14
 5205              	.LEHB36:
 5206 1ac4 48000001 		bl closedir
 5207              		.loc 1 409 0 discriminator 1
 5208 1ac8 7EE3BB78 		mr 3,23
 5209              		.loc 1 412 0 discriminator 1
 5210 1acc 7EDEB378 		mr 30,22
 5211              		.loc 1 409 0 discriminator 1
 5212 1ad0 48000001 		bl _ZdaPv
 5213              		.loc 1 410 0 discriminator 1
 5214 1ad4 7E439378 		mr 3,18
 5215 1ad8 48000001 		bl _ZdlPv
 5216              		.loc 1 412 0 discriminator 1
 5217 1adc 7F9DF000 		cmpw 7,29,30
 5218              	.LBB4736:
 5219              	.LBB4737:
 5220              	.LBB4738:
 5221              	.LBB4739:
 5222              	.LBB4740:
 5223              		.loc 5 244 0 discriminator 1
 5224 1ae0 7FD6F378 		mr 22,30
 5225              	.LVL439:
 5226              	.LBE4740:
 5227              	.LBE4739:
 5228              	.LBE4738:
 5229              	.LBE4737:
 5230              	.LBE4736:
 5231              		.loc 1 412 0 discriminator 1
 5232 1ae4 419E01D0 		beq- 7,.L325
 5233              	.L587:
 5234              		.loc 1 412 0 is_stmt 0 discriminator 2
 5235 1ae8 2F990000 		cmpwi 7,25,0
 5236 1aec 419C01C8 		blt- 7,.L325
 5237              	.LBB4889:
 5238              		.loc 1 414 0 is_stmt 1 discriminator 5
 5239 1af0 3B410024 		addi 26,1,36
 5240 1af4 7F04C378 		mr 4,24
 5241 1af8 7F43D378 		mr 3,26
 5242 1afc 38A1001E 		addi 5,1,30
 5243 1b00 48000001 		bl _ZNSsC1EPKcRKSaIcE
 5244              	.LEHE36:
 5245              		.loc 1 415 0 discriminator 1
 5246 1b04 7F03C378 		mr 3,24
 5247 1b08 48000001 		bl strlen
 5248 1b0c 7C781A14 		add 3,24,3
 5249 1b10 8803FFFF 		lbz 0,-1(3)
 5250 1b14 2F80002F 		cmpwi 7,0,47
 5251 1b18 419E005C 		beq- 7,.L435
 5252              	.LVL440:
 5253              	.LBB4759:
 5254              	.LBB4760:
 5255              	.LBB4761:
 5256              	.LBB4762:
 5257              	.LBB4763:
 5258              	.LBB4764:
 5259              	.LBB4765:
 5260              	.LBB4766:
 5261              		.loc 5 288 0
 5262 1b1c 81210024 		lwz 9,36(1)
 5263              	.LBE4766:
 5264              	.LBE4765:
 5265              	.LBE4764:
 5266              		.loc 5 711 0
 5267 1b20 8169FFF4 		lwz 11,-12(9)
 5268              	.LBE4763:
 5269              	.LBE4762:
 5270              		.loc 5 1046 0
 5271 1b24 8009FFF8 		lwz 0,-8(9)
 5272              		.loc 5 1045 0
 5273 1b28 3BEB0001 		addi 31,11,1
 5274              	.LVL441:
 5275              		.loc 5 1046 0
 5276 1b2c 7F9F0040 		cmplw 7,31,0
 5277 1b30 419D0010 		bgt- 7,.L436
 5278              	.LVL442:
 5279 1b34 8009FFFC 		lwz 0,-4(9)
 5280 1b38 2F800000 		cmpwi 7,0,0
 5281 1b3c 409D0018 		ble- 7,.L437
 5282              	.LVL443:
 5283              	.L436:
 5284              		.loc 5 1047 0
 5285 1b40 7F43D378 		mr 3,26
 5286 1b44 7FE4FB78 		mr 4,31
 5287              	.LEHB37:
 5288 1b48 48000001 		bl _ZNSs7reserveEj
 5289 1b4c 81210024 		lwz 9,36(1)
 5290 1b50 8169FFF4 		lwz 11,-12(9)
 5291              	.L437:
 5292              	.LVL444:
 5293              	.LBB4767:
 5294              	.LBB4768:
 5295              		.loc 8 245 0
 5296 1b54 3800002F 		li 0,47
 5297              	.LBE4768:
 5298              	.LBE4767:
 5299              	.LBB4770:
 5300              	.LBB4771:
 5301              		.loc 5 205 0
 5302 1b58 3E800000 		lis 20,_ZNSs4_Rep20_S_empty_rep_storageE@ha
 5303              	.LBE4771:
 5304              	.LBE4770:
 5305              	.LBB4781:
 5306              	.LBB4769:
 5307              		.loc 8 245 0
 5308 1b5c 7C0959AE 		stbx 0,9,11
 5309              	.LVL445:
 5310              	.LBE4769:
 5311              	.LBE4781:
 5312              	.LBB4782:
 5313              	.LBB4778:
 5314              		.loc 5 205 0
 5315 1b60 3A940000 		la 20,_ZNSs4_Rep20_S_empty_rep_storageE@l(20)
 5316              	.LBE4778:
 5317              	.LBE4782:
 5318              	.LBB4783:
 5319              	.LBB4784:
 5320              	.LBB4785:
 5321              		.loc 5 288 0
 5322 1b64 81210024 		lwz 9,36(1)
 5323              	.LVL446:
 5324              	.LBE4785:
 5325              	.LBE4784:
 5326              	.LBE4783:
 5327              		.loc 5 1049 0
 5328 1b68 3809FFF4 		addi 0,9,-12
 5329              	.LBB4786:
 5330              	.LBB4779:
 5331              		.loc 5 205 0
 5332 1b6c 7F80A000 		cmpw 7,0,20
 5333 1b70 409E05D8 		bne- 7,.L582
 5334              	.LVL447:
 5335              	.L435:
 5336              	.LBE4779:
 5337              	.LBE4786:
 5338              	.LBE4761:
 5339              	.LBE4760:
 5340              	.LBE4759:
 5341              	.LBB4790:
 5342              	.LBB4791:
 5343              		.loc 5 925 0
 5344 1b74 7F43D378 		mr 3,26
 5345 1b78 7FA4EB78 		mr 4,29
 5346 1b7c 48000001 		bl _ZNSs6appendERKSs
 5347              	.LBE4791:
 5348              	.LBE4790:
 5349              		.loc 1 419 0
 5350 1b80 3B810028 		addi 28,1,40
 5351 1b84 7F64DB78 		mr 4,27
 5352 1b88 7F83E378 		mr 3,28
 5353 1b8c 38A1001D 		addi 5,1,29
 5354 1b90 48000001 		bl _ZNSsC1EPKcRKSaIcE
 5355              	.LEHE37:
 5356              		.loc 1 420 0 discriminator 1
 5357 1b94 7F63DB78 		mr 3,27
 5358 1b98 48000001 		bl strlen
 5359 1b9c 7C7B1A14 		add 3,27,3
 5360 1ba0 8803FFFF 		lbz 0,-1(3)
 5361 1ba4 2F80002F 		cmpwi 7,0,47
 5362 1ba8 419E005C 		beq- 7,.L440
 5363              	.LVL448:
 5364              	.LBB4792:
 5365              	.LBB4793:
 5366              	.LBB4794:
 5367              	.LBB4795:
 5368              	.LBB4796:
 5369              	.LBB4797:
 5370              	.LBB4798:
 5371              	.LBB4799:
 5372              		.loc 5 288 0
 5373 1bac 81210028 		lwz 9,40(1)
 5374              	.LBE4799:
 5375              	.LBE4798:
 5376              	.LBE4797:
 5377              		.loc 5 711 0
 5378 1bb0 8169FFF4 		lwz 11,-12(9)
 5379              	.LBE4796:
 5380              	.LBE4795:
 5381              		.loc 5 1046 0
 5382 1bb4 8009FFF8 		lwz 0,-8(9)
 5383              		.loc 5 1045 0
 5384 1bb8 3BEB0001 		addi 31,11,1
 5385              	.LVL449:
 5386              		.loc 5 1046 0
 5387 1bbc 7F9F0040 		cmplw 7,31,0
 5388 1bc0 419D0010 		bgt- 7,.L441
 5389              	.LVL450:
 5390 1bc4 8009FFFC 		lwz 0,-4(9)
 5391 1bc8 2F800000 		cmpwi 7,0,0
 5392 1bcc 409D0018 		ble- 7,.L442
 5393              	.LVL451:
 5394              	.L441:
 5395              		.loc 5 1047 0
 5396 1bd0 7F83E378 		mr 3,28
 5397 1bd4 7FE4FB78 		mr 4,31
 5398              	.LEHB38:
 5399 1bd8 48000001 		bl _ZNSs7reserveEj
 5400 1bdc 81210028 		lwz 9,40(1)
 5401 1be0 8169FFF4 		lwz 11,-12(9)
 5402              	.L442:
 5403              	.LVL452:
 5404              	.LBB4800:
 5405              	.LBB4801:
 5406              		.loc 8 245 0
 5407 1be4 3800002F 		li 0,47
 5408              	.LBE4801:
 5409              	.LBE4800:
 5410              	.LBB4803:
 5411              	.LBB4804:
 5412              		.loc 5 205 0
 5413 1be8 3E800000 		lis 20,_ZNSs4_Rep20_S_empty_rep_storageE@ha
 5414              	.LBE4804:
 5415              	.LBE4803:
 5416              	.LBB4814:
 5417              	.LBB4802:
 5418              		.loc 8 245 0
 5419 1bec 7C0959AE 		stbx 0,9,11
 5420              	.LVL453:
 5421              	.LBE4802:
 5422              	.LBE4814:
 5423              	.LBB4815:
 5424              	.LBB4811:
 5425              		.loc 5 205 0
 5426 1bf0 3A940000 		la 20,_ZNSs4_Rep20_S_empty_rep_storageE@l(20)
 5427              	.LBE4811:
 5428              	.LBE4815:
 5429              	.LBB4816:
 5430              	.LBB4817:
 5431              	.LBB4818:
 5432              		.loc 5 288 0
 5433 1bf4 81210028 		lwz 9,40(1)
 5434              	.LVL454:
 5435              	.LBE4818:
 5436              	.LBE4817:
 5437              	.LBE4816:
 5438              		.loc 5 1049 0
 5439 1bf8 3809FFF4 		addi 0,9,-12
 5440              	.LBB4819:
 5441              	.LBB4812:
 5442              		.loc 5 205 0
 5443 1bfc 7F80A000 		cmpw 7,0,20
 5444 1c00 409E056C 		bne- 7,.L583
 5445              	.LVL455:
 5446              	.L440:
 5447              	.LBE4812:
 5448              	.LBE4819:
 5449              	.LBE4794:
 5450              	.LBE4793:
 5451              	.LBE4792:
 5452              	.LBB4823:
 5453              	.LBB4824:
 5454              		.loc 5 925 0
 5455 1c04 7F83E378 		mr 3,28
 5456 1c08 7FA4EB78 		mr 4,29
 5457 1c0c 48000001 		bl _ZNSs6appendERKSs
 5458              	.LVL456:
 5459              	.LBE4824:
 5460              	.LBE4823:
 5461              		.loc 1 424 0
 5462 1c10 80810024 		lwz 4,36(1)
 5463 1c14 7E639B78 		mr 3,19
 5464 1c18 80A10028 		lwz 5,40(1)
 5465 1c1c 7DE67B78 		mr 6,15
 5466 1c20 48000001 		bl _ZN7ZipFile12AddDirectoryEPKcS1_i
 5467              	.LBB4825:
 5468              	.LBB4826:
 5469              	.LBB4827:
 5470              	.LBB4828:
 5471              		.loc 11 773 0
 5472 1c24 381D0004 		addi 0,29,4
 5473              	.LBE4828:
 5474              	.LBE4827:
 5475              	.LBE4826:
 5476              	.LBE4825:
 5477              		.loc 1 424 0
 5478 1c28 7C791B78 		mr 25,3
 5479              	.LVL457:
 5480              	.LBB4863:
 5481              	.LBB4861:
 5482              		.loc 9 138 0
 5483 1c2c 7F80F000 		cmpw 7,0,30
 5484 1c30 419E003C 		beq- 7,.L443
 5485              	.LVL458:
 5486              	.LBB4829:
 5487              	.LBB4830:
 5488              	.LBB4831:
 5489              	.LBB4832:
 5490              	.LBB4833:
 5491              	.LBB4834:
 5492              	.LBB4835:
 5493              		.loc 10 327 0
 5494 1c34 7C00F050 		subf 0,0,30
 5495              	.LVL459:
 5496 1c38 7FA3EB78 		mr 3,29
 5497              	.LVL460:
 5498 1c3c 7C091671 		srawi. 9,0,2
 5499 1c40 912100A0 		stw 9,160(1)
 5500 1c44 41A1000C 		bgt+ 0,.L444
 5501 1c48 48000024 		b .L443
 5502              	.LVL461:
 5503              	.L512:
 5504 1c4c 7FE3FB78 		mr 3,31
 5505              	.LVL462:
 5506              	.L444:
 5507              		.loc 1 337 0
 5508 1c50 3BE30004 		addi 31,3,4
 5509              	.LVL463:
 5510              	.LBB4836:
 5511              	.LBB4837:
 5512              		.loc 5 542 0
 5513 1c54 7FE4FB78 		mr 4,31
 5514 1c58 48000001 		bl _ZNSs6assignERKSs
 5515              	.LEHE38:
 5516              	.LVL464:
 5517              	.LBE4837:
 5518              	.LBE4836:
 5519              		.loc 10 327 0
 5520 1c5c 800100A0 		lwz 0,160(1)
 5521 1c60 3520FFFF 		addic. 9,0,-1
 5522 1c64 912100A0 		stw 9,160(1)
 5523 1c68 4082FFE4 		bne+ 0,.L512
 5524              	.LVL465:
 5525              	.L443:
 5526              	.LBE4835:
 5527              	.LBE4834:
 5528              	.LBE4833:
 5529              	.LBE4832:
 5530              	.LBE4831:
 5531              	.LBE4830:
 5532              	.LBE4829:
 5533              	.LBB4838:
 5534              	.LBB4839:
 5535              	.LBB4840:
 5536              	.LBB4841:
 5537              	.LBB4842:
 5538              	.LBB4843:
 5539              	.LBB4844:
 5540              		.loc 5 288 0
 5541 1c6c 813EFFFC 		lwz 9,-4(30)
 5542              	.LBE4844:
 5543              	.LBE4843:
 5544              	.LBE4842:
 5545              	.LBB4845:
 5546              	.LBB4846:
 5547              		.loc 5 235 0
 5548 1c70 3E800000 		lis 20,_ZNSs4_Rep20_S_empty_rep_storageE@ha
 5549 1c74 3A940000 		la 20,_ZNSs4_Rep20_S_empty_rep_storageE@l(20)
 5550              	.LBE4846:
 5551              	.LBE4845:
 5552              		.loc 5 534 0
 5553 1c78 3869FFF4 		addi 3,9,-12
 5554              	.LVL466:
 5555              	.LBB4855:
 5556              	.LBB4853:
 5557              		.loc 5 235 0
 5558 1c7c 7F83A000 		cmpw 7,3,20
 5559 1c80 409E0500 		bne- 7,.L584
 5560              	.LVL467:
 5561              	.L450:
 5562              	.LBE4853:
 5563              	.LBE4855:
 5564              	.LBE4841:
 5565              	.LBE4840:
 5566              	.LBE4839:
 5567              	.LBE4838:
 5568              	.LBE4861:
 5569              	.LBE4863:
 5570              	.LBB4864:
 5571              	.LBB4865:
 5572              	.LBB4866:
 5573              	.LBB4867:
 5574              	.LBB4868:
 5575              	.LBB4869:
 5576              		.loc 5 288 0
 5577 1c84 81210028 		lwz 9,40(1)
 5578              	.LBE4869:
 5579              	.LBE4868:
 5580              	.LBE4867:
 5581              		.loc 5 534 0
 5582 1c88 3869FFF4 		addi 3,9,-12
 5583              	.LVL468:
 5584              	.LBB4870:
 5585              	.LBB4871:
 5586              		.loc 5 235 0
 5587 1c8c 7F83A000 		cmpw 7,3,20
 5588 1c90 409E0614 		bne- 7,.L585
 5589              	.LVL469:
 5590              	.L456:
 5591              	.LBE4871:
 5592              	.LBE4870:
 5593              	.LBE4866:
 5594              	.LBE4865:
 5595              	.LBE4864:
 5596              	.LBB4882:
 5597              	.LBB4756:
 5598              	.LBB4750:
 5599              	.LBB4751:
 5600              	.LBB4752:
 5601              		.loc 5 288 0
 5602 1c94 81210024 		lwz 9,36(1)
 5603              	.LBE4752:
 5604              	.LBE4751:
 5605              	.LBE4750:
 5606              		.loc 5 534 0
 5607 1c98 3869FFF4 		addi 3,9,-12
 5608              	.LVL470:
 5609              	.LBB4753:
 5610              	.LBB4747:
 5611              		.loc 5 235 0
 5612 1c9c 7F83A000 		cmpw 7,3,20
 5613 1ca0 409E06CC 		bne- 7,.L586
 5614              	.L457:
 5615              		.loc 5 244 0 discriminator 1
 5616 1ca4 3BDEFFFC 		addi 30,30,-4
 5617              	.LVL471:
 5618              	.L595:
 5619              	.LBE4747:
 5620              	.LBE4753:
 5621              	.LBE4756:
 5622              	.LBE4882:
 5623              	.LBE4889:
 5624              		.loc 1 412 0
 5625 1ca8 7F9DF000 		cmpw 7,29,30
 5626              	.LBB4890:
 5627              	.LBB4883:
 5628              	.LBB4757:
 5629              	.LBB4754:
 5630              	.LBB4748:
 5631              		.loc 5 244 0
 5632 1cac 7FD6F378 		mr 22,30
 5633              	.LBE4748:
 5634              	.LBE4754:
 5635              	.LBE4757:
 5636              	.LBE4883:
 5637              	.LBE4890:
 5638              		.loc 1 412 0
 5639 1cb0 409EFE38 		bne+ 7,.L587
 5640              	.LVL472:
 5641              	.L325:
 5642              	.LBB4891:
 5643              	.LBB4892:
 5644              	.LBB4893:
 5645              	.LBB4894:
 5646              	.LBB4895:
 5647              	.LBB4896:
 5648              		.loc 5 288 0
 5649 1cb4 81210030 		lwz 9,48(1)
 5650              	.LBE4896:
 5651              	.LBE4895:
 5652              	.LBE4894:
 5653              	.LBB4897:
 5654              	.LBB4898:
 5655              		.loc 5 235 0
 5656 1cb8 3E800000 		lis 20,_ZNSs4_Rep20_S_empty_rep_storageE@ha
 5657 1cbc 3A940000 		la 20,_ZNSs4_Rep20_S_empty_rep_storageE@l(20)
 5658              	.LBE4898:
 5659              	.LBE4897:
 5660              		.loc 5 534 0
 5661 1cc0 3869FFF4 		addi 3,9,-12
 5662              	.LVL473:
 5663              	.LBB4907:
 5664              	.LBB4905:
 5665              		.loc 5 235 0
 5666 1cc4 7F83A000 		cmpw 7,3,20
 5667 1cc8 409E0684 		bne- 7,.L588
 5668              	.LVL474:
 5669              	.L463:
 5670              	.LBE4905:
 5671              	.LBE4907:
 5672              	.LBE4893:
 5673              	.LBE4892:
 5674              	.LBE4891:
 5675              	.LBB4911:
 5676              	.LBB4912:
 5677              	.LBB4913:
 5678              	.LBB4914:
 5679              	.LBB4915:
 5680              	.LBB4916:
 5681              	.LBB4917:
 5682              		.file 12 "d:\\devkitpro\\devkitppc\\bin\\../lib/gcc/powerpc-eabi/4.6.3/../../../../powerpc-eabi/in
 5683              		.loc 12 103 0
 5684 1ccc 7F9DB000 		cmpw 7,29,22
 5685 1cd0 419E0024 		beq- 7,.L464
 5686 1cd4 7FBFEB78 		mr 31,29
 5687              	.LVL475:
 5688              	.L471:
 5689              	.LBB4918:
 5690              	.LBB4919:
 5691              	.LBB4920:
 5692              	.LBB4921:
 5693              	.LBB4922:
 5694              	.LBB4923:
 5695              	.LBB4924:
 5696              		.loc 5 288 0
 5697 1cd8 813F0000 		lwz 9,0(31)
 5698              	.LBE4924:
 5699              	.LBE4923:
 5700              	.LBE4922:
 5701              		.loc 5 534 0
 5702 1cdc 3869FFF4 		addi 3,9,-12
 5703              	.LVL476:
 5704              	.LBB4925:
 5705              	.LBB4926:
 5706              		.loc 5 235 0
 5707 1ce0 7F83A000 		cmpw 7,3,20
 5708 1ce4 409E06D0 		bne- 7,.L589
 5709              	.LVL477:
 5710              	.L470:
 5711              		.loc 5 244 0
 5712 1ce8 3BFF0004 		addi 31,31,4
 5713              	.LBE4926:
 5714              	.LBE4925:
 5715              	.LBE4921:
 5716              	.LBE4920:
 5717              	.LBE4919:
 5718              	.LBE4918:
 5719              		.loc 12 103 0
 5720 1cec 7F96F800 		cmpw 7,22,31
 5721 1cf0 409EFFE8 		bne+ 7,.L471
 5722              	.LVL478:
 5723              	.L464:
 5724              	.LBE4917:
 5725              	.LBE4916:
 5726              	.LBE4915:
 5727              	.LBE4914:
 5728              	.LBE4913:
 5729              	.LBB4943:
 5730              	.LBB4944:
 5731              	.LBB4945:
 5732              	.LBB4946:
 5733              		.loc 2 155 0
 5734 1cf4 2F9D0000 		cmpwi 7,29,0
 5735 1cf8 419E000C 		beq- 7,.L475
 5736              	.LVL479:
 5737              	.LBB4947:
 5738              	.LBB4948:
 5739              		.loc 4 98 0
 5740 1cfc 7FA3EB78 		mr 3,29
 5741 1d00 48000001 		bl _ZdlPv
 5742              	.LVL480:
 5743              	.L475:
 5744              	.LBE4948:
 5745              	.LBE4947:
 5746              	.LBE4946:
 5747              	.LBE4945:
 5748              	.LBE4944:
 5749              	.LBE4943:
 5750              	.LBE4912:
 5751              	.LBE4911:
 5752              	.LBE5008:
 5753              		.loc 1 430 0
 5754 1d04 8001010C 		lwz 0,268(1)
 5755 1d08 7F23CB78 		mr 3,25
 5756 1d0c 818100BC 		lwz 12,188(1)
 5757 1d10 7C0803A6 		mtlr 0
 5758 1d14 81C100C0 		lwz 14,192(1)
 5759 1d18 81E100C4 		lwz 15,196(1)
 5760              	.LVL481:
 5761 1d1c 7D808120 		mtcrf 8,12
 5762 1d20 820100C8 		lwz 16,200(1)
 5763 1d24 822100CC 		lwz 17,204(1)
 5764 1d28 824100D0 		lwz 18,208(1)
 5765 1d2c 826100D4 		lwz 19,212(1)
 5766              	.LVL482:
 5767 1d30 828100D8 		lwz 20,216(1)
 5768 1d34 82A100DC 		lwz 21,220(1)
 5769 1d38 82C100E0 		lwz 22,224(1)
 5770 1d3c 82E100E4 		lwz 23,228(1)
 5771 1d40 830100E8 		lwz 24,232(1)
 5772              	.LVL483:
 5773 1d44 832100EC 		lwz 25,236(1)
 5774 1d48 834100F0 		lwz 26,240(1)
 5775 1d4c 836100F4 		lwz 27,244(1)
 5776              	.LVL484:
 5777 1d50 838100F8 		lwz 28,248(1)
 5778 1d54 83A100FC 		lwz 29,252(1)
 5779 1d58 83C10100 		lwz 30,256(1)
 5780 1d5c 83E10104 		lwz 31,260(1)
 5781 1d60 38210108 		addi 1,1,264
 5782              		.cfi_remember_state
 5783              	.LCFI51:
 5784              		.cfi_def_cfa_offset 0
 5785              		.cfi_restore 70
 5786              		.cfi_restore 31
 5787              		.cfi_restore 30
 5788              		.cfi_restore 29
 5789              		.cfi_restore 28
 5790              		.cfi_restore 27
 5791              		.cfi_restore 26
 5792              		.cfi_restore 25
 5793              		.cfi_restore 24
 5794              		.cfi_restore 23
 5795              		.cfi_restore 22
 5796              		.cfi_restore 21
 5797              		.cfi_restore 20
 5798              		.cfi_restore 19
 5799              		.cfi_restore 18
 5800              		.cfi_restore 17
 5801              		.cfi_restore 16
 5802              		.cfi_restore 15
 5803              		.cfi_restore 14
 5804 1d64 4E800020 		blr
 5805              	.LVL485:
 5806              	.L578:
 5807              	.LCFI52:
 5808              		.cfi_restore_state
 5809              	.LBB5009:
 5810              	.LBB4951:
 5811              	.LBB4725:
 5812              	.LBB4611:
 5813              	.LBB4569:
 5814              	.LBB4532:
 5815              	.LBB4526:
 5816              		.loc 1 307 0
 5817 1d68 7F90A000 		cmpw 7,16,20
 5818 1d6c 40BEFCC0 		bne- 7,.L407
 5819 1d70 7F91A840 		cmplw 7,17,21
 5820 1d74 419DFC80 		bgt+ 7,.L551
 5821 1d78 4BFFFCB4 		b .L407
 5822              	.LVL486:
 5823              	.L580:
 5824              		.loc 1 333 0
 5825 1d7c 7F91A800 		cmpw 7,17,21
 5826 1d80 409EFCD4 		bne+ 7,.L537
 5827              	.LVL487:
 5828              	.L401:
 5829              	.LBE4526:
 5830              	.LBE4532:
 5831              	.LBE4569:
 5832              	.LBB4570:
 5833              	.LBB4571:
 5834              	.LBB4572:
 5835              	.LBB4573:
 5836              	.LBB4574:
 5837              	.LBB4575:
 5838              		.loc 5 288 0
 5839 1d84 81210024 		lwz 9,36(1)
 5840              	.LBE4575:
 5841              	.LBE4574:
 5842              	.LBE4573:
 5843              	.LBB4576:
 5844              	.LBB4577:
 5845              		.loc 5 235 0
 5846 1d88 3E800000 		lis 20,_ZNSs4_Rep20_S_empty_rep_storageE@ha
 5847 1d8c 3A940000 		la 20,_ZNSs4_Rep20_S_empty_rep_storageE@l(20)
 5848              	.LBE4577:
 5849              	.LBE4576:
 5850              		.loc 5 534 0
 5851 1d90 3869FFF4 		addi 3,9,-12
 5852              	.LVL488:
 5853              	.LBB4586:
 5854              	.LBB4584:
 5855              		.loc 5 235 0
 5856 1d94 7F83A000 		cmpw 7,3,20
 5857 1d98 409E0444 		bne- 7,.L590
 5858              	.LVL489:
 5859              	.L419:
 5860              	.LBE4584:
 5861              	.LBE4586:
 5862              	.LBE4572:
 5863              	.LBE4571:
 5864              	.LBE4570:
 5865              	.LBB4590:
 5866              	.LBB4591:
 5867              	.LBB4592:
 5868              	.LBB4593:
 5869              	.LBB4594:
 5870              		.loc 5 288 0
 5871 1d9c 81210028 		lwz 9,40(1)
 5872              	.LBE4594:
 5873              	.LBE4593:
 5874              	.LBE4592:
 5875              		.loc 5 534 0
 5876 1da0 3869FFF4 		addi 3,9,-12
 5877              	.LVL490:
 5878              	.LBB4595:
 5879              	.LBB4596:
 5880              		.loc 5 235 0
 5881 1da4 7F83A000 		cmpw 7,3,20
 5882 1da8 419EF84C 		beq+ 7,.L552
 5883              	.LVL491:
 5884              	.LBB4597:
 5885              	.LBB4598:
 5886              	.LBB4599:
 5887              		.loc 6 66 0
 5888 1dac 8169FFFC 		lwz 11,-4(9)
 5889              	.LVL492:
 5890              	.LBE4599:
 5891              	.LBE4598:
 5892              	.LBE4597:
 5893              		.loc 5 240 0
 5894 1db0 2F8B0000 		cmpwi 7,11,0
 5895              	.LBB4602:
 5896              	.LBB4601:
 5897              	.LBB4600:
 5898              		.loc 6 67 0
 5899 1db4 396BFFFF 		addi 11,11,-1
 5900 1db8 9169FFFC 		stw 11,-4(9)
 5901              	.LBE4600:
 5902              	.LBE4601:
 5903              	.LBE4602:
 5904              		.loc 5 240 0
 5905 1dbc 419DF838 		bgt+ 7,.L552
 5906              		.loc 5 244 0
 5907 1dc0 38810018 		addi 4,1,24
 5908 1dc4 48000001 		bl _ZNSs4_Rep10_M_destroyERKSaIcE
 5909              	.LVL493:
 5910 1dc8 4BFFF82C 		b .L552
 5911              	.LVL494:
 5912              	.L569:
 5913              	.LBE4596:
 5914              	.LBE4595:
 5915              	.LBE4591:
 5916              	.LBE4590:
 5917              	.LBE4611:
 5918              	.LBB4612:
 5919              	.LBB4613:
 5920              		.loc 9 69 0
 5921 1dcc 3C003FFF 		lis 0,0x3fff
 5922              	.LBE4613:
 5923              	.LBE4612:
 5924              		.loc 1 387 0
 5925 1dd0 3B3A0064 		addi 25,26,100
 5926              	.LVL495:
 5927              	.LBB4710:
 5928              	.LBB4704:
 5929              		.loc 9 69 0
 5930 1dd4 6000FFFF 		ori 0,0,65535
 5931 1dd8 7F990040 		cmplw 7,25,0
 5932 1ddc 419D0420 		bgt- 7,.L591
 5933              	.LBB4614:
 5934              		.loc 9 71 0
 5935 1de0 7F99D040 		cmplw 7,25,26
 5936 1de4 40BDF8C8 		ble- 7,.L332
 5937              	.LVL496:
 5938              	.LBB4615:
 5939              	.LBB4616:
 5940              	.LBB4617:
 5941              	.LBB4618:
 5942              	.LBB4619:
 5943              		.loc 2 150 0
 5944 1de8 2F990000 		cmpwi 7,25,0
 5945 1dec 419E0104 		beq- 7,.L504
 5946              	.LVL497:
 5947              	.LBB4620:
 5948              	.LBB4621:
 5949              		.loc 4 92 0
 5950 1df0 5723103A 		slwi 3,25,2
 5951              	.LEHB39:
 5952 1df4 48000001 		bl _Znwj
 5953              	.LEHE39:
 5954 1df8 7C7C1B78 		mr 28,3
 5955              	.LVL498:
 5956              	.L334:
 5957              	.LBE4621:
 5958              	.LBE4620:
 5959              	.LBE4619:
 5960              	.LBE4618:
 5961              	.LBB4623:
 5962              	.LBB4624:
 5963              	.LBB4625:
 5964              	.LBB4626:
 5965              	.LBB4627:
 5966              		.file 13 "d:\\devkitpro\\devkitppc\\bin\\../lib/gcc/powerpc-eabi/4.6.3/../../../../powerpc-eabi/in
 5967              		.loc 13 76 0
 5968 1dfc 7F96E800 		cmpw 7,22,29
 5969 1e00 419E0058 		beq- 7,.L335
 5970 1e04 7F9FE378 		mr 31,28
 5971              	.LVL499:
 5972 1e08 7FBEEB78 		mr 30,29
 5973              	.LVL500:
 5974              	.L337:
 5975              	.LBB4628:
 5976              	.LBB4629:
 5977              		.loc 12 84 0
 5978 1e0c 2F9F0000 		cmpwi 7,31,0
 5979 1e10 419E0010 		beq- 7,.L336
 5980 1e14 7FE3FB78 		mr 3,31
 5981 1e18 7FC4F378 		mr 4,30
 5982              	.LEHB40:
 5983 1e1c 48000001 		bl _ZNSsC1ERKSs
 5984              	.LEHE40:
 5985              	.L336:
 5986              	.LBE4629:
 5987              	.LBE4628:
 5988              		.loc 13 76 0
 5989 1e20 3BDE0004 		addi 30,30,4
 5990              	.LVL501:
 5991 1e24 3BFF0004 		addi 31,31,4
 5992              	.LVL502:
 5993 1e28 7F96F000 		cmpw 7,22,30
 5994 1e2c 409EFFE0 		bne+ 7,.L337
 5995 1e30 3E800000 		lis 20,_ZNSs4_Rep20_S_empty_rep_storageE@ha
 5996              	.LBE4627:
 5997              	.LBE4626:
 5998              	.LBE4625:
 5999              	.LBE4624:
 6000              	.LBE4623:
 6001              		.loc 2 1062 0
 6002 1e34 7FBFEB78 		mr 31,29
 6003              	.LVL503:
 6004 1e38 3A940000 		la 20,_ZNSs4_Rep20_S_empty_rep_storageE@l(20)
 6005              	.L352:
 6006              	.LBE4617:
 6007              	.LBE4616:
 6008              	.LBB4655:
 6009              	.LBB4656:
 6010              	.LBB4657:
 6011              	.LBB4658:
 6012              	.LBB4659:
 6013              	.LBB4660:
 6014              	.LBB4661:
 6015              	.LBB4662:
 6016              	.LBB4663:
 6017              	.LBB4664:
 6018              	.LBB4665:
 6019              	.LBB4666:
 6020              		.loc 5 288 0
 6021 1e3c 813F0000 		lwz 9,0(31)
 6022              	.LBE4666:
 6023              	.LBE4665:
 6024              	.LBE4664:
 6025              		.loc 5 534 0
 6026 1e40 3869FFF4 		addi 3,9,-12
 6027              	.LVL504:
 6028              	.LBB4667:
 6029              	.LBB4668:
 6030              		.loc 5 235 0
 6031 1e44 7F83A000 		cmpw 7,3,20
 6032 1e48 409E0358 		bne- 7,.L592
 6033              	.LVL505:
 6034              	.L351:
 6035              		.loc 5 244 0
 6036 1e4c 3BFF0004 		addi 31,31,4
 6037              	.LBE4668:
 6038              	.LBE4667:
 6039              	.LBE4663:
 6040              	.LBE4662:
 6041              	.LBE4661:
 6042              	.LBE4660:
 6043              		.loc 12 103 0
 6044 1e50 7F96F800 		cmpw 7,22,31
 6045 1e54 409EFFE8 		bne+ 7,.L352
 6046              	.LVL506:
 6047              	.L335:
 6048              	.LBE4659:
 6049              	.LBE4658:
 6050              	.LBE4657:
 6051              	.LBE4656:
 6052              	.LBE4655:
 6053              	.LBB4685:
 6054              	.LBB4686:
 6055              		.loc 2 155 0
 6056 1e58 2F9D0000 		cmpwi 7,29,0
 6057 1e5c 419E000C 		beq- 7,.L353
 6058              	.LVL507:
 6059              	.LBB4687:
 6060              	.LBB4688:
 6061              		.loc 4 98 0
 6062 1e60 7FA3EB78 		mr 3,29
 6063 1e64 48000001 		bl _ZdlPv
 6064              	.LVL508:
 6065              	.L353:
 6066              	.LBE4688:
 6067              	.LBE4687:
 6068              	.LBE4686:
 6069              	.LBE4685:
 6070              		.loc 9 84 0
 6071 1e68 5739103A 		slwi 25,25,2
 6072              	.LVL509:
 6073              		.loc 9 83 0
 6074 1e6c 575A103A 		slwi 26,26,2
 6075              		.loc 9 84 0
 6076 1e70 7F3CCA14 		add 25,28,25
 6077              		.loc 9 83 0
 6078 1e74 7EDCD214 		add 22,28,26
 6079              	.LVL510:
 6080              		.loc 9 84 0
 6081 1e78 932100AC 		stw 25,172(1)
 6082 1e7c 7F9DE378 		mr 29,28
 6083              	.LVL511:
 6084 1e80 4BFFF82C 		b .L332
 6085              	.LVL512:
 6086              	.L574:
 6087              	.LBE4615:
 6088              	.LBE4614:
 6089              	.LBE4704:
 6090              	.LBE4710:
 6091              	.LBB4711:
 6092              	.LBB4603:
 6093              	.LBB4533:
 6094              	.LBB4527:
 6095              	.LBB4523:
 6096              	.LBB4521:
 6097              		.loc 1 251 0
 6098 1e84 80730000 		lwz 3,0(19)
 6099 1e88 38000008 		li 0,8
 6100 1e8c 7FE4FB78 		mr 4,31
 6101 1e90 38A10034 		addi 5,1,52
 6102 1e94 38C00000 		li 6,0
 6103 1e98 38E00000 		li 7,0
 6104 1e9c 39000000 		li 8,0
 6105 1ea0 39200000 		li 9,0
 6106 1ea4 39400000 		li 10,0
 6107 1ea8 90010008 		stw 0,8(1)
 6108 1eac 91E1000C 		stw 15,12(1)
 6109              	.LEHB41:
 6110 1eb0 48000001 		bl zipOpenNewFileInZip
 6111              	.LVL513:
 6112              		.loc 1 252 0
 6113 1eb4 2F830000 		cmpwi 7,3,0
 6114 1eb8 409E0308 		bne- 7,.L593
 6115              		.loc 1 255 0
 6116 1ebc 80730000 		lwz 3,0(19)
 6117              	.LVL514:
 6118 1ec0 48000001 		bl zipCloseFileInZip
 6119              	.LEHE41:
 6120 1ec4 4BFFFEC0 		b .L401
 6121              	.LVL515:
 6122              	.L567:
 6123              	.LBE4521:
 6124              	.LBE4523:
 6125              	.LBE4527:
 6126              	.LBE4533:
 6127              	.LBE4603:
 6128              	.LBE4711:
 6129              	.LBE4725:
 6130              	.LBE4951:
 6131              		.loc 1 364 0 discriminator 1
 6132 1ec8 7EE3BB78 		mr 3,23
 6133 1ecc 48000001 		bl _ZdaPv
 6134              	.L326:
 6135              		.loc 1 365 0
 6136 1ed0 7E439378 		mr 3,18
 6137 1ed4 48000001 		bl _ZdlPv
 6138              		.loc 1 366 0
 6139 1ed8 7DC37378 		mr 3,14
 6140              	.LEHB42:
 6141 1edc 48000001 		bl closedir
 6142              	.LEHE42:
 6143              		.loc 2 83 0
 6144 1ee0 3AC00000 		li 22,0
 6145 1ee4 3BA00000 		li 29,0
 6146              		.loc 1 367 0
 6147 1ee8 3B20FFFE 		li 25,-2
 6148 1eec 4BFFFDC8 		b .L325
 6149              	.LVL516:
 6150              	.L504:
 6151              	.LBB4952:
 6152              	.LBB4726:
 6153              	.LBB4712:
 6154              	.LBB4705:
 6155              	.LBB4699:
 6156              	.LBB4694:
 6157              	.LBB4689:
 6158              	.LBB4651:
 6159              	.LBB4644:
 6160              	.LBB4622:
 6161              		.loc 2 150 0
 6162 1ef0 3B800000 		li 28,0
 6163 1ef4 4BFFFF08 		b .L334
 6164              	.LVL517:
 6165              	.L566:
 6166              	.LBE4622:
 6167              	.LBE4644:
 6168              	.LBE4651:
 6169              	.LBE4689:
 6170              	.LBE4694:
 6171              	.LBE4699:
 6172              	.LBE4705:
 6173              	.LBE4712:
 6174              	.LBE4726:
 6175              	.LBE4952:
 6176              		.loc 2 83 0
 6177 1ef8 3AC00000 		li 22,0
 6178 1efc 3BA00000 		li 29,0
 6179              		.loc 1 358 0
 6180 1f00 3B20FFFF 		li 25,-1
 6181 1f04 4BFFFDB0 		b .L325
 6182              	.LVL518:
 6183              	.L573:
 6184              	.LBB4953:
 6185              	.LBB4727:
 6186              	.LBB4713:
 6187              	.LBB4604:
 6188              	.LBB4534:
 6189              	.LBB4528:
 6190              		.loc 1 243 0
 6191 1f08 81210024 		lwz 9,36(1)
 6192              		.loc 1 244 0
 6193 1f0c 3B20FFFD 		li 25,-3
 6194 1f10 4BFFFB4C 		b .L396
 6195              	.LVL519:
 6196              	.L354:
 6197              	.LBE4528:
 6198              	.LBE4534:
 6199              	.LBE4604:
 6200              	.LBE4713:
 6201              	.LBB4714:
 6202              	.LBB4418:
 6203              	.LBB4333:
 6204              	.LBB4334:
 6205              	.LBB4335:
 6206              	.LBB4336:
 6207              	.LBB4337:
 6208              	.LBB4338:
 6209              		.loc 2 571 0
 6210 1f14 7FDD0050 		subf 30,29,0
 6211              	.LBE4338:
 6212              	.LBE4337:
 6213              	.LBB4339:
 6214              	.LBB4340:
 6215              		.loc 2 1244 0
 6216 1f18 38000001 		li 0,1
 6217              		.loc 10 215 0
 6218 1f1c 7FDE1671 		srawi. 30,30,2
 6219 1f20 41820024 		beq- 0,.L357
 6220              	.LBE4340:
 6221              	.LBE4339:
 6222              		.loc 2 1244 0
 6223 1f24 57C0083C 		slwi 0,30,1
 6224              	.LVL520:
 6225              		.loc 2 1245 0
 6226 1f28 3F403FFF 		lis 26,0x3fff
 6227 1f2c 7F9E0040 		cmplw 7,30,0
 6228 1f30 3860FFFC 		li 3,-4
 6229 1f34 635AFFFF 		ori 26,26,65535
 6230 1f38 419D0014 		bgt- 7,.L358
 6231 1f3c 7F80D040 		cmplw 7,0,26
 6232 1f40 419D000C 		bgt- 7,.L358
 6233              	.LVL521:
 6234              	.L357:
 6235 1f44 5403103A 		slwi 3,0,2
 6236 1f48 7C1A0378 		mr 26,0
 6237              	.LVL522:
 6238              	.L358:
 6239              	.LEHB43:
 6240              	.LBE4336:
 6241              	.LBE4335:
 6242              	.LBB4341:
 6243              	.LBB4342:
 6244              	.LBB4343:
 6245              		.loc 4 92 0
 6246 1f4c 48000001 		bl _Znwj
 6247              	.LEHE43:
 6248              	.LBE4343:
 6249              	.LBE4342:
 6250              	.LBE4341:
 6251              		.loc 9 335 0
 6252 1f50 57DE103A 		slwi 30,30,2
 6253              	.LBB4348:
 6254              	.LBB4346:
 6255              	.LBB4344:
 6256              		.loc 4 92 0
 6257 1f54 7C7F1B78 		mr 31,3
 6258              	.LVL523:
 6259              	.LBE4344:
 6260              	.LBE4346:
 6261              	.LBE4348:
 6262              	.LBB4349:
 6263              	.LBB4350:
 6264              		.loc 4 108 0
 6265 1f58 7F23F215 		add. 25,3,30
 6266 1f5c 41820010 		beq- 0,.L359
 6267 1f60 7F23CB78 		mr 3,25
 6268              	.LVL524:
 6269 1f64 3881002C 		addi 4,1,44
 6270              	.LVL525:
 6271              	.LEHB44:
 6272 1f68 48000001 		bl _ZNSsC1ERKSs
 6273              	.LEHE44:
 6274              	.LVL526:
 6275              	.L359:
 6276              	.LBE4350:
 6277              	.LBE4349:
 6278              	.LBB4351:
 6279              	.LBB4352:
 6280              	.LBB4353:
 6281              	.LBB4354:
 6282              	.LBB4355:
 6283              	.LBB4356:
 6284              		.loc 13 76 0
 6285 1f6c 814100AC 		lwz 10,172(1)
 6286 1f70 7F9D5000 		cmpw 7,29,10
 6287 1f74 419E0088 		beq- 7,.L360
 6288 1f78 7FBCEB78 		mr 28,29
 6289 1f7c 7FBEEB78 		mr 30,29
 6290              	.LVL527:
 6291 1f80 7FF6FB78 		mr 22,31
 6292              	.LVL528:
 6293              	.L362:
 6294              	.LBB4357:
 6295              	.LBB4358:
 6296              		.loc 12 84 0
 6297 1f84 2F960000 		cmpwi 7,22,0
 6298 1f88 419E0010 		beq- 7,.L361
 6299              	.LVL529:
 6300 1f8c 7EC3B378 		mr 3,22
 6301 1f90 7FC4F378 		mr 4,30
 6302              	.LEHB45:
 6303 1f94 48000001 		bl _ZNSsC1ERKSs
 6304              	.LEHE45:
 6305              	.LVL530:
 6306              	.L361:
 6307              	.LBE4358:
 6308              	.LBE4357:
 6309              		.loc 13 76 0
 6310 1f98 800100AC 		lwz 0,172(1)
 6311 1f9c 3BDE0004 		addi 30,30,4
 6312              	.LVL531:
 6313 1fa0 3AD60004 		addi 22,22,4
 6314              	.LVL532:
 6315 1fa4 7F80F000 		cmpw 7,0,30
 6316 1fa8 409EFFDC 		bne+ 7,.L362
 6317              	.LVL533:
 6318 1fac 3E800000 		lis 20,_ZNSs4_Rep20_S_empty_rep_storageE@ha
 6319              	.LBE4356:
 6320              	.LBE4355:
 6321              	.LBE4354:
 6322              	.LBE4353:
 6323              	.LBE4352:
 6324              	.LBE4351:
 6325              		.loc 9 347 0
 6326 1fb0 3AD60004 		addi 22,22,4
 6327              	.LVL534:
 6328 1fb4 3A940000 		la 20,_ZNSs4_Rep20_S_empty_rep_storageE@l(20)
 6329 1fb8 48000014 		b .L363
 6330              	.LVL535:
 6331              	.L374:
 6332              	.LBB4375:
 6333              	.LBB4376:
 6334              	.LBB4377:
 6335              	.LBB4378:
 6336              	.LBB4379:
 6337              		.loc 12 103 0
 6338 1fbc 812100AC 		lwz 9,172(1)
 6339              	.LBB4380:
 6340              	.LBB4381:
 6341              	.LBB4382:
 6342              	.LBB4383:
 6343              	.LBB4384:
 6344              	.LBB4385:
 6345              		.loc 5 244 0
 6346 1fc0 3B9C0004 		addi 28,28,4
 6347              	.LBE4385:
 6348              	.LBE4384:
 6349              	.LBE4383:
 6350              	.LBE4382:
 6351              	.LBE4381:
 6352              	.LBE4380:
 6353              		.loc 12 103 0
 6354 1fc4 7F89E000 		cmpw 7,9,28
 6355 1fc8 419E0040 		beq- 7,.L497
 6356              	.LVL536:
 6357              	.L363:
 6358              	.LBB4400:
 6359              	.LBB4399:
 6360              	.LBB4398:
 6361              	.LBB4397:
 6362              	.LBB4393:
 6363              	.LBB4394:
 6364              	.LBB4395:
 6365              		.loc 5 288 0
 6366 1fcc 813C0000 		lwz 9,0(28)
 6367              	.LBE4395:
 6368              	.LBE4394:
 6369              	.LBE4393:
 6370              		.loc 5 534 0
 6371 1fd0 3869FFF4 		addi 3,9,-12
 6372              	.LVL537:
 6373              	.LBB4396:
 6374              	.LBB4392:
 6375              		.loc 5 235 0
 6376 1fd4 7F83A000 		cmpw 7,3,20
 6377 1fd8 419EFFE4 		beq+ 7,.L374
 6378              	.LVL538:
 6379              	.LBB4386:
 6380              	.LBB4387:
 6381              	.LBB4388:
 6382              		.loc 6 66 0
 6383 1fdc 8169FFFC 		lwz 11,-4(9)
 6384              	.LVL539:
 6385              	.LBE4388:
 6386              	.LBE4387:
 6387              	.LBE4386:
 6388              		.loc 5 240 0
 6389 1fe0 2F8B0000 		cmpwi 7,11,0
 6390              	.LBB4391:
 6391              	.LBB4390:
 6392              	.LBB4389:
 6393              		.loc 6 67 0
 6394 1fe4 396BFFFF 		addi 11,11,-1
 6395 1fe8 9169FFFC 		stw 11,-4(9)
 6396              	.LBE4389:
 6397              	.LBE4390:
 6398              	.LBE4391:
 6399              		.loc 5 240 0
 6400 1fec 419DFFD0 		bgt+ 7,.L374
 6401              		.loc 5 244 0
 6402 1ff0 3881001B 		addi 4,1,27
 6403 1ff4 48000001 		bl _ZNSs4_Rep10_M_destroyERKSaIcE
 6404              	.LVL540:
 6405 1ff8 4BFFFFC4 		b .L374
 6406              	.LVL541:
 6407              	.L360:
 6408 1ffc 3E800000 		lis 20,_ZNSs4_Rep20_S_empty_rep_storageE@ha
 6409              	.LBE4392:
 6410              	.LBE4396:
 6411              	.LBE4397:
 6412              	.LBE4398:
 6413              	.LBE4399:
 6414              	.LBE4400:
 6415              	.LBE4379:
 6416              	.LBE4378:
 6417              	.LBE4377:
 6418              	.LBE4376:
 6419              	.LBE4375:
 6420              		.loc 9 347 0
 6421 2000 3ADF0004 		addi 22,31,4
 6422              	.LVL542:
 6423 2004 3A940000 		la 20,_ZNSs4_Rep20_S_empty_rep_storageE@l(20)
 6424              	.LVL543:
 6425              	.L497:
 6426              	.LBB4401:
 6427              	.LBB4402:
 6428              		.loc 2 155 0
 6429 2008 2F9D0000 		cmpwi 7,29,0
 6430 200c 419E000C 		beq- 7,.L375
 6431              	.LVL544:
 6432              	.LBB4403:
 6433              	.LBB4404:
 6434              		.loc 4 98 0
 6435 2010 7FA3EB78 		mr 3,29
 6436 2014 48000001 		bl _ZdlPv
 6437              	.LVL545:
 6438              	.L375:
 6439              	.LBE4404:
 6440              	.LBE4403:
 6441              	.LBE4402:
 6442              	.LBE4401:
 6443              		.loc 9 371 0
 6444 2018 575A103A 		slwi 26,26,2
 6445              	.LVL546:
 6446 201c 7FFDFB78 		mr 29,31
 6447              	.LVL547:
 6448 2020 7F5FD214 		add 26,31,26
 6449 2024 934100AC 		stw 26,172(1)
 6450 2028 4BFFF6C0 		b .L385
 6451              	.LVL548:
 6452              	.L528:
 6453              	.LBB4405:
 6454              	.LBB4347:
 6455              	.LBB4345:
 6456              		.loc 4 92 0
 6457 202c 82C100AC 		lwz 22,172(1)
 6458 2030 7C7F1B78 		mr 31,3
 6459              	.LVL549:
 6460              	.L377:
 6461              	.LBE4345:
 6462              	.LBE4347:
 6463              	.LBE4405:
 6464              	.LBE4334:
 6465              	.LBE4333:
 6466              	.LBE4418:
 6467              	.LBE4714:
 6468              		.loc 1 388 0
 6469 2034 3861002C 		addi 3,1,44
 6470              	.LVL550:
 6471 2038 48000001 		bl _ZNSsD1Ev
 6472              	.LVL551:
 6473 203c 7FE3FB78 		mr 3,31
 6474              	.LVL552:
 6475              	.L563:
 6476 2040 7C7E1B78 		mr 30,3
 6477              	.LVL553:
 6478              	.L309:
 6479              	.LBE4727:
 6480              	.LBE4953:
 6481              		.loc 1 429 0
 6482 2044 38610030 		addi 3,1,48
 6483              	.LVL554:
 6484 2048 48000001 		bl _ZNSsD1Ev
 6485              	.LVL555:
 6486              	.LBB4954:
 6487              	.LBB4955:
 6488              	.LBB4956:
 6489              	.LBB4957:
 6490              	.LBB4958:
 6491              	.LBB4959:
 6492              	.LBB4960:
 6493              		.loc 12 103 0
 6494 204c 7F9DB000 		cmpw 7,29,22
 6495              	.LVL556:
 6496 2050 419E002C 		beq- 7,.L306
 6497 2054 3E800000 		lis 20,_ZNSs4_Rep20_S_empty_rep_storageE@ha
 6498 2058 7FBFEB78 		mr 31,29
 6499 205c 3A940000 		la 20,_ZNSs4_Rep20_S_empty_rep_storageE@l(20)
 6500              	.LVL557:
 6501              	.L490:
 6502              	.LBB4961:
 6503              	.LBB4962:
 6504              	.LBB4963:
 6505              	.LBB4964:
 6506              	.LBB4965:
 6507              	.LBB4966:
 6508              	.LBB4967:
 6509              		.loc 5 288 0
 6510 2060 813F0000 		lwz 9,0(31)
 6511              	.LBE4967:
 6512              	.LBE4966:
 6513              	.LBE4965:
 6514              		.loc 5 534 0
 6515 2064 3869FFF4 		addi 3,9,-12
 6516              	.LVL558:
 6517              	.LBB4968:
 6518              	.LBB4969:
 6519              		.loc 5 235 0
 6520 2068 7F83A000 		cmpw 7,3,20
 6521 206c 409E0050 		bne- 7,.L594
 6522              	.LVL559:
 6523              	.L489:
 6524              		.loc 5 244 0
 6525 2070 3BFF0004 		addi 31,31,4
 6526              	.LBE4969:
 6527              	.LBE4968:
 6528              	.LBE4964:
 6529              	.LBE4963:
 6530              	.LBE4962:
 6531              	.LBE4961:
 6532              		.loc 12 103 0
 6533 2074 7F96F800 		cmpw 7,22,31
 6534 2078 409EFFE8 		bne+ 7,.L490
 6535              	.LVL560:
 6536              	.L306:
 6537              	.LBE4960:
 6538              	.LBE4959:
 6539              	.LBE4958:
 6540              	.LBE4957:
 6541              	.LBE4956:
 6542              	.LBB4986:
 6543              	.LBB4987:
 6544              	.LBB4988:
 6545              	.LBB4989:
 6546              		.loc 2 155 0
 6547 207c 2F9D0000 		cmpwi 7,29,0
 6548 2080 419E000C 		beq- 7,.L495
 6549              	.LVL561:
 6550              	.LBB4990:
 6551              	.LBB4991:
 6552              		.loc 4 98 0
 6553 2084 7FA3EB78 		mr 3,29
 6554 2088 48000001 		bl _ZdlPv
 6555              	.LVL562:
 6556              	.L495:
 6557 208c 7FC3F378 		mr 3,30
 6558              	.LEHB46:
 6559 2090 48000001 		bl _Unwind_Resume
 6560              	.LEHE46:
 6561              	.LVL563:
 6562              	.L525:
 6563              	.LBE4991:
 6564              	.LBE4990:
 6565              	.LBE4989:
 6566              	.LBE4988:
 6567              	.LBE4987:
 6568              	.LBE4986:
 6569              	.LBE4955:
 6570              	.LBE4954:
 6571              	.LBB4994:
 6572              	.LBB4728:
 6573              	.LBB4715:
 6574              	.LBB4419:
 6575              	.LBB4416:
 6576              	.LBB4414:
 6577              	.LBB4406:
 6578              	.LBB4373:
 6579              	.LBB4371:
 6580              	.LBB4369:
 6581              	.LBB4367:
 6582              	.LBB4365:
 6583              		.loc 13 80 0
 6584 2094 48000001 		bl __cxa_begin_catch
 6585              	.LVL564:
 6586              	.LBB4359:
 6587              	.LBB4360:
 6588              	.LBB4361:
 6589              	.LBB4362:
 6590              		.loc 12 103 0
 6591 2098 7F96F800 		cmpw 7,22,31
 6592 209c 419E001C 		beq- 7,.L367
 6593 20a0 7FFEFB78 		mr 30,31
 6594              	.LVL565:
 6595              	.L368:
 6596              	.LBB4363:
 6597              	.LBB4364:
 6598              		.loc 12 94 0
 6599 20a4 7FC3F378 		mr 3,30
 6600 20a8 3BDE0004 		addi 30,30,4
 6601              	.LVL566:
 6602 20ac 48000001 		bl _ZNSsD1Ev
 6603              	.LVL567:
 6604              	.LBE4364:
 6605              	.LBE4363:
 6606              		.loc 12 103 0
 6607 20b0 7F96F000 		cmpw 7,22,30
 6608 20b4 409EFFF0 		bne+ 7,.L368
 6609              	.LVL568:
 6610              	.L367:
 6611              	.LEHB47:
 6612              	.LBE4362:
 6613              	.LBE4361:
 6614              	.LBE4360:
 6615              	.LBE4359:
 6616              		.loc 13 83 0
 6617 20b8 48000001 		bl __cxa_rethrow
 6618              	.LEHE47:
 6619              	.LVL569:
 6620              	.L594:
 6621              	.LBE4365:
 6622              	.LBE4367:
 6623              	.LBE4369:
 6624              	.LBE4371:
 6625              	.LBE4373:
 6626              	.LBE4406:
 6627              	.LBE4414:
 6628              	.LBE4416:
 6629              	.LBE4419:
 6630              	.LBE4715:
 6631              	.LBE4728:
 6632              	.LBE4994:
 6633              	.LBB4995:
 6634              	.LBB4993:
 6635              	.LBB4992:
 6636              	.LBB4985:
 6637              	.LBB4984:
 6638              	.LBB4983:
 6639              	.LBB4982:
 6640              	.LBB4981:
 6641              	.LBB4980:
 6642              	.LBB4979:
 6643              	.LBB4978:
 6644              	.LBB4977:
 6645              	.LBB4976:
 6646              	.LBB4970:
 6647              	.LBB4971:
 6648              	.LBB4972:
 6649              		.loc 6 66 0
 6650 20bc 8169FFFC 		lwz 11,-4(9)
 6651              	.LVL570:
 6652              	.LBE4972:
 6653              	.LBE4971:
 6654              	.LBE4970:
 6655              		.loc 5 240 0
 6656 20c0 2F8B0000 		cmpwi 7,11,0
 6657              	.LBB4975:
 6658              	.LBB4974:
 6659              	.LBB4973:
 6660              		.loc 6 67 0
 6661 20c4 396BFFFF 		addi 11,11,-1
 6662 20c8 9169FFFC 		stw 11,-4(9)
 6663              	.LBE4973:
 6664              	.LBE4974:
 6665              	.LBE4975:
 6666              		.loc 5 240 0
 6667 20cc 419DFFA4 		bgt+ 7,.L489
 6668              		.loc 5 244 0
 6669 20d0 38810010 		addi 4,1,16
 6670 20d4 48000001 		bl _ZNSs4_Rep10_M_destroyERKSaIcE
 6671              	.LVL571:
 6672 20d8 4BFFFF98 		b .L489
 6673              	.LVL572:
 6674              	.L523:
 6675              	.LBE4976:
 6676              	.LBE4977:
 6677              	.LBE4978:
 6678              	.LBE4979:
 6679              	.LBE4980:
 6680              	.LBE4981:
 6681              	.LBE4982:
 6682              	.LBE4983:
 6683              	.LBE4984:
 6684              	.LBE4985:
 6685              	.LBE4992:
 6686              	.LBE4993:
 6687              	.LBE4995:
 6688              	.LBB4996:
 6689              	.LBB4729:
 6690              	.LBB4716:
 6691              	.LBB4420:
 6692              	.LBB4417:
 6693              	.LBB4415:
 6694              		.loc 9 355 0
 6695 20dc 48000001 		bl __cxa_begin_catch
 6696              		.loc 9 357 0
 6697 20e0 2F9F0000 		cmpwi 7,31,0
 6698 20e4 419E0024 		beq- 7,.L365
 6699              	.LVL573:
 6700              	.L379:
 6701              	.LBB4407:
 6702              	.LBB4408:
 6703              		.loc 2 155 0
 6704 20e8 419E000C 		beq- 7,.L380
 6705              	.LVL574:
 6706              	.LBB4409:
 6707              	.LBB4410:
 6708              		.loc 4 98 0
 6709 20ec 7FE3FB78 		mr 3,31
 6710 20f0 48000001 		bl _ZdlPv
 6711              	.LVL575:
 6712              	.L380:
 6713              	.LEHB48:
 6714              	.LBE4410:
 6715              	.LBE4409:
 6716              	.LBE4408:
 6717              	.LBE4407:
 6718              		.loc 9 362 0
 6719 20f4 48000001 		bl __cxa_rethrow
 6720              	.LEHE48:
 6721              	.LVL576:
 6722              	.L526:
 6723              	.LBB4411:
 6724              	.LBB4374:
 6725              	.LBB4372:
 6726              	.LBB4370:
 6727              	.LBB4368:
 6728              	.LBB4366:
 6729              		.loc 13 80 0
 6730 20f8 906100B0 		stw 3,176(1)
 6731 20fc 48000001 		bl __cxa_end_catch
 6732              	.LBE4366:
 6733              	.LBE4368:
 6734              	.LBE4370:
 6735              	.LBE4372:
 6736              	.LBE4374:
 6737              	.LBE4411:
 6738              		.loc 9 355 0
 6739 2100 806100B0 		lwz 3,176(1)
 6740 2104 48000001 		bl __cxa_begin_catch
 6741              	.LVL577:
 6742              	.L365:
 6743              	.LBB4412:
 6744              	.LBB4413:
 6745              		.loc 4 118 0
 6746 2108 7F23CB78 		mr 3,25
 6747 210c 48000001 		bl _ZNSsD1Ev
 6748 2110 2F9F0000 		cmpwi 7,31,0
 6749 2114 4BFFFFD4 		b .L379
 6750              	.LVL578:
 6751              	.L524:
 6752 2118 7C7F1B78 		mr 31,3
 6753              	.LVL579:
 6754              	.LBE4413:
 6755              	.LBE4412:
 6756              		.loc 9 355 0
 6757 211c 48000001 		bl __cxa_end_catch
 6758 2120 82C100AC 		lwz 22,172(1)
 6759 2124 4BFFFF10 		b .L377
 6760              	.LVL580:
 6761              	.L532:
 6762              	.L562:
 6763 2128 7C7E1B78 		mr 30,3
 6764              	.LBE4415:
 6765              	.LBE4417:
 6766              	.LBE4420:
 6767              	.LBE4716:
 6768              	.LBE4729:
 6769              	.LBE4996:
 6770              	.LBB4997:
 6771              	.LBB4273:
 6772              		.loc 2 83 0
 6773 212c 3AC00000 		li 22,0
 6774 2130 3BA00000 		li 29,0
 6775 2134 4BFFFF10 		b .L309
 6776              	.LVL581:
 6777              	.L518:
 6778 2138 7C7E1B78 		mr 30,3
 6779              	.L483:
 6780              	.LBE4273:
 6781              	.LBE4997:
 6782              	.LBB4998:
 6783              		.loc 1 427 0
 6784 213c 7F43D378 		mr 3,26
 6785 2140 48000001 		bl _ZNSsD1Ev
 6786 2144 4BFFFF00 		b .L309
 6787              	.LVL582:
 6788              	.L582:
 6789              	.LBB4884:
 6790              	.LBB4789:
 6791              	.LBB4788:
 6792              	.LBB4787:
 6793              	.LBB4780:
 6794              	.LBB4772:
 6795              	.LBB4773:
 6796              		.loc 5 199 0
 6797 2148 38000000 		li 0,0
 6798              	.LVL583:
 6799              	.LBE4773:
 6800              	.LBE4772:
 6801              		.loc 5 209 0
 6802 214c 93E9FFF4 		stw 31,-12(9)
 6803              	.LVL584:
 6804              	.LBB4775:
 6805              	.LBB4774:
 6806              		.loc 5 199 0
 6807 2150 9009FFFC 		stw 0,-4(9)
 6808              	.LBE4774:
 6809              	.LBE4775:
 6810              	.LBB4776:
 6811              	.LBB4777:
 6812              		.loc 8 245 0
 6813 2154 7C09F9AE 		stbx 0,9,31
 6814 2158 4BFFFA1C 		b .L435
 6815              	.LVL585:
 6816              	.L519:
 6817 215c 7C7E1B78 		mr 30,3
 6818              	.LBE4777:
 6819              	.LBE4776:
 6820              	.LBE4780:
 6821              	.LBE4787:
 6822              	.LBE4788:
 6823              	.LBE4789:
 6824              	.LBE4884:
 6825              		.loc 1 427 0
 6826 2160 7F83E378 		mr 3,28
 6827 2164 48000001 		bl _ZNSsD1Ev
 6828 2168 4BFFFFD4 		b .L483
 6829              	.LVL586:
 6830              	.L583:
 6831              	.LBB4885:
 6832              	.LBB4822:
 6833              	.LBB4821:
 6834              	.LBB4820:
 6835              	.LBB4813:
 6836              	.LBB4805:
 6837              	.LBB4806:
 6838              		.loc 5 199 0
 6839 216c 38000000 		li 0,0
 6840              	.LVL587:
 6841              	.LBE4806:
 6842              	.LBE4805:
 6843              		.loc 5 209 0
 6844 2170 93E9FFF4 		stw 31,-12(9)
 6845              	.LVL588:
 6846              	.LBB4808:
 6847              	.LBB4807:
 6848              		.loc 5 199 0
 6849 2174 9009FFFC 		stw 0,-4(9)
 6850              	.LBE4807:
 6851              	.LBE4808:
 6852              	.LBB4809:
 6853              	.LBB4810:
 6854              		.loc 8 245 0
 6855 2178 7C09F9AE 		stbx 0,9,31
 6856 217c 4BFFFA88 		b .L440
 6857              	.LVL589:
 6858              	.L584:
 6859              	.LBE4810:
 6860              	.LBE4809:
 6861              	.LBE4813:
 6862              	.LBE4820:
 6863              	.LBE4821:
 6864              	.LBE4822:
 6865              	.LBE4885:
 6866              	.LBB4886:
 6867              	.LBB4862:
 6868              	.LBB4860:
 6869              	.LBB4859:
 6870              	.LBB4858:
 6871              	.LBB4857:
 6872              	.LBB4856:
 6873              	.LBB4854:
 6874              	.LBB4847:
 6875              	.LBB4848:
 6876              	.LBB4849:
 6877              		.loc 6 66 0
 6878 2180 8169FFFC 		lwz 11,-4(9)
 6879              	.LVL590:
 6880              	.LBE4849:
 6881              	.LBE4848:
 6882              	.LBE4847:
 6883              		.loc 5 240 0
 6884 2184 2F8B0000 		cmpwi 7,11,0
 6885              	.LBB4852:
 6886              	.LBB4851:
 6887              	.LBB4850:
 6888              		.loc 6 67 0
 6889 2188 396BFFFF 		addi 11,11,-1
 6890 218c 9169FFFC 		stw 11,-4(9)
 6891              	.LBE4850:
 6892              	.LBE4851:
 6893              	.LBE4852:
 6894              		.loc 5 240 0
 6895 2190 419DFAF4 		bgt+ 7,.L450
 6896              		.loc 5 244 0
 6897 2194 38810015 		addi 4,1,21
 6898 2198 48000001 		bl _ZNSs4_Rep10_M_destroyERKSaIcE
 6899              	.LVL591:
 6900 219c 4BFFFAE8 		b .L450
 6901              	.LVL592:
 6902              	.L592:
 6903              	.LBE4854:
 6904              	.LBE4856:
 6905              	.LBE4857:
 6906              	.LBE4858:
 6907              	.LBE4859:
 6908              	.LBE4860:
 6909              	.LBE4862:
 6910              	.LBE4886:
 6911              	.LBE4998:
 6912              	.LBB4999:
 6913              	.LBB4730:
 6914              	.LBB4717:
 6915              	.LBB4706:
 6916              	.LBB4700:
 6917              	.LBB4695:
 6918              	.LBB4690:
 6919              	.LBB4684:
 6920              	.LBB4683:
 6921              	.LBB4682:
 6922              	.LBB4681:
 6923              	.LBB4680:
 6924              	.LBB4679:
 6925              	.LBB4678:
 6926              	.LBB4677:
 6927              	.LBB4676:
 6928              	.LBB4675:
 6929              	.LBB4669:
 6930              	.LBB4670:
 6931              	.LBB4671:
 6932              		.loc 6 66 0
 6933 21a0 8169FFFC 		lwz 11,-4(9)
 6934              	.LVL593:
 6935              	.LBE4671:
 6936              	.LBE4670:
 6937              	.LBE4669:
 6938              		.loc 5 240 0
 6939 21a4 2F8B0000 		cmpwi 7,11,0
 6940              	.LBB4674:
 6941              	.LBB4673:
 6942              	.LBB4672:
 6943              		.loc 6 67 0
 6944 21a8 396BFFFF 		addi 11,11,-1
 6945 21ac 9169FFFC 		stw 11,-4(9)
 6946              	.LBE4672:
 6947              	.LBE4673:
 6948              	.LBE4674:
 6949              		.loc 5 240 0
 6950 21b0 419DFC9C 		bgt+ 7,.L351
 6951              		.loc 5 244 0
 6952 21b4 3881001C 		addi 4,1,28
 6953 21b8 48000001 		bl _ZNSs4_Rep10_M_destroyERKSaIcE
 6954              	.LVL594:
 6955 21bc 4BFFFC90 		b .L351
 6956              	.LVL595:
 6957              	.L593:
 6958              	.LBE4675:
 6959              	.LBE4676:
 6960              	.LBE4677:
 6961              	.LBE4678:
 6962              	.LBE4679:
 6963              	.LBE4680:
 6964              	.LBE4681:
 6965              	.LBE4682:
 6966              	.LBE4683:
 6967              	.LBE4684:
 6968              	.LBE4690:
 6969              	.LBE4695:
 6970              	.LBE4700:
 6971              	.LBE4706:
 6972              	.LBE4717:
 6973              	.LBB4718:
 6974              	.LBB4605:
 6975              	.LBB4535:
 6976              	.LBB4529:
 6977              	.LBB4524:
 6978              	.LBB4522:
 6979              		.loc 1 252 0
 6980 21c0 81210024 		lwz 9,36(1)
 6981              		.loc 1 253 0
 6982 21c4 3B20FFFC 		li 25,-4
 6983 21c8 4BFFF894 		b .L396
 6984              	.LVL596:
 6985              	.L534:
 6986 21cc 4BFFFF5C 		b .L562
 6987              	.LVL597:
 6988              	.L508:
 6989              	.LBE4522:
 6990              	.LBE4524:
 6991              		.loc 1 235 0
 6992 21d0 39200000 		li 9,0
 6993              		.loc 1 236 0
 6994 21d4 3B20FFFF 		li 25,-1
 6995 21d8 4BFFF884 		b .L396
 6996              	.LVL598:
 6997              	.L590:
 6998              	.LBE4529:
 6999              	.LBE4535:
 7000              	.LBE4605:
 7001              	.LBB4606:
 7002              	.LBB4589:
 7003              	.LBB4588:
 7004              	.LBB4587:
 7005              	.LBB4585:
 7006              	.LBB4578:
 7007              	.LBB4579:
 7008              	.LBB4580:
 7009              		.loc 6 66 0
 7010 21dc 8169FFFC 		lwz 11,-4(9)
 7011              	.LVL599:
 7012              	.LBE4580:
 7013              	.LBE4579:
 7014              	.LBE4578:
 7015              		.loc 5 240 0
 7016 21e0 2F8B0000 		cmpwi 7,11,0
 7017              	.LBB4583:
 7018              	.LBB4582:
 7019              	.LBB4581:
 7020              		.loc 6 67 0
 7021 21e4 396BFFFF 		addi 11,11,-1
 7022 21e8 9169FFFC 		stw 11,-4(9)
 7023              	.LBE4581:
 7024              	.LBE4582:
 7025              	.LBE4583:
 7026              		.loc 5 240 0
 7027 21ec 419DFBB0 		bgt+ 7,.L419
 7028              		.loc 5 244 0
 7029 21f0 38810019 		addi 4,1,25
 7030 21f4 48000001 		bl _ZNSs4_Rep10_M_destroyERKSaIcE
 7031              	.LVL600:
 7032 21f8 4BFFFBA4 		b .L419
 7033              	.LVL601:
 7034              	.L591:
 7035              	.LBE4585:
 7036              	.LBE4587:
 7037              	.LBE4588:
 7038              	.LBE4589:
 7039              	.LBE4606:
 7040              	.LBE4718:
 7041              	.LBB4719:
 7042              	.LBB4707:
 7043              		.loc 9 70 0
 7044 21fc 3C600000 		lis 3,.LC10@ha
 7045 2200 38630064 		la 3,.LC10@l(3)
 7046              	.LEHB49:
 7047 2204 48000001 		bl _ZSt20__throw_length_errorPKc
 7048              	.LEHE49:
 7049              	.LVL602:
 7050              	.L521:
 7051              	.LBB4701:
 7052              	.LBB4696:
 7053              	.LBB4691:
 7054              	.LBB4652:
 7055              	.LBB4645:
 7056              	.LBB4642:
 7057              	.LBB4640:
 7058              	.LBB4638:
 7059              	.LBB4636:
 7060              		.loc 13 80 0
 7061 2208 48000001 		bl __cxa_begin_catch
 7062              	.LVL603:
 7063              	.LBB4630:
 7064              	.LBB4631:
 7065              	.LBB4632:
 7066              	.LBB4633:
 7067              		.loc 12 103 0
 7068 220c 7F9CF800 		cmpw 7,28,31
 7069 2210 419E001C 		beq- 7,.L343
 7070 2214 7F9EE378 		mr 30,28
 7071              	.LVL604:
 7072              	.L344:
 7073              	.LBB4634:
 7074              	.LBB4635:
 7075              		.loc 12 94 0
 7076 2218 7FC3F378 		mr 3,30
 7077 221c 3BDE0004 		addi 30,30,4
 7078              	.LVL605:
 7079 2220 48000001 		bl _ZNSsD1Ev
 7080              	.LVL606:
 7081              	.LBE4635:
 7082              	.LBE4634:
 7083              		.loc 12 103 0
 7084 2224 7F9FF000 		cmpw 7,31,30
 7085 2228 409EFFF0 		bne+ 7,.L344
 7086              	.LVL607:
 7087              	.L343:
 7088              	.LEHB50:
 7089              	.LBE4633:
 7090              	.LBE4632:
 7091              	.LBE4631:
 7092              	.LBE4630:
 7093              		.loc 13 83 0
 7094 222c 48000001 		bl __cxa_rethrow
 7095              	.LEHE50:
 7096              	.LVL608:
 7097              	.L514:
 7098 2230 4BFFFE10 		b .L563
 7099              	.L516:
 7100 2234 7C7E1B78 		mr 30,3
 7101              	.LVL609:
 7102              	.L481:
 7103              	.LBE4636:
 7104              	.LBE4638:
 7105              	.LBE4640:
 7106              	.LBE4642:
 7107              	.LBE4645:
 7108              	.LBE4652:
 7109              	.LBE4691:
 7110              	.LBE4696:
 7111              	.LBE4701:
 7112              	.LBE4707:
 7113              	.LBE4719:
 7114              	.LBB4720:
 7115              		.loc 1 405 0
 7116 2238 7F83E378 		mr 3,28
 7117 223c 48000001 		bl _ZNSsD1Ev
 7118 2240 4BFFFE04 		b .L309
 7119              	.LVL610:
 7120              	.L570:
 7121              	.LBB4607:
 7122              	.LBB4465:
 7123              	.LBB4464:
 7124              	.LBB4463:
 7125              	.LBB4456:
 7126              	.LBB4448:
 7127              	.LBB4449:
 7128              		.loc 5 199 0
 7129 2244 38000000 		li 0,0
 7130              	.LVL611:
 7131              	.LBE4449:
 7132              	.LBE4448:
 7133              		.loc 5 209 0
 7134 2248 93E9FFF4 		stw 31,-12(9)
 7135              	.LVL612:
 7136              	.LBB4451:
 7137              	.LBB4450:
 7138              		.loc 5 199 0
 7139 224c 9009FFFC 		stw 0,-4(9)
 7140              	.LBE4450:
 7141              	.LBE4451:
 7142              	.LBB4452:
 7143              	.LBB4453:
 7144              		.loc 8 245 0
 7145 2250 7C09F9AE 		stbx 0,9,31
 7146 2254 4BFFF56C 		b .L388
 7147              	.LVL613:
 7148              	.L517:
 7149 2258 7C7E1B78 		mr 30,3
 7150              	.LBE4453:
 7151              	.LBE4452:
 7152              	.LBE4456:
 7153              	.LBE4463:
 7154              	.LBE4464:
 7155              	.LBE4465:
 7156              	.LBE4607:
 7157              		.loc 1 405 0
 7158 225c 7F43D378 		mr 3,26
 7159 2260 48000001 		bl _ZNSsD1Ev
 7160 2264 4BFFFFD4 		b .L481
 7161              	.LVL614:
 7162              	.L571:
 7163              	.LBB4608:
 7164              	.LBB4503:
 7165              	.LBB4502:
 7166              	.LBB4501:
 7167              	.LBB4494:
 7168              	.LBB4486:
 7169              	.LBB4487:
 7170              		.loc 5 199 0
 7171 2268 38000000 		li 0,0
 7172              	.LVL615:
 7173              	.LBE4487:
 7174              	.LBE4486:
 7175              		.loc 5 209 0
 7176 226c 93E9FFF4 		stw 31,-12(9)
 7177              	.LVL616:
 7178              	.LBB4489:
 7179              	.LBB4488:
 7180              		.loc 5 199 0
 7181 2270 9009FFFC 		stw 0,-4(9)
 7182              	.LBE4488:
 7183              	.LBE4489:
 7184              	.LBB4490:
 7185              	.LBB4491:
 7186              		.loc 8 245 0
 7187 2274 7C09F9AE 		stbx 0,9,31
 7188 2278 4BFFF5E4 		b .L393
 7189              	.LVL617:
 7190              	.L515:
 7191 227c 7C7F1B78 		mr 31,3
 7192 2280 4BFFFDB4 		b .L377
 7193              	.LVL618:
 7194              	.L581:
 7195              	.LBE4491:
 7196              	.LBE4490:
 7197              	.LBE4494:
 7198              	.LBE4501:
 7199              	.LBE4502:
 7200              	.LBE4503:
 7201              	.LBE4608:
 7202              	.LBB4609:
 7203              	.LBB4553:
 7204              	.LBB4552:
 7205              	.LBB4551:
 7206              	.LBB4549:
 7207              	.LBB4542:
 7208              	.LBB4543:
 7209              	.LBB4544:
 7210              		.loc 6 66 0
 7211 2284 8169FFFC 		lwz 11,-4(9)
 7212              	.LVL619:
 7213              	.LBE4544:
 7214              	.LBE4543:
 7215              	.LBE4542:
 7216              		.loc 5 240 0
 7217 2288 2F8B0000 		cmpwi 7,11,0
 7218              	.LBB4547:
 7219              	.LBB4546:
 7220              	.LBB4545:
 7221              		.loc 6 67 0
 7222 228c 396BFFFF 		addi 11,11,-1
 7223 2290 9169FFFC 		stw 11,-4(9)
 7224              	.LBE4545:
 7225              	.LBE4546:
 7226              	.LBE4547:
 7227              		.loc 5 240 0
 7228 2294 419DF7DC 		bgt+ 7,.L424
 7229              		.loc 5 244 0
 7230 2298 38810017 		addi 4,1,23
 7231 229c 48000001 		bl _ZNSs4_Rep10_M_destroyERKSaIcE
 7232              	.LVL620:
 7233 22a0 4BFFF7D0 		b .L424
 7234              	.LVL621:
 7235              	.L585:
 7236              	.LBE4549:
 7237              	.LBE4551:
 7238              	.LBE4552:
 7239              	.LBE4553:
 7240              	.LBE4609:
 7241              	.LBE4720:
 7242              	.LBE4730:
 7243              	.LBE4999:
 7244              	.LBB5000:
 7245              	.LBB4887:
 7246              	.LBB4881:
 7247              	.LBB4880:
 7248              	.LBB4879:
 7249              	.LBB4878:
 7250              	.LBB4872:
 7251              	.LBB4873:
 7252              	.LBB4874:
 7253              		.loc 6 66 0
 7254 22a4 8169FFFC 		lwz 11,-4(9)
 7255              	.LVL622:
 7256              	.LBE4874:
 7257              	.LBE4873:
 7258              	.LBE4872:
 7259              		.loc 5 240 0
 7260 22a8 2F8B0000 		cmpwi 7,11,0
 7261              	.LBB4877:
 7262              	.LBB4876:
 7263              	.LBB4875:
 7264              		.loc 6 67 0
 7265 22ac 396BFFFF 		addi 11,11,-1
 7266 22b0 9169FFFC 		stw 11,-4(9)
 7267              	.LBE4875:
 7268              	.LBE4876:
 7269              	.LBE4877:
 7270              		.loc 5 240 0
 7271 22b4 419DF9E0 		bgt+ 7,.L456
 7272              		.loc 5 244 0
 7273 22b8 38810014 		addi 4,1,20
 7274 22bc 48000001 		bl _ZNSs4_Rep10_M_destroyERKSaIcE
 7275              	.LVL623:
 7276 22c0 4BFFF9D4 		b .L456
 7277              	.LVL624:
 7278              	.L529:
 7279 22c4 4BFFFE64 		b .L562
 7280              	.LVL625:
 7281              	.L531:
 7282 22c8 4BFFFE60 		b .L562
 7283              	.LVL626:
 7284              	.L576:
 7285              	.LBE4878:
 7286              	.LBE4879:
 7287              	.LBE4880:
 7288              	.LBE4881:
 7289              	.LBE4887:
 7290              	.LBE5000:
 7291              	.LBB5001:
 7292              	.LBB4731:
 7293              	.LBB4721:
 7294              	.LBB4610:
 7295              	.LBB4536:
 7296              	.LBB4530:
 7297              		.loc 1 278 0
 7298 22cc 81210024 		lwz 9,36(1)
 7299              		.loc 1 279 0
 7300 22d0 3B20FFFA 		li 25,-6
 7301 22d4 4BFFF788 		b .L396
 7302              	.LVL627:
 7303              	.L577:
 7304              		.loc 1 285 0
 7305 22d8 806100A8 		lwz 3,168(1)
 7306              	.LVL628:
 7307              	.LEHB51:
 7308 22dc 48000001 		bl fclose
 7309 22e0 81210024 		lwz 9,36(1)
 7310              		.loc 1 286 0
 7311 22e4 3B20FFF9 		li 25,-7
 7312              	.LVL629:
 7313 22e8 4BFFF774 		b .L396
 7314              	.LVL630:
 7315              	.L533:
 7316 22ec 4BFFFE3C 		b .L562
 7317              	.LVL631:
 7318              	.L575:
 7319              		.loc 1 259 0
 7320 22f0 81210024 		lwz 9,36(1)
 7321              		.loc 1 260 0
 7322 22f4 3B20FFFB 		li 25,-5
 7323 22f8 4BFFF764 		b .L396
 7324              	.LVL632:
 7325              	.L513:
 7326 22fc 4BFFFD44 		b .L563
 7327              	.LVL633:
 7328              	.L405:
 7329              		.loc 1 292 0
 7330 2300 3C600000 		lis 3,.LC12@ha
 7331              	.LVL634:
 7332 2304 38630078 		la 3,.LC12@l(3)
 7333 2308 4CC63182 		crxor 6,6,6
 7334 230c 48000001 		bl ShowError
 7335              	.LVL635:
 7336              		.loc 1 293 0
 7337 2310 7F23CB78 		mr 3,25
 7338 2314 48000001 		bl free
 7339              		.loc 1 294 0
 7340 2318 806100A8 		lwz 3,168(1)
 7341 231c 48000001 		bl fclose
 7342              	.LEHE51:
 7343 2320 81210024 		lwz 9,36(1)
 7344              		.loc 1 295 0
 7345 2324 3B20FFF8 		li 25,-8
 7346              	.LVL636:
 7347 2328 4BFFF734 		b .L396
 7348              	.LVL637:
 7349              	.L499:
 7350              	.LBE4530:
 7351              	.LBE4536:
 7352              	.LBE4610:
 7353              	.LBE4721:
 7354              	.LBE4731:
 7355              	.LBE5001:
 7356              		.loc 1 340 0
 7357 232c 3B20FFFF 		li 25,-1
 7358 2330 4BFFF9D4 		b .L475
 7359              	.LVL638:
 7360              	.L527:
 7361 2334 7C7E1B78 		mr 30,3
 7362 2338 4BFFFD54 		b .L495
 7363              	.LVL639:
 7364              	.L530:
 7365 233c 4BFFFDEC 		b .L562
 7366              	.LVL640:
 7367              	.L564:
 7368              	.LBB5002:
 7369              	.LBB4274:
 7370              	.LBB4272:
 7371              	.LBB4271:
 7372              		.loc 5 319 0
 7373 2340 3C600000 		lis 3,.LC7@ha
 7374 2344 38630048 		la 3,.LC7@l(3)
 7375              	.LEHB52:
 7376 2348 48000001 		bl _ZSt20__throw_out_of_rangePKc
 7377              	.LEHE52:
 7378              	.LVL641:
 7379              	.L588:
 7380              	.LBE4271:
 7381              	.LBE4272:
 7382              	.LBE4274:
 7383              	.LBE5002:
 7384              	.LBB5003:
 7385              	.LBB4910:
 7386              	.LBB4909:
 7387              	.LBB4908:
 7388              	.LBB4906:
 7389              	.LBB4899:
 7390              	.LBB4900:
 7391              	.LBB4901:
 7392              		.loc 6 66 0
 7393 234c 8169FFFC 		lwz 11,-4(9)
 7394              	.LVL642:
 7395              	.LBE4901:
 7396              	.LBE4900:
 7397              	.LBE4899:
 7398              		.loc 5 240 0
 7399 2350 2F8B0000 		cmpwi 7,11,0
 7400              	.LBB4904:
 7401              	.LBB4903:
 7402              	.LBB4902:
 7403              		.loc 6 67 0
 7404 2354 396BFFFF 		addi 11,11,-1
 7405 2358 9169FFFC 		stw 11,-4(9)
 7406              	.LBE4902:
 7407              	.LBE4903:
 7408              	.LBE4904:
 7409              		.loc 5 240 0
 7410 235c 419DF970 		bgt+ 7,.L463
 7411              		.loc 5 244 0
 7412 2360 38810012 		addi 4,1,18
 7413 2364 48000001 		bl _ZNSs4_Rep10_M_destroyERKSaIcE
 7414              	.LVL643:
 7415 2368 4BFFF964 		b .L463
 7416              	.LVL644:
 7417              	.L586:
 7418              	.LBE4906:
 7419              	.LBE4908:
 7420              	.LBE4909:
 7421              	.LBE4910:
 7422              	.LBE5003:
 7423              	.LBB5004:
 7424              	.LBB4888:
 7425              	.LBB4758:
 7426              	.LBB4755:
 7427              	.LBB4749:
 7428              	.LBB4741:
 7429              	.LBB4742:
 7430              	.LBB4743:
 7431              		.loc 6 66 0
 7432 236c 8169FFFC 		lwz 11,-4(9)
 7433              	.LVL645:
 7434              	.LBE4743:
 7435              	.LBE4742:
 7436              	.LBE4741:
 7437              		.loc 5 240 0
 7438 2370 2F8B0000 		cmpwi 7,11,0
 7439              	.LBB4746:
 7440              	.LBB4745:
 7441              	.LBB4744:
 7442              		.loc 6 67 0
 7443 2374 396BFFFF 		addi 11,11,-1
 7444 2378 9169FFFC 		stw 11,-4(9)
 7445              	.LBE4744:
 7446              	.LBE4745:
 7447              	.LBE4746:
 7448              		.loc 5 240 0
 7449 237c 419DF928 		bgt+ 7,.L457
 7450              		.loc 5 244 0
 7451 2380 38810013 		addi 4,1,19
 7452 2384 3BDEFFFC 		addi 30,30,-4
 7453 2388 48000001 		bl _ZNSs4_Rep10_M_destroyERKSaIcE
 7454              	.LVL646:
 7455 238c 4BFFF91C 		b .L595
 7456              	.LVL647:
 7457              	.L522:
 7458              	.LBE4749:
 7459              	.LBE4755:
 7460              	.LBE4758:
 7461              	.LBE4888:
 7462              	.LBE5004:
 7463              	.LBB5005:
 7464              	.LBB4732:
 7465              	.LBB4722:
 7466              	.LBB4708:
 7467              	.LBB4702:
 7468              	.LBB4697:
 7469              	.LBB4692:
 7470              	.LBB4653:
 7471              	.LBB4646:
 7472              	.LBB4643:
 7473              	.LBB4641:
 7474              	.LBB4639:
 7475              	.LBB4637:
 7476              		.loc 13 80 0
 7477 2390 906100B0 		stw 3,176(1)
 7478 2394 48000001 		bl __cxa_end_catch
 7479              	.LBE4637:
 7480              	.LBE4639:
 7481              	.LBE4641:
 7482              	.LBE4643:
 7483              	.LBE4646:
 7484              		.loc 2 1059 0
 7485 2398 806100B0 		lwz 3,176(1)
 7486 239c 48000001 		bl __cxa_begin_catch
 7487              	.LVL648:
 7488              	.LBB4647:
 7489              	.LBB4648:
 7490              		.loc 2 155 0
 7491 23a0 2F9C0000 		cmpwi 7,28,0
 7492 23a4 419E000C 		beq- 7,.L341
 7493              	.LVL649:
 7494              	.LBB4649:
 7495              	.LBB4650:
 7496              		.loc 4 98 0
 7497 23a8 7F83E378 		mr 3,28
 7498 23ac 48000001 		bl _ZdlPv
 7499              	.LVL650:
 7500              	.L341:
 7501              	.LEHB53:
 7502              	.LBE4650:
 7503              	.LBE4649:
 7504              	.LBE4648:
 7505              	.LBE4647:
 7506              		.loc 2 1062 0
 7507 23b0 48000001 		bl __cxa_rethrow
 7508              	.LEHE53:
 7509              	.LVL651:
 7510              	.L589:
 7511              	.LBE4653:
 7512              	.LBE4692:
 7513              	.LBE4697:
 7514              	.LBE4702:
 7515              	.LBE4708:
 7516              	.LBE4722:
 7517              	.LBE4732:
 7518              	.LBE5005:
 7519              	.LBB5006:
 7520              	.LBB4950:
 7521              	.LBB4949:
 7522              	.LBB4942:
 7523              	.LBB4941:
 7524              	.LBB4940:
 7525              	.LBB4939:
 7526              	.LBB4938:
 7527              	.LBB4937:
 7528              	.LBB4936:
 7529              	.LBB4935:
 7530              	.LBB4934:
 7531              	.LBB4933:
 7532              	.LBB4927:
 7533              	.LBB4928:
 7534              	.LBB4929:
 7535              		.loc 6 66 0
 7536 23b4 8169FFFC 		lwz 11,-4(9)
 7537              	.LVL652:
 7538              	.LBE4929:
 7539              	.LBE4928:
 7540              	.LBE4927:
 7541              		.loc 5 240 0
 7542 23b8 2F8B0000 		cmpwi 7,11,0
 7543              	.LBB4932:
 7544              	.LBB4931:
 7545              	.LBB4930:
 7546              		.loc 6 67 0
 7547 23bc 396BFFFF 		addi 11,11,-1
 7548 23c0 9169FFFC 		stw 11,-4(9)
 7549              	.LBE4930:
 7550              	.LBE4931:
 7551              	.LBE4932:
 7552              		.loc 5 240 0
 7553 23c4 419DF924 		bgt+ 7,.L470
 7554              		.loc 5 244 0
 7555 23c8 38810011 		addi 4,1,17
 7556 23cc 48000001 		bl _ZNSs4_Rep10_M_destroyERKSaIcE
 7557              	.LVL653:
 7558 23d0 4BFFF918 		b .L470
 7559              	.LVL654:
 7560              	.L535:
 7561 23d4 4BFFFD54 		b .L562
 7562              	.LVL655:
 7563              	.L520:
 7564 23d8 7C7E1B78 		mr 30,3
 7565              	.LBE4933:
 7566              	.LBE4934:
 7567              	.LBE4935:
 7568              	.LBE4936:
 7569              	.LBE4937:
 7570              	.LBE4938:
 7571              	.LBE4939:
 7572              	.LBE4940:
 7573              	.LBE4941:
 7574              	.LBE4942:
 7575              	.LBE4949:
 7576              	.LBE4950:
 7577              	.LBE5006:
 7578              	.LBB5007:
 7579              	.LBB4733:
 7580              	.LBB4723:
 7581              	.LBB4709:
 7582              	.LBB4703:
 7583              	.LBB4698:
 7584              	.LBB4693:
 7585              	.LBB4654:
 7586              		.loc 2 1059 0
 7587 23dc 48000001 		bl __cxa_end_catch
 7588 23e0 4BFFFC64 		b .L309
 7589              	.LBE4654:
 7590              	.LBE4693:
 7591              	.LBE4698:
 7592              	.LBE4703:
 7593              	.LBE4709:
 7594              	.LBE4723:
 7595              	.LBE4733:
 7596              	.LBE5007:
 7597              	.LBE5009:
 7598              		.cfi_endproc
 7599              	.LFE1494:
 7600              		.section	.gcc_except_table
 7601 0093 00       		.align 2
 7602              	.LLSDA1494:
 7603 0094 FF       		.byte	0xff
 7604 0095 00       		.byte	0
 7605 0096 C001     		.uleb128 .LLSDATT1494-.LLSDATTD1494
 7606              	.LLSDATTD1494:
